 LoaderGfx

 Timestamp is 41a2387e (Mon Nov 22 20:05:34 2004)

 Preferred load address is 00400000

 Start         Length     Name                   Class
 0001:00000000 0008abeaH .textbss                DATA
 0002:00000000 00042186H .text                   CODE
 0002:00042190 00001e8bH .text$x                 CODE
 0002:00044020 000010acH .text$yc                CODE
 0002:000450d0 0000104bH .text$yd                CODE
 0003:00000000 0003e67bH D3D                     CODE
 0003:0003e680 0001f724H D3D_RD                  CODE
 0003:0005ddb0 00009b80H D3D_URW                 CODE
 0004:00000000 0002c555H D3DX                    CODE
 0004:0002c558 000065f6H D3DX_RD                 CODE
 0005:00000000 00034f02H XGRPH                   CODE
 0005:00034f08 0000a057H XGRPH_RD                CODE
 0005:0003ef60 00002046H XGRPH_RW                CODE
 0006:00000000 00001005H .XID$A                  CODE
 0006:00001008 00001005H .XID$Gamepad            CODE
 0006:00002010 00001005H .XID$IrRemote           CODE
 0006:00003018 00001005H .XID$ZZZ                CODE
 0006:00004020 00001005H .XPP$ClassA             CODE
 0006:00005028 0000100aH .XPP$ClassXID           CODE
 0006:00006034 00001005H .XPP$ClassZZHub         CODE
 0006:0000703c 00001005H .XPP$ClassZZZ           CODE
 0006:00008041 00001001H .XPP$DATA               CODE
 0006:00009044 0000115cH .XPP$Data               CODE
 0006:0000a1a0 00002255H .XPPCINIT               CODE
 0006:0000c3f5 0000a283H .XPPCODE                CODE
 0006:00016678 000038e6H .XPPRDATA               CODE
 0006:00019f60 00001160H .XPPRINIT               CODE
 0007:00000000 00008683H .rdata                  DATA
 0007:00008684 00000157H .rdata$debug            DATA
 0007:000087dc 00000104H .rtc$IAA                DATA
 0007:000088e0 0000011cH .rtc$IMZ                DATA
 0007:000089fc 00000104H .rtc$IZZ                DATA
 0007:00008b00 00000104H .rtc$TAA                DATA
 0007:00008c04 0000011cH .rtc$TMZ                DATA
 0007:00008d20 00000104H .rtc$TZZ                DATA
 0007:00008e24 0000158fH .xdata$x                DATA
 0007:0000a3b3 00000000H .edata                  DATA
 0008:00000000 00000104H .CRT$RIA                DATA
 0008:00000104 00000104H .CRT$RII10              DATA
 0008:00000208 00000104H .CRT$RII15              DATA
 0008:0000030c 00000104H .CRT$RII20              DATA
 0008:00000410 00000104H .CRT$RIZ                DATA
 0008:00000514 00000104H .CRT$XCA                DATA
 0008:00000618 0000011bH .CRT$XCU                DATA
 0008:00000734 00000104H .CRT$XCZ                DATA
 0008:00000838 00000104H .CRT$XIA                DATA
 0008:0000093c 0000010eH .CRT$XIC                DATA
 0008:00000a4c 00000104H .CRT$XIY                DATA
 0008:00000b50 00000104H .CRT$XIZ                DATA
 0008:00000c54 00000104H .CRT$XPA                DATA
 0008:00000d58 00000104H .CRT$XPX                DATA
 0008:00000e5c 00000104H .CRT$XPZ                DATA
 0008:00000f60 00000104H .CRT$XTA                DATA
 0008:00001064 00000104H .CRT$XTB                DATA
 0008:00001168 00000104H .CRT$XTZ                DATA
 0008:0000126c 00000104H .XAPI$LNA               DATA
 0008:00001370 00000104H .XAPI$LNZ               DATA
 0008:00001480 00049450H .data                   DATA
 0008:0004a8e0 0001c514H .bss                    DATA
 0009:00000000 00000014H .idata$2                DATA
 0009:00000014 00000014H .idata$3                DATA
 0009:00000028 000002e8H .idata$4                DATA
 0009:00000310 000002e8H .idata$5                DATA
 0009:000005f8 0000010fH .idata$6                DATA
 000a:00000000 00000101H .tls                    DATA
 000a:00000108 000001a3H .tls$                   DATA
 000a:000002ab 00000101H .tls$ZZZ                DATA
 000b:00000000 00000113H .XBLD$A                 DATA
 000b:00000114 00000164H .XBLD$V                 DATA

  Address         Publics by Value              Rva+Base     Lib:Object

 0000:00000000       ___safe_se_handler_count   00000000     <absolute>
 0000:00000000       __except_list              00000000     <absolute>
 0000:00000000       ___safe_se_handler_table   00000000     <absolute>
 0000:00000004       __tls_array                00000004     <absolute>
 0001:00000000       __enc$textbss$begin        004003c0     <linker-defined>
 0001:0008abea       __enc$textbss$end          0048afaa     <linker-defined>
 0002:00009720       ??0cGifImage@@QAE@XZ       004946e0 f   cGif.obj
 0002:000098e0       ??1cGifImage@@QAE@XZ       004948a0 f   cGif.obj
 0002:000099d0       ?Clear@cGifImage@@AAEXXZ   00494990 f   cGif.obj
 0002:00009a30       ?PutColorData@cGifImage@@AAEXPAEH@Z 004949f0 f   cGif.obj
 0002:00009ad0       ?Mget_next_code@cGifImage@@AAEHXZ 00494a90 f   cGif.obj
 0002:00009dc0       ?GetSize@cGifImage@@QAEHPAEPAH1@Z 00494d80 f   cGif.obj
 0002:00009e60       ?LoadGifFromMemory@cGifImage@@QAEHPAE0@Z 00494e20 f   cGif.obj
 0002:0000a2b0       ?Initialize@KStarField@@QAEXHHPAM0@Z 00495270 f   KStars.obj
 0002:0000a4e0       ?Update@KStarField@@QAEXXZ 004954a0 f   KStars.obj
 0002:0000a810       ?Init@GifTexture@@QAEHPAEH@Z 004957d0 f   Main.obj
 0002:0000ab10       ?CreateTexture@D3DDevice@@SGJIIIKW4_D3DFORMAT@@KPAPAUD3DTexture@@@Z 00495ad0 f i Main.obj
 0002:0000aba0       ?LockRect@D3DTexture@@QAGJIPAU_D3DLOCKED_RECT@@PBUtagRECT@@K@Z 00495b60 f i Main.obj
 0002:0000ac10       ?UnlockRect@D3DTexture@@QAGJI@Z 00495bd0 f i Main.obj
 0002:0000aca0       ?InitPNG@GifTexture@@QAEHPAD@Z 00495c60 f   Main.obj
 0002:0000ad70       ?TrainerLaunch@@YAXXZ      00495d30 f   Main.obj
 0002:0000ae30       ?TrainerStart@@YAXXZ       00495df0 f   Main.obj
 0002:0000ae80       ?OptionStrLen@@YAHH@Z      00495e40 f   Main.obj
 0002:0000af20       ?OptionsInit@@YAXXZ        00495ee0 f   Main.obj
 0002:0000b000       ?OptionsWriteChar@@YAXHHMMDHH@Z 00495fc0 f   Main.obj
 0002:0000b0d0       ?OptionsWriteStringZ@@YAXHHMMPADHH@Z 00496090 f   Main.obj
 0002:0000b190       ?OptionsWriteStringZCenteredShift@@YAXHMMPADHH@Z 00496150 f   Main.obj
 0002:0000b260       ?OptionsWriteStringZCentered@@YAXHPADHH@Z 00496220 f   Main.obj
 0002:0000b330       ?OptionsWriteItem@@YAXHHHHH@Z 004962f0 f   Main.obj
 0002:0000b4e0       ?DrawOptions@@YAXXZ        004964a0 f   Main.obj
 0002:0000b620       ?CursorUp@@YAXXZ           004965e0 f   Main.obj
 0002:0000b690       ?CursorDown@@YAXXZ         00496650 f   Main.obj
 0002:0000b710       ?CursorDo@@YAXH@Z          004966d0 f   Main.obj
 0002:0000b7e0       _main                      004967a0 f   Main.obj
 0002:0000b850       ??0CXBoxSample@@QAE@XZ     00496810 f   Main.obj
 0002:0000b9c0       ?Cleanup@CXBApplication@@MAEJXZ 00496980 f i Main.obj
 0002:0000ba00       ?cutcols@@YAXPAH00@Z       004969c0 f   Main.obj
 0002:0000bac0       ?SetRGBtexture@CXBoxSample@@QAEJH@Z 00496a80 f   Main.obj
 0002:0000bbd0       ?Initialize@CXBoxSample@@UAEJXZ 00496b90 f   Main.obj
 0002:0000c410       ?CreateVertexBuffer@D3DDevice@@SGJIKKKPAPAUD3DVertexBuffer@@@Z 004973d0 f i Main.obj
 0002:0000c480       ?FrameMove@CXBoxSample@@UAEJXZ 00497440 f   Main.obj
 0002:0000c4c0       ?BandColor@CXBoxSample@@QAEJPAUD3DVertexBuffer@@HHHHKK@Z 00497480 f   Main.obj
 0002:0000c7e0       ?SetRenderState@D3DDevice@@SGJW4_D3DRENDERSTATETYPE@@K@Z 004977a0 f i Main.obj
 0002:0000cc50       ?SetTexture@D3DDevice@@SGJKPAUD3DBaseTexture@@@Z 00497c10 f i Main.obj
 0002:0000ccb0       ?SetTextureStageState@D3DDevice@@SGJKW4_D3DTEXTURESTAGESTATETYPE@@K@Z 00497c70 f i Main.obj
 0002:0000ce60       ?DrawPrimitive@D3DDevice@@SGJW4_D3DPRIMITIVETYPE@@II@Z 00497e20 f i Main.obj
 0002:0000cee0       ?SetVertexShader@D3DDevice@@SGJK@Z 00497ea0 f i Main.obj
 0002:0000cf30       ?SetStreamSource@D3DDevice@@SGJIPAUD3DVertexBuffer@@I@Z 00497ef0 f i Main.obj
 0002:0000cf90       ?Lock@D3DVertexBuffer@@QAGJIIPAPAEK@Z 00497f50 f i Main.obj
 0002:0000cff0       ?Unlock@D3DVertexBuffer@@QAGJXZ 00497fb0 f i Main.obj
 0002:0000d070       ??0D3DXVECTOR4@@QAE@MMMM@Z 00498030 f i Main.obj
 0002:0000d0f0       ?RasterLine@CXBoxSample@@QAEJPAUD3DVertexBuffer@@HPAUD3DTexture@@H@Z 004980b0 f   Main.obj
 0002:0000d480       ?BandFade@CXBoxSample@@QAEJPAUD3DVertexBuffer@@H@Z 00498440 f   Main.obj
 0002:0000d7e0       ?RenderState@CXBoxSample@@QAEJXZ 004987a0 f   Main.obj
 0002:0000d940       ?tFont_DrawLetter@CXBoxSample@@QAEJHHDHHH@Z 00498900 f   Main.obj
 0002:0000dab0       ?SetTexture@GifTexture@@QAEXXZ 00498a70 f i Main.obj
 0002:0000db10       ?tFont_DrawString@CXBoxSample@@QAEJHHPADHH@Z 00498ad0 f   Main.obj
 0002:0000dbb0       ?DrawQuad@CXBoxSample@@QAEJMMHHHHHHHHK@Z 00498b70 f   Main.obj
 0002:0000e140       ?DoIntro@CXBoxSample@@QAEJXZ 00499100 f   Main.obj
 0002:0000eca0       ?Render@CXBoxSample@@UAEJXZ 00499c60 f   Main.obj
 0002:0000ed30       ?Present@D3DDevice@@SGJPBUtagRECT@@0PAX1@Z 00499cf0 f i Main.obj
 0002:0000ed80       ?Clear@D3DDevice@@SGJKPBU_D3DRECT@@KKMK@Z 00499d40 f i Main.obj
 0002:0000edf0       ??0CXBApplication@@QAE@XZ  00499db0 f   xbapp.obj
 0002:0000ef90       ?Initialize@CXBApplication@@MAEJXZ 00499f50 f i xbapp.obj
 0002:0000efd0       ?FrameMove@CXBApplication@@MAEJXZ 00499f90 f i xbapp.obj
 0002:0000f010       ?Render@CXBApplication@@MAEJXZ 00499fd0 f i xbapp.obj
 0002:0000f050       ?Create@CXBApplication@@QAEJXZ 0049a010 f   xbapp.obj
 0002:0000f200       ?CreateDevice@Direct3D@@SGJIW4_D3DDEVTYPE@@PAXKPAU_D3DPRESENT_PARAMETERS_@@PAPAUD3DDevice@@@Z 0049a1c0 f i xbapp.obj
 0002:0000f270       ?GetBackBuffer@D3DDevice@@SGJHKPAPAUD3DSurface@@@Z 0049a230 f i xbapp.obj
 0002:0000f2d0       ?GetDepthStencilSurface@D3DDevice@@SGJPAPAUD3DSurface@@@Z 0049a290 f i xbapp.obj
 0002:0000f340       ?Destroy@CXBApplication@@QAEXXZ 0049a300 f   xbapp.obj
 0002:0000f3e0       ?Release@Direct3D@@SGKXZ   0049a3a0 f i xbapp.obj
 0002:0000f470       ?Release@D3DDevice@@SGKXZ  0049a430 f i xbapp.obj
 0002:0000f4c0       ?Run@CXBApplication@@QAEHXZ 0049a480 f   xbapp.obj
 0002:0000ff60       ?XBProfiling_IsFastCAPRequested@@YAHXZ 0049af20 f i xbapp.obj
 0002:0000ff90       ??0CXBSimpleFastCapProfile@@QAE@XZ 0049af50 f i xbapp.obj
 0002:0000ffd0       ??1CXBSimpleFastCapProfile@@QAE@XZ 0049af90 f i xbapp.obj
 0002:00010020       ?BeginProfiling@CXBSimpleFastCapProfile@@QAEXK@Z 0049afe0 f i xbapp.obj
 0002:00010060       ?EndProfiling@CXBSimpleFastCapProfile@@QAEXXZ 0049b020 f i xbapp.obj
 0002:000100a0       ?RenderGradientBackground@CXBApplication@@IAEJKK@Z 0049b060 f   xbapp.obj
 0002:000102c0       ?GetDisplayMode@D3DDevice@@SGJPAU_D3DDISPLAYMODE@@@Z 0049b280 f i xbapp.obj
 0002:00010870       ?SetVertexData4f@D3DDevice@@SGJHMMMM@Z 0049b830 f i xbapp.obj
 0002:000108e0       ?SetVertexDataColor@D3DDevice@@SGJHK@Z 0049b8a0 f i xbapp.obj
 0002:00010940       ?Begin@D3DDevice@@SGJW4_D3DPRIMITIVETYPE@@@Z 0049b900 f i xbapp.obj
 0002:00010990       ?End@D3DDevice@@SGJXZ      0049b950 f i xbapp.obj
 0002:000109e0       ?XBInput_CreateGamepads@@YAJPAPAUXBGAMEPAD@@@Z 0049b9a0 f   xbinput.obj
 0002:00010bd0       ?XBInput_RefreshDeviceList@@YAXPAUXBGAMEPAD@@@Z 0049bb90 f   xbinput.obj
 0002:00010f20       ?XBInput_GetInput@@YAXPAUXBGAMEPAD@@@Z 0049bee0 f   xbinput.obj
 0002:000118e0       _fabsf                     0049c8a0 f i xbinput.obj
 0002:00011940       ?XBUtil_DebugPrint@@YAXPBDZZ 0049c900 f   xbutil.obj
 0002:00011a10       ?XBUtil_SetMediaPath@@YAXPBD@Z 0049c9d0 f   xbutil.obj
 0002:00011a70       ?XBUtil_FindMediaFile@@YAJPADPBD@Z 0049ca30 f   xbutil.obj
 0002:00011bc0       ?XBUtil_Timer@@YAMW4TIMER_COMMAND@@@Z 0049cb80 f   xbutil.obj
 0002:00011db0       ?XBUtil_DrawRect@@YAXMMMMKK@Z 0049cd70 f   xbutil.obj
 0002:000125f0       ?DrawVerticesUP@D3DDevice@@SGJW4_D3DPRIMITIVETYPE@@IPBXI@Z 0049d5b0 f i xbutil.obj
 0002:00012650       ??0D3DXVECTOR4@@QAE@XZ     0049d610 f i xbutil.obj
 0002:00012690       ??_H@YGXPAXIHP6EPAX0@Z@Z   0049d650 f i xbutil.obj
 0002:00012700       ?XBUtil_InitMaterial@@YAXAAU_D3DMATERIAL8@@MMMM@Z 0049d6c0 f   xbutil.obj
 0002:000127e0       ?XBUtil_InitLight@@YAXAAU_D3DLIGHT8@@W4_D3DLIGHTTYPE@@MMM@Z 0049d7a0 f   xbutil.obj
 0002:00012950       ??0D3DXVECTOR3@@QAE@MMM@Z  0049d910 f i xbutil.obj
 0002:000129c0       ?XBUtil_CreateTexture@@YAJPAUD3DDevice@@PBDPAPAUD3DTexture@@W4_D3DFORMAT@@@Z 0049d980 f   xbutil.obj
 0002:00012aa0       ?XBUtil_UnswizzleTexture2D@@YAXPAU_D3DLOCKED_RECT@@PBU_D3DSURFACE_DESC@@@Z 0049da60 f   xbutil.obj
 0002:00012ba0       ?XBUtil_UnswizzleTexture3D@@YAXPAU_D3DLOCKED_BOX@@PBU_D3DVOLUME_DESC@@@Z 0049db60 f   xbutil.obj
 0002:00012cc0       ?XBUtil_SwizzleTexture2D@@YAXPAU_D3DLOCKED_RECT@@PBU_D3DSURFACE_DESC@@@Z 0049dc80 f   xbutil.obj
 0002:00012dc0       ?XBUtil_SwizzleTexture3D@@YAXPAU_D3DLOCKED_BOX@@PBU_D3DVOLUME_DESC@@@Z 0049dd80 f   xbutil.obj
 0002:00012ee0       ?XBUtil_CreateVertexShader@@YAJPBDPBKPAK@Z 0049dea0 f   xbutil.obj
 0002:00013100       ?CreateVertexShader@D3DDevice@@SGJPBK0PAKK@Z 0049e0c0 f i xbutil.obj
 0002:00013160       ?XBUtil_CreatePixelShader@@YAJPBDPAK@Z 0049e120 f   xbutil.obj
 0002:00013340       ?CreatePixelShader@D3DDevice@@SGJPBU_D3DPixelShaderDef@@PAK@Z 0049e300 f i xbutil.obj
 0002:000133a0       ?XBUtil_GetCubeMapViewMatrix@@YA?AUD3DXMATRIX@@K@Z 0049e360 f   xbutil.obj
 0002:00013770       ??0D3DXMATRIX@@QAE@XZ      0049e730 f i xbutil.obj
 0002:000137b0       ?XBUtil_CreateNormalizationCubeMap@@YAJKPAPAUD3DCubeTexture@@@Z 0049e770 f   xbutil.obj
 0002:00013c90       ?CreateCubeTexture@D3DDevice@@SGJIIKW4_D3DFORMAT@@KPAPAUD3DCubeTexture@@@Z 0049ec50 f i xbutil.obj
 0002:00013d20       ?Release@D3DResource@@QAGKXZ 0049ece0 f i xbutil.obj
 0002:00013d70       ?GetCubeMapSurface@D3DCubeTexture@@QAGJW4_D3DCUBEMAP_FACES@@IPAPAUD3DSurface@@@Z 0049ed30 f i xbutil.obj
 0002:00013df0       ?LockRect@D3DSurface@@QAGJPAU_D3DLOCKED_RECT@@PBUtagRECT@@K@Z 0049edb0 f i xbutil.obj
 0002:00013e50       ?UnlockRect@D3DSurface@@QAGJXZ 0049ee10 f i xbutil.obj
 0002:00013ed0       ??0D3DXVECTOR3@@QAE@XZ     0049ee90 f i xbutil.obj
 0002:00013f10       ?XBUtil_VectorToRGBA@@YAKPBUD3DXVECTOR3@@M@Z 0049eed0 f i xbutil.obj
 0002:00013fe0       ?XBUtil_DumpSurface@@YAJPAUD3DSurface@@PBDH@Z 0049efa0 f   xbutil.obj
 0002:00014260       ?GetDesc@D3DSurface@@QAGJPAU_D3DSURFACE_DESC@@@Z 0049f220 f i xbutil.obj
 0002:000142c0       ?XBUtil_EvaluateHermite@@YA?AUD3DXVECTOR3@@ABU1@000M@Z 0049f280 f   xbutil.obj
 0002:00014530       ??HD3DXVECTOR3@@QBE?AU0@ABU0@@Z 0049f4f0 f i xbutil.obj
 0002:000145e0       ??GD3DXVECTOR3@@QBE?AU0@ABU0@@Z 0049f5a0 f i xbutil.obj
 0002:00014690       ??DD3DXVECTOR3@@QBE?AU0@M@Z 0049f650 f i xbutil.obj
 0002:00014730       ??D@YA?AUD3DXVECTOR3@@MABU0@@Z 0049f6f0 f i xbutil.obj
 0002:000147d0       ?XBUtil_EvaluateCatmullRom@@YA?AUD3DXVECTOR3@@ABU1@000M@Z 0049f790 f   xbutil.obj
 0002:00014a70       ??GD3DXVECTOR3@@QBE?AU0@XZ 0049fa30 f i xbutil.obj
 0002:00014b20       ?XBUtil_GetSplinePoint@@YAXPBUD3DXVECTOR3@@KMPAU1@1@Z 0049fae0 f   xbutil.obj
 0002:00014dc0       _floorf                    0049fd80 f i xbutil.obj
 0002:00014e20       ?XBUtil_RenderSpline@@YAXPBUD3DXVECTOR3@@KKH@Z 0049fde0 f   xbutil.obj
 0002:000151d0       ?DrawPrimitiveUP@D3DDevice@@SGJW4_D3DPRIMITIVETYPE@@IPBXI@Z 004a0190 f i xbutil.obj
 0002:00015250       ??KD3DXVECTOR3@@QBE?AU0@M@Z 004a0210 f i xbutil.obj
 0002:00015310       ?D3DXVec3Cross@@YAPAUD3DXVECTOR3@@PAU1@PBU1@1@Z 004a02d0 f i xbutil.obj
 0002:00015440       ?XBUtil_DeclaratorFromFVF@@YAJKQAK@Z 004a0400 f   xbutil.obj
 0002:00015700       ?XBUtil_GetWide@@YAXPBDPAGK@Z 004a06c0 f   xbutil.obj
 0002:00015840       ?XBUtil_LoadFile@@YAJPBDPAPAXPAK@Z 004a0800 f   xbutil.obj
 0002:00015aeb       _XLaunchNewImageA@8        004a0aab f   xapilibd:launch.obj
 0002:00015b3d       _XWriteTitleInfoNoReboot@24 004a0afd f   xapilibd:launch.obj
 0002:00015c56       _XGetLaunchInfo@8          004a0c16 f   xapilibd:launch.obj
 0002:00015d32       _XWriteTitleInfoAndRebootA@20 004a0cf2 f   xapilibd:launch.obj
 0002:00015dad       _XGetVideoFlags@0          004a0d6d f   xapilibd:xgetvideoflags.obj
 0002:00015e08       _XGetVideoStandard@0       004a0dc8 f   xapilibd:xgetvideostandard.obj
 0002:00015e3b       _OutputDebugStringA@4      004a0dfb f   xapilibd:outputdebugstringa.obj
 0002:00015e79       _vXDebugPrint@16           004a0e39 f   xapilibd:outputdebugstringa.obj
 0002:00015efb       _XDebugPrint               004a0ebb f   xapilibd:outputdebugstringa.obj
 0002:00015f17       _XDebugError               004a0ed7 f   xapilibd:outputdebugstringa.obj
 0002:00015f32       _XDebugWarning             004a0ef2 f   xapilibd:outputdebugstringa.obj
 0002:00015f4d       _XDebugTrace               004a0f0d f   xapilibd:outputdebugstringa.obj
 0002:00015f68       _XDebugEntry               004a0f28 f   xapilibd:outputdebugstringa.obj
 0002:00015f83       _XDebugExit                004a0f43 f   xapilibd:outputdebugstringa.obj
 0002:00015f9e       _QueryPerformanceCounter@4 004a0f5e f   xapilibd:perfctr.obj
 0002:00015fb3       _QueryPerformanceFrequency@4 004a0f73 f   xapilibd:perfctr.obj
 0002:00015fda       _CloseHandle@4             004a0f9a f   xapilibd:handle.obj
 0002:00016003       _DuplicateHandle@28        004a0fc3 f   xapilibd:handle.obj
 0002:00016033       _CreateFileA@28            004a0ff3 f   xapilibd:fileopcr.obj
 0002:00016238       _CopyFileExA@24            004a11f8 f   xapilibd:fileopcr.obj
 0002:000165ee       _CopyFileA@12              004a15ae f   xapilibd:fileopcr.obj
 0002:00016616       _ReadFile@20               004a15d6 f   xapilibd:filehops.obj
 0002:0001673e       _WriteFile@20              004a16fe f   xapilibd:filehops.obj
 0002:00016849       _SetEndOfFile@4            004a1809 f   xapilibd:filehops.obj
 0002:000168ee       _SetFilePointer@16         004a18ae f   xapilibd:filehops.obj
 0002:00016a3a       _SetFilePointerEx@20       004a19fa f   xapilibd:filehops.obj
 0002:00016b45       _GetFileInformationByHandle@8 004a1b05 f   xapilibd:filehops.obj
 0002:00016c54       _GetFileTime@16            004a1c14 f   xapilibd:filehops.obj
 0002:00016cd3       _SetFileTime@16            004a1c93 f   xapilibd:filehops.obj
 0002:00016d61       _FlushFileBuffers@4        004a1d21 f   xapilibd:filehops.obj
 0002:00016d91       _GetFileSizeEx@8           004a1d51 f   xapilibd:filehops.obj
 0002:00016dde       _ReadFileEx@20             004a1d9e f   xapilibd:filehops.obj
 0002:00016e43       _WriteFileEx@20            004a1e03 f   xapilibd:filehops.obj
 0002:00016ea8       _DeviceIoControl@32        004a1e68 f   xapilibd:filehops.obj
 0002:00016fe5       _ReadFileScatter@20        004a1fa5 f   xapilibd:filehops.obj
 0002:0001710d       _WriteFileGather@20        004a20cd f   xapilibd:filehops.obj
 0002:00017218       _XGetFilePhysicalSortKey@4 004a21d8 f   xapilibd:filehops.obj
 0002:000172e8       _GetFileSize@8             004a22a8 f   xapilibd:filehops.obj
 0002:00017331       _UTF8ToUnicode@16          004a22f1 f   xapilibd:widechar.obj
 0002:000174dc       _UnicodeToUTF8@16          004a249c f   xapilibd:widechar.obj
 0002:000175c2       _MultiByteToWideChar@24    004a2582 f   xapilibd:widechar.obj
 0002:000176c4       _WideCharToMultiByte@32    004a2684 f   xapilibd:widechar.obj
 0002:00017834       _GetLastError@0            004a27f4 f   xapilibd:error.obj
 0002:00017882       _SetLastError@4            004a2842 f   xapilibd:error.obj
 0002:000178dc       _XapiSetLastNTError@4      004a289c f   xapilibd:error.obj
 0002:000178ff       _CreateIoCompletionPort@16 004a28bf f   xapilibd:error.obj
 0002:000179ae       _PostQueuedCompletionStatus@16 004a296e f   xapilibd:error.obj
 0002:000179e7       _GetQueuedCompletionStatus@20 004a29a7 f   xapilibd:error.obj
 0002:00017a75       _GetOverlappedResult@16    004a2a35 f   xapilibd:error.obj
 0002:00017b1d       _mainXapiStartup@4         004a2add f   xapilibd:xapi0.obj
 0002:00017bbd       _mainCRTStartup            004a2b7d f   xapilibd:xapi0.obj
 0002:00017c4b       _BuildUpdateFilePath@12    004a2c0b f   xapilibd:bootutil.obj
 0002:00017ca7       _XapipUpdateMountDashPartition@0 004a2c67 f   xapilibd:bootutil.obj
 0002:00017d45       _XoUpdateLoadXBEInfo@8     004a2d05 f   xapilibd:bootutil.obj
 0002:00017e44       _XoRebootToUpdaterWhilePreservingDDrive@12 004a2e04 f   xapilibd:bootutil.obj
 0002:00017f3a       _XoUpdateGetSavedDataFromLaunchPage@12 004a2efa f   xapilibd:bootutil.obj
 0002:00018009       _XapipUpdateGetCurrentDDriveMapping@8 004a2fc9 f   xapilibd:bootutil.obj
 0002:000180ff       _XapipUpdateSaveDDriveMappingToLaunchPage@8 004a30bf f   xapilibd:bootutil.obj
 0002:00018203       _XapipUpdateDetectAndVerify@16 004a31c3 f   xapilibd:bootutil.obj
 0002:0001849f       _XapipUpdateDashIfNecessary@4 004a345f f   xapilibd:bootutil.obj
 0002:00018557       _XapipLaunchNewImageInternal@16 004a3517 f   xapilibd:bootutil.obj
 0002:0001879b       _XapipUpdateRebootIfNecessary@0 004a375b f   xapilibd:bootutil.obj
 0002:00018a63       _lstrcmpA@8                004a3a23 f   xapilibd:lcompata.obj
 0002:00018ae0       _lstrcmpiA@8               004a3aa0 f   xapilibd:lcompata.obj
 0002:00018b36       _lstrcpyA@8                004a3af6 f   xapilibd:lcompata.obj
 0002:00018b83       _lstrcpynA@12              004a3b43 f   xapilibd:lcompata.obj
 0002:00018c01       _lstrcatA@8                004a3bc1 f   xapilibd:lcompata.obj
 0002:00018c71       _lstrlenA@4                004a3c31 f   xapilibd:lcompata.obj
 0002:00018cbe       _XGetAVPack@0              004a3c7e f   xapilibd:xgetavpack.obj
 0002:00018d1a       _XapiFormatObjectAttributes@12 004a3cda f   xapilibd:support.obj
 0002:00018d4d       _XapiFormatTimeOut@8       004a3d0d f   xapilibd:support.obj
 0002:00018d89       _CreateEventA@16           004a3d49 f   xapilibd:synch.obj
 0002:00018e02       _OpenEventA@12             004a3dc2 f   xapilibd:synch.obj
 0002:00018e75       _SetEvent@4                004a3e35 f   xapilibd:synch.obj
 0002:00018ea0       _ResetEvent@4              004a3e60 f   xapilibd:synch.obj
 0002:00018ec9       _PulseEvent@4              004a3e89 f   xapilibd:synch.obj
 0002:00018ef4       _CreateSemaphoreA@16       004a3eb4 f   xapilibd:synch.obj
 0002:00018f65       _OpenSemaphoreA@12         004a3f25 f   xapilibd:synch.obj
 0002:00018fd8       _ReleaseSemaphore@12       004a3f98 f   xapilibd:synch.obj
 0002:00019008       _CreateMutexA@12           004a3fc8 f   xapilibd:synch.obj
 0002:00019076       _OpenMutexA@12             004a4036 f   xapilibd:synch.obj
 0002:000190e9       _ReleaseMutex@4            004a40a9 f   xapilibd:synch.obj
 0002:00019114       _WaitForSingleObjectEx@12  004a40d4 f   xapilibd:synch.obj
 0002:00019169       _SignalObjectAndWait@16    004a4129 f   xapilibd:synch.obj
 0002:000191c1       _WaitForMultipleObjectsEx@20 004a4181 f   xapilibd:synch.obj
 0002:00019261       _SleepEx@8                 004a4221 f   xapilibd:synch.obj
 0002:000192c7       _CreateWaitableTimerA@12   004a4287 f   xapilibd:synch.obj
 0002:0001933c       _OpenWaitableTimerA@12     004a42fc f   xapilibd:synch.obj
 0002:000193af       _SetWaitableTimer@24       004a436f f   xapilibd:synch.obj
 0002:00019406       _CancelWaitableTimer@4     004a43c6 f   xapilibd:synch.obj
 0002:00019431       _WaitForSingleObject@8     004a43f1 f   xapilibd:synch.obj
 0002:0001944a       _WaitForMultipleObjects@16 004a440a f   xapilibd:synch.obj
 0002:0001946a       _Sleep@4                   004a442a f   xapilibd:synch.obj
 0002:0001947f       _XapiValidateDiskPartitionEx@8 004a443f f   xapilibd:xapiinit.obj
 0002:00019515       _XapiCopySectionToFile@16  004a44d5 f   xapilibd:xapiinit.obj
 0002:00019697       _XapiMapLetterToDirectory@24 004a4657 f   xapilibd:xapiinit.obj
 0002:00019bcb       _XapiSetupPerTitleDriveLetters@8 004a4b8b f   xapilibd:xapiinit.obj
 0002:00019c35       _XapiBootToDash@12         004a4bf5 f   xapilibd:xapiinit.obj
 0002:00019cb3       _XapiValidateDiskPartition@4 004a4c73 f   xapilibd:xapiinit.obj
 0002:00019ccc       _XapiInitProcess@0         004a4c8c f   xapilibd:xapiinit.obj
 0002:00019f6f       __cinit@0                  004a4f2f f   xapilibd:xapi0dat.obj
 0002:00019fc2       __rtinit@0                 004a4f82 f   xapilibd:xapi0dat.obj
 0002:00019fdd       _XapiRestrictCodeSelectorLimit@0 004a4f9d f   xapilibd:krnlptch.obj
 0002:0001a05a       _XapiApplyKernelPatches@0  004a501a f   xapilibd:krnlptch.obj
 0002:0001a150       _XapiCallThreadNotifyRoutines@4 004a5110 f   xapilibd:thread.obj
 0002:0001a199       _SetThreadPriority@8       004a5159 f   xapilibd:thread.obj
 0002:0001a1ff       _GetThreadPriority@4       004a51bf f   xapilibd:thread.obj
 0002:0001a268       _SetThreadPriorityBoost@8  004a5228 f   xapilibd:thread.obj
 0002:0001a2bf       _GetThreadPriorityBoost@8  004a527f f   xapilibd:thread.obj
 0002:0001a310       _SuspendThread@4           004a52d0 f   xapilibd:thread.obj
 0002:0001a33f       _ResumeThread@4            004a52ff f   xapilibd:thread.obj
 0002:0001a36e       _RaiseException@16         004a532e f   xapilibd:thread.obj
 0002:0001a3d9       _XapiDispatchAPC@12        004a5399 f   xapilibd:thread.obj
 0002:0001a3e9       _QueueUserAPC@12           004a53a9 f   xapilibd:thread.obj
 0002:0001a418       _SwitchToThread@0          004a53d8 f   xapilibd:thread.obj
 0002:0001a436       _ExitThread@4              004a53f6 f   xapilibd:thread.obj
 0002:0001a45a       _GetExitCodeThread@8       004a541a f   xapilibd:thread.obj
 0002:0001a4c7       _SetUnhandledExceptionFilter@4 004a5487 f   xapilibd:thread.obj
 0002:0001a4e1       _GetThreadTimes@20         004a54a1 f   xapilibd:thread.obj
 0002:0001a58c       _XRegisterThreadNotifyRoutine@8 004a554c f   xapilibd:thread.obj
 0002:0001a5e8       _XSetProcessQuantumLength@4 004a55a8 f   xapilibd:thread.obj
 0002:0001a62a       _XGetProcessQuantumLength@0 004a55ea f   xapilibd:thread.obj
 0002:0001a68b       _UnhandledExceptionFilter@4 004a564b f   xapilibd:thread.obj
 0002:0001a713       _XapiThreadStartup@8       004a56d3 f   xapilibd:thread.obj
 0002:0001a89b       _CreateThread@24           004a585b f   xapilibd:thread.obj
 0002:0001a924       _GetCurrentThreadId@0      004a58e4 f   xapilibd:thread.obj
 0002:0001a934       _XapiComputeContentMetadataFileName@8 004a58f4 f   xapilibd:contsig.obj
 0002:0001a9a4       _XComputeContentSignatureKey@8 004a5964 f   xapilibd:contsig.obj
 0002:0001a9cd       _XapiComputeContentHeaderSignature@16 004a598d f   xapilibd:contsig.obj
 0002:0001aaf4       _XapiLoadContentMetadataHeader@16 004a5ab4 f   xapilibd:contsig.obj
 0002:0001ac0d       _XapiVerifyAndLoadOptionalSectionData@12 004a5bcd f   xapilibd:contsig.obj
 0002:0001ad0c       _XapipGetAlternateTitleID@0 004a5ccc f   xapilibd:contsig.obj
 0002:0001ae10       _XGetContentInstallLocationFromIDs@16 004a5dd0 f   xapilibd:contsig.obj
 0002:0001ae8d       _XGetContentInstallLocation@12 004a5e4d f   xapilibd:contsig.obj
 0002:0001af0f       _XInstallContentSignaturesWithFileName@16 004a5ecf f   xapilibd:contsig.obj
 0002:0001b1c1       _XInstallContentSignaturesEx@16 004a6181 f   xapilibd:contsig.obj
 0002:0001b1fe       _XInstallContentSignatures@12 004a61be f   xapilibd:contsig.obj
 0002:0001b238       _XCreateContentSimple@24   004a61f8 f   xapilibd:contsig.obj
 0002:0001b47e       _XRemoveContent@4          004a643e f   xapilibd:contsig.obj
 0002:0001b4ea       _XLoadContentSignaturesWithFileName@8 004a64aa f   xapilibd:contsig.obj
 0002:0001b6b1       _XLoadContentSignaturesEx@8 004a6671 f   xapilibd:contsig.obj
 0002:0001b6e6       _XLocateSignatureByIndex@16 004a66a6 f   xapilibd:contsig.obj
 0002:0001b79f       _XLocateSignatureByNameEx@24 004a675f f   xapilibd:contsig.obj
 0002:0001b908       _XLocateSignatureByName@24 004a68c8 f   xapilibd:contsig.obj
 0002:0001b92e       _XLocateNextSignature@28   004a68ee f   xapilibd:contsig.obj
 0002:0001ba57       _XCalculateContentSignature@16 004a6a17 f   xapilibd:contsig.obj
 0002:0001bae1       _XLocateLiveSignature@12   004a6aa1 f   xapilibd:contsig.obj
 0002:0001bb5e       _XCloseContentSignatures@4 004a6b1e f   xapilibd:contsig.obj
 0002:0001bb9f       _xCompareStringA@20        004a6b5f f   xapilibd:compstra.obj
 0002:0001bddc       _XAutoPowerDownResetTimer@0 004a6d9c f   xapilibd:powerdwn.obj
 0002:0001be00       _XAutoPowerDownTimeRemaining@0 004a6dc0 f   xapilibd:powerdwn.obj
 0002:0001be70       _XapiAutoPowerDownTimeout@16 004a6e30 f   xapilibd:powerdwn.obj
 0002:0001be86       _XapiInitAutoPowerDown@0   004a6e46 f   xapilibd:powerdwn.obj
 0002:0001bf30       _XGetSectionHandleA@4      004a6ef0 f   xapilibd:xemodule.obj
 0002:0001bfcd       _XLoadSectionByHandle@4    004a6f8d f   xapilibd:xemodule.obj
 0002:0001c02d       _XFreeSectionByHandle@4    004a6fed f   xapilibd:xemodule.obj
 0002:0001c08c       _XLoadSectionA@4           004a704c f   xapilibd:xemodule.obj
 0002:0001c0ce       _XFreeSectionA@4           004a708e f   xapilibd:xemodule.obj
 0002:0001c110       _XGetSectionSize@4         004a70d0 f   xapilibd:xemodule.obj
 0002:0001c156       _XGetParentalControlSetting@0 004a7116 f   xapilibd:xgetparentalcontrolsetting.obj
 0002:0001c184       _GetDiskFreeSpaceExA@16    004a7144 f   xapilibd:pathmisc.obj
 0002:0001c2cf       _GetVolumeInformationA@32  004a728f f   xapilibd:pathmisc.obj
 0002:0001c5d6       _XapiSelectCachePartition@12 004a7596 f   xapilibd:pathmisc.obj
 0002:0001c94b       _XMountUtilityDrive@4      004a790b f   xapilibd:pathmisc.obj
 0002:0001cabf       _XFormatUtilityDrive@0     004a7a7f f   xapilibd:pathmisc.obj
 0002:0001cb8d       _XMountSecondaryUtilityDrive@0 004a7b4d f   xapilibd:pathmisc.obj
 0002:0001ceee       _XSwapUtilityDrives@0      004a7eae f   xapilibd:pathmisc.obj
 0002:0001d1b1       _XFormatSecondaryUtilityDrive@0 004a8171 f   xapilibd:pathmisc.obj
 0002:0001d27f       _XMountAlternateTitleA@12  004a823f f   xapilibd:pathmisc.obj
 0002:0001d59b       _XUnmountAlternateTitleA@4 004a855b f   xapilibd:pathmisc.obj
 0002:0001d62f       _XGetDiskClusterSizeA@4    004a85ef f   xapilibd:pathmisc.obj
 0002:0001d73d       _XGetDiskSectorSizeA@4     004a86fd f   xapilibd:pathmisc.obj
 0002:0001d83f       _XMUNameFromDriveLetter@12 004a87ff f   xapilibd:pathmisc.obj
 0002:0001d968       _HeapCreate@12             004a8928 f   xapilibd:xapiheap.obj
 0002:0001d9ca       _HeapDestroy@4             004a898a f   xapilibd:xapiheap.obj
 0002:0001d9f0       _HeapFree@12               004a89b0 f   xapilibd:xapiheap.obj
 0002:0001da0e       _HeapValidate@12           004a89ce f   xapilibd:xapiheap.obj
 0002:0001da2c       _GetProcessHeap@0          004a89ec f   xapilibd:xapiheap.obj
 0002:0001da32       _HeapCompact@8             004a89f2 f   xapilibd:xapiheap.obj
 0002:0001da3d       _HeapLock@4                004a89fd f   xapilibd:xapiheap.obj
 0002:0001da53       _HeapUnlock@4              004a8a13 f   xapilibd:xapiheap.obj
 0002:0001da69       _HeapWalk@8                004a8a29 f   xapilibd:xapiheap.obj
 0002:0001db7d       _LocalAlloc@8              004a8b3d f   xapilibd:xapiheap.obj
 0002:0001dbc0       _LocalReAlloc@12           004a8b80 f   xapilibd:xapiheap.obj
 0002:0001dc18       _LocalSize@4               004a8bd8 f   xapilibd:xapiheap.obj
 0002:0001dc34       _LocalFree@4               004a8bf4 f   xapilibd:xapiheap.obj
 0002:0001dc5c       _LocalLock@4               004a8c1c f   xapilibd:xapiheap.obj
 0002:0001dc68       _LocalHandle@4             004a8c28 f   xapilibd:xapiheap.obj
 0002:0001dc74       _LocalUnlock@4             004a8c34 f   xapilibd:xapiheap.obj
 0002:0001dc7a       _GlobalAlloc@8             004a8c3a f   xapilibd:xapiheap.obj
 0002:0001dcbd       _GlobalReAlloc@12          004a8c7d f   xapilibd:xapiheap.obj
 0002:0001dd15       _XSetAttributesOnHeapAlloc@8 004a8cd5 f   xapilibd:xapiheap.obj
 0002:0001dd29       _XGetAttributesOnHeapAlloc@4 004a8ce9 f   xapilibd:xapiheap.obj
 0002:0001ddf7       _RtlZeroHeap@8             004a8db7 f   xapilibd:heap.obj
 0002:0001dfab       _RtlpCreateUnCommittedRange@4 004a8f6b f   xapilibd:heap.obj
 0002:0001e15b       _RtlpDestroyUnCommittedRange@8 004a911b f   xapilibd:heap.obj
 0002:0001e1d0       _RtlpInsertUnCommittedPages@12 004a9190 f   xapilibd:heap.obj
 0002:0001e2e9       _RtlpFindAndCommitPages@16 004a92a9 f   xapilibd:heap.obj
 0002:0001e54c       _RtlpDestroyHeapSegment@4  004a950c f   xapilibd:heap.obj
 0002:0001e5d5       _RtlpCoalesceFreeBlocks@16 004a9595 f   xapilibd:heap.obj
 0002:0001ebf8       _RtlpInsertFreeBlock@12    004a9bb8 f   xapilibd:heap.obj
 0002:0001ee0a       _RtlpGetExtraStuffPointer@4 004a9dca f   xapilibd:heap.obj
 0002:0001ee30       _RtlpGetSizeOfBigBlock@4   004a9df0 f   xapilibd:heap.obj
 0002:0001ee90       _RtlpCheckBusyBlockTail@4  004a9e50 f   xapilibd:heap.obj
 0002:0001ef5d       _RtlpCheckHeapSignature@8  004a9f1d f   xapilibd:heap.obj
 0002:0001efc6       _RtlpValidateHeapHeaders@8 004a9f86 f   xapilibd:heap.obj
 0002:0001f0d7       _RtlpValidateHeapSegment@32 004aa097 f   xapilibd:heap.obj
 0002:0001f3b7       _RtlpValidateHeapEntry@12  004aa377 f   xapilibd:heap.obj
 0002:0001f4a8       _RtlpValidateHeap@8        004aa468 f   xapilibd:heap.obj
 0002:0001f8e8       _RtlDebugWalkHeap@8        004aa8a8 f   xapilibd:heap.obj
 0002:0001f943       _RtlWalkHeap@8             004aa903 f   xapilibd:heap.obj
 0002:0001fc39       _RtlLockHeap@4             004aabf9 f   xapilibd:heap.obj
 0002:0001fcbd       _RtlUnlockHeap@4           004aac7d f   xapilibd:heap.obj
 0002:0001fd41       _RtlValidateHeap@12        004aad01 f   xapilibd:heap.obj
 0002:0001fe14       _RtlDebugCompactHeap@8     004aadd4 f   xapilibd:heap.obj
 0002:0001feed       _RtlDestroyHeap@4          004aaead f   xapilibd:heap.obj
 0002:0001fffb       _RtlpGrowBlockInPlace@20   004aafbb f   xapilibd:heap.obj
 0002:00020894       _RtlSizeHeap@12            004ab854 f   xapilibd:heap.obj
 0002:000208d1       _RtlpInitializeHeapSegment@28 004ab891 f   xapilibd:heap.obj
 0002:00020a80       _RtlpExtendHeap@8          004aba40 f   xapilibd:heap.obj
 0002:00020cb2       _RtlpDeCommitFreeBlock@12  004abc72 f   xapilibd:heap.obj
 0002:000211a4       _RtlpCoalesceHeap@4        004ac164 f   xapilibd:heap.obj
 0002:000212ce       _RtlCompactHeap@8          004ac28e f   xapilibd:heap.obj
 0002:000213b0       _RtlCreateHeap@24          004ac370 f   xapilibd:heap.obj
 0002:0002197d       _RtlAllocateHeapSlowly@12  004ac93d f   xapilibd:heap.obj
 0002:00022892       _RtlFreeHeapSlowly@12      004ad852 f   xapilibd:heap.obj
 0002:00022be4       _RtlAllocateHeap@12        004adba4 f   xapilibd:heap.obj
 0002:00023a5d       _RtlFreeHeap@12            004aea1d f   xapilibd:heap.obj
 0002:00023f5a       _RtlReAllocateHeap@16      004aef1a f   xapilibd:heap.obj
 0002:00024ba0       _XapiShutdownChannelStartNextPacket@0 004afb60 f   xapilibd:xapiterm.obj
 0002:00024be7       _XapiShutdownChannelStartPacket@8 004afba7 f   xapilibd:xapiterm.obj
 0002:00024bfc       _XapiShutdownNotification@4 004afbbc f   xapilibd:xapiterm.obj
 0002:00024c68       _XapiChangeCodeSelectorLimit@8 004afc28 f   xapilibd:xapidlla.obj
 0002:00024c96       _XShaHmacInitialize@12     004afc56 f   xapilibd:xcalcsig.obj
 0002:00024d57       _XShaHmacUpdate@12         004afd17 f   xapilibd:xcalcsig.obj
 0002:00024daf       _XShaHmacComputeFinal@16   004afd6f f   xapilibd:xcalcsig.obj
 0002:00024e72       _XapiConvertSignatureToNonRoamable@12 004afe32 f   xapilibd:xcalcsig.obj
 0002:00024f2d       _XapipCalculateSaveGameSignatureBegin@8 004afeed f   xapilibd:xcalcsig.obj
 0002:00025015       _XapipCalculateSaveGameSignatureUpdate@12 004affd5 f   xapilibd:xcalcsig.obj
 0002:00025056       _XapipCalculateSaveGameSignatureEnd@8 004b0016 f   xapilibd:xcalcsig.obj
 0002:000250f9       _XapipCalculateContentSignatureBegin@0 004b00b9 f   xapilibd:xcalcsig.obj
 0002:0002513c       _XapipCalculateContentSignatureUpdate@12 004b00fc f   xapilibd:xcalcsig.obj
 0002:0002515d       _XapipCalculateContentSignatureEnd@8 004b011d f   xapilibd:xcalcsig.obj
 0002:00025192       _XCalculateSignatureGetSize@4 004b0152 f   xapilibd:xcalcsig.obj
 0002:000251d0       _XCalculateSignatureBeginEx@8 004b0190 f   xapilibd:xcalcsig.obj
 0002:00025257       _XCalculateSignatureBegin@4 004b0217 f   xapilibd:xcalcsig.obj
 0002:00025273       _XCalculateSignatureUpdate@12 004b0233 f   xapilibd:xcalcsig.obj
 0002:00025341       _XCalculateSignatureEnd@8  004b0301 f   xapilibd:xcalcsig.obj
 0002:000253e4       _XMemAlloc@8               004b03a4 f   xapilibd:xmem.obj
 0002:00025512       _XMemFree@8                004b04d2 f   xapilibd:xmem.obj
 0002:000256a3       _XMemSize@8                004b0663 f   xapilibd:xmem.obj
 0002:000256c6       _XapiNukeDirectoryFromHandle@8 004b0686 f   xapilibd:xclndrv.obj
 0002:000258a2       _XapiNukeDirectory@8       004b0862 f   xapilibd:xclndrv.obj
 0002:00025951       _SetFileAttributesA@8      004b0911 f   xapilibd:filemisc.obj
 0002:00025a20       _GetFileAttributesA@4      004b09e0 f   xapilibd:filemisc.obj
 0002:00025a7d       _GetFileAttributesExA@12   004b0a3d f   xapilibd:filemisc.obj
 0002:00025b43       _MoveFileA@8               004b0b03 f   xapilibd:filemisc.obj
 0002:00025bfe       _DeleteFileA@4             004b0bbe f   xapilibd:filemisc.obj
 0002:00025caf       _XSetFileCacheSize@4       004b0c6f f   xapilibd:filemisc.obj
 0002:00025ce8       _XGetFileCacheSize@0       004b0ca8 f   xapilibd:filemisc.obj
 0002:00025cf4       _XapiGetDirectoryDisplayBlocks@12 004b0cb4 f   xapilibd:filemisc.obj
 0002:00025e76       _XGetDisplayBlocks@4       004b0e36 f   xapilibd:filemisc.obj
 0002:00025f84       _MoveFileWithProgressA@20  004b0f44 f   xapilibd:filemisc.obj
 0002:000260b0       _MoveFileExA@12            004b1070 f   xapilibd:filemisc.obj
 0002:0002614a       _RootHubPortToPortNumber@4 004b110a f i xapilibd:roothub.obj
 0002:0002615a       _PortNumberToRootHubPort@4 004b111a f i xapilibd:roothub.obj
 0002:000261a6       _XQueryValue@20            004b1166 f   xapilibd:xqueryvalue.obj
 0002:000261d0       _XapiFormatFATVolumeEx@8   004b1190 f   xapilibd:format.obj
 0002:000265bd       _XapiFormatFATVolume@4     004b157d f   xapilibd:format.obj
 0002:000265d6       _lstrcmpW@8                004b1596 f   xapilibd:lcompat.obj
 0002:0002662c       _lstrcmpiW@8               004b15ec f   xapilibd:lcompat.obj
 0002:00026682       _lstrcpyW@8                004b1642 f   xapilibd:lcompat.obj
 0002:000266c8       _lstrcpynW@12              004b1688 f   xapilibd:lcompat.obj
 0002:0002674f       _lstrcatW@8                004b170f f   xapilibd:lcompat.obj
 0002:00026795       _lstrlenW@4                004b1755 f   xapilibd:lcompat.obj
 0002:000267e0       @RtlFindFirstSetRightMember@4 004b17a0 f   xapilibd:bitmapa.obj
 0002:000267e4       _XPhysicalAlloc@16         004b17a4 f   xapilibd:physical.obj
 0002:000268a7       _XPhysicalAllocEx@20       004b1867 f   xapilibd:physical.obj
 0002:00026935       _XPhysicalSize@4           004b18f5 f   xapilibd:physical.obj
 0002:00026962       _XPhysicalProtect@12       004b1922 f   xapilibd:physical.obj
 0002:000269ba       _XPhysicalFree@4           004b197a f   xapilibd:physical.obj
 0002:000269e7       _XQueryMemoryProtect@4     004b19a7 f   xapilibd:physical.obj
 0002:000269f3       _xCompareStringW@20        004b19b3 f   xapilibd:compstr.obj
 0002:00026bf2       _MmPersistContiguousMemory@12 004b1bb2 f   xboxkrnl:xboxkrnl.exe
 0002:00026bf8       _MmAllocateContiguousMemory@4 004b1bb8 f   xboxkrnl:xboxkrnl.exe
 0002:00026bfe       _MmFreeContiguousMemory@4  004b1bbe f   xboxkrnl:xboxkrnl.exe
 0002:00026c04       _RtlRip@12                 004b1bc4 f   xboxkrnl:xboxkrnl.exe
 0002:00026c0a       _RtlNtStatusToDosError@4   004b1bca f   xboxkrnl:xboxkrnl.exe
 0002:00026c10       _HalReturnToFirmware@4     004b1bd0 f   xboxkrnl:xboxkrnl.exe
 0002:00026c16       _ExQueryNonVolatileSetting@20 004b1bd6 f   xboxkrnl:xboxkrnl.exe
 0002:00026c1c       @KfLowerIrql@4             004b1bdc f   xboxkrnl:xboxkrnl.exe
 0002:00026c22       _KeRaiseIrqlToDpcLevel@0   004b1be2 f   xboxkrnl:xboxkrnl.exe
 0002:00026c28       _DbgPrint                  004b1be8 f   xboxkrnl:xboxkrnl.exe
 0002:00026c2e       @KfRaiseIrql@4             004b1bee f   xboxkrnl:xboxkrnl.exe
 0002:00026c34       _DbgBreakPoint@0           004b1bf4 f   xboxkrnl:xboxkrnl.exe
 0002:00026c3a       _NtClose@4                 004b1bfa f   xboxkrnl:xboxkrnl.exe
 0002:00026c40       _NtDuplicateObject@12      004b1c00 f   xboxkrnl:xboxkrnl.exe
 0002:00026c46       _NtCreateFile@36           004b1c06 f   xboxkrnl:xboxkrnl.exe
 0002:00026c4c       _RtlInitAnsiString@8       004b1c0c f   xboxkrnl:xboxkrnl.exe
 0002:00026c52       _NtWriteFile@32            004b1c12 f   xboxkrnl:xboxkrnl.exe
 0002:00026c58       _NtReadFile@32             004b1c18 f   xboxkrnl:xboxkrnl.exe
 0002:00026c5e       _NtSetInformationFile@20   004b1c1e f   xboxkrnl:xboxkrnl.exe
 0002:00026c64       _NtQueryInformationFile@20 004b1c24 f   xboxkrnl:xboxkrnl.exe
 0002:00026c6a       _MmFreeSystemMemory@8      004b1c2a f   xboxkrnl:xboxkrnl.exe
 0002:00026c70       _NtOpenFile@24             004b1c30 f   xboxkrnl:xboxkrnl.exe
 0002:00026c76       _MmAllocateSystemMemory@8  004b1c36 f   xboxkrnl:xboxkrnl.exe
 0002:00026c7c       _NtWaitForSingleObject@12  004b1c3c f   xboxkrnl:xboxkrnl.exe
 0002:00026c82       _NtQueryVolumeInformationFile@20 004b1c42 f   xboxkrnl:xboxkrnl.exe
 0002:00026c88       _NtFlushBuffersFile@8      004b1c48 f   xboxkrnl:xboxkrnl.exe
 0002:00026c8e       _NtUserIoApcDispatcher@12  004b1c4e f   xboxkrnl:xboxkrnl.exe
 0002:00026c94       _NtFsControlFile@40        004b1c54 f   xboxkrnl:xboxkrnl.exe
 0002:00026c9a       _NtDeviceIoControlFile@40  004b1c5a f   xboxkrnl:xboxkrnl.exe
 0002:00026ca0       _NtReadFileScatter@32      004b1c60 f   xboxkrnl:xboxkrnl.exe
 0002:00026ca6       _NtWriteFileGather@32      004b1c66 f   xboxkrnl:xboxkrnl.exe
 0002:00026cac       @ObfDereferenceObject@4    004b1c6c f   xboxkrnl:xboxkrnl.exe
 0002:00026cb2       _IoQueryVolumeInformation@20 004b1c72 f   xboxkrnl:xboxkrnl.exe
 0002:00026cb8       _ObReferenceObjectByHandle@12 004b1c78 f   xboxkrnl:xboxkrnl.exe
 0002:00026cbe       _RtlAnsiStringToUnicodeString@12 004b1c7e f   xboxkrnl:xboxkrnl.exe
 0002:00026cc4       _RtlAssert@16              004b1c84 f   xboxkrnl:xboxkrnl.exe
 0002:00026cca       _RtlUnicodeStringToAnsiString@12 004b1c8a f   xboxkrnl:xboxkrnl.exe
 0002:00026cd0       _NtCreateIoCompletion@16   004b1c90 f   xboxkrnl:xboxkrnl.exe
 0002:00026cd6       _NtSetIoCompletion@20      004b1c96 f   xboxkrnl:xboxkrnl.exe
 0002:00026cdc       _NtRemoveIoCompletion@20   004b1c9c f   xboxkrnl:xboxkrnl.exe
 0002:00026ce2       _IoCreateSymbolicLink@8    004b1ca2 f   xboxkrnl:xboxkrnl.exe
 0002:00026ce8       _IoDeleteSymbolicLink@4    004b1ca8 f   xboxkrnl:xboxkrnl.exe
 0002:00026cee       _NtQuerySymbolicLinkObject@12 004b1cae f   xboxkrnl:xboxkrnl.exe
 0002:00026cf4       _NtOpenSymbolicLinkObject@8 004b1cb4 f   xboxkrnl:xboxkrnl.exe
 0002:00026cfa       _XcSHAFinal@8              004b1cba f   xboxkrnl:xboxkrnl.exe
 0002:00026d00       _XcSHAUpdate@12            004b1cc0 f   xboxkrnl:xboxkrnl.exe
 0002:00026d06       _XcSHAInit@4               004b1cc6 f   xboxkrnl:xboxkrnl.exe
 0002:00026d0c       _KeInitializeTimerEx@8     004b1ccc f   xboxkrnl:xboxkrnl.exe
 0002:00026d12       _KeSetTimer@16             004b1cd2 f   xboxkrnl:xboxkrnl.exe
 0002:00026d18       _KeCancelTimer@4           004b1cd8 f   xboxkrnl:xboxkrnl.exe
 0002:00026d1e       _KeSetEvent@12             004b1cde f   xboxkrnl:xboxkrnl.exe
 0002:00026d24       _KeWaitForSingleObject@20  004b1ce4 f   xboxkrnl:xboxkrnl.exe
 0002:00026d2a       _KeInitializeDpc@12        004b1cea f   xboxkrnl:xboxkrnl.exe
 0002:00026d30       _NtCreateEvent@16          004b1cf0 f   xboxkrnl:xboxkrnl.exe
 0002:00026d36       _ObOpenObjectByName@16     004b1cf6 f   xboxkrnl:xboxkrnl.exe
 0002:00026d3c       _NtSetEvent@8              004b1cfc f   xboxkrnl:xboxkrnl.exe
 0002:00026d42       _NtClearEvent@4            004b1d02 f   xboxkrnl:xboxkrnl.exe
 0002:00026d48       _NtPulseEvent@8            004b1d08 f   xboxkrnl:xboxkrnl.exe
 0002:00026d4e       _NtCreateSemaphore@16      004b1d0e f   xboxkrnl:xboxkrnl.exe
 0002:00026d54       _NtReleaseSemaphore@12     004b1d14 f   xboxkrnl:xboxkrnl.exe
 0002:00026d5a       _NtCreateMutant@12         004b1d1a f   xboxkrnl:xboxkrnl.exe
 0002:00026d60       _NtReleaseMutant@8         004b1d20 f   xboxkrnl:xboxkrnl.exe
 0002:00026d66       _NtWaitForSingleObjectEx@16 004b1d26 f   xboxkrnl:xboxkrnl.exe
 0002:00026d6c       _NtSignalAndWaitForSingleObjectEx@20 004b1d2c f   xboxkrnl:xboxkrnl.exe
 0002:00026d72       _NtWaitForMultipleObjectsEx@24 004b1d32 f   xboxkrnl:xboxkrnl.exe
 0002:00026d78       _KeDelayExecutionThread@12 004b1d38 f   xboxkrnl:xboxkrnl.exe
 0002:00026d7e       _NtCreateTimer@12          004b1d3e f   xboxkrnl:xboxkrnl.exe
 0002:00026d84       _NtSetTimerEx@32           004b1d44 f   xboxkrnl:xboxkrnl.exe
 0002:00026d8a       _NtCancelTimer@8           004b1d4a f   xboxkrnl:xboxkrnl.exe
 0002:00026d90       _KeQuerySystemTime@4       004b1d50 f   xboxkrnl:xboxkrnl.exe
 0002:00026d96       _HalRegisterShutdownNotification@8 004b1d56 f   xboxkrnl:xboxkrnl.exe
 0002:00026d9c       _MmSetAddressProtect@12    004b1d5c f   xboxkrnl:xboxkrnl.exe
 0002:00026da2       _MmQueryAddressProtect@4   004b1d62 f   xboxkrnl:xboxkrnl.exe
 0002:00026da8       _RtlLeaveCriticalSection@4 004b1d68 f   xboxkrnl:xboxkrnl.exe
 0002:00026dae       _RtlEnterCriticalSection@4 004b1d6e f   xboxkrnl:xboxkrnl.exe
 0002:00026db4       _KeSetBasePriorityThread@8 004b1d74 f   xboxkrnl:xboxkrnl.exe
 0002:00026dba       _KeQueryBasePriorityThread@4 004b1d7a f   xboxkrnl:xboxkrnl.exe
 0002:00026dc0       _KeSetDisableBoostThread@8 004b1d80 f   xboxkrnl:xboxkrnl.exe
 0002:00026dc6       _NtSuspendThread@8         004b1d86 f   xboxkrnl:xboxkrnl.exe
 0002:00026dcc       _NtResumeThread@8          004b1d8c f   xboxkrnl:xboxkrnl.exe
 0002:00026dd2       _RtlRaiseException@4       004b1d92 f   xboxkrnl:xboxkrnl.exe
 0002:00026dd8       _NtQueueApcThread@20       004b1d98 f   xboxkrnl:xboxkrnl.exe
 0002:00026dde       _NtYieldExecution@0        004b1d9e f   xboxkrnl:xboxkrnl.exe
 0002:00026de4       _PsTerminateSystemThread@4 004b1da4 f   xboxkrnl:xboxkrnl.exe
 0002:00026dea       _PsCreateSystemThreadEx@40 004b1daa f   xboxkrnl:xboxkrnl.exe
 0002:00026df0       _XcHMAC@28                 004b1db0 f   xboxkrnl:xboxkrnl.exe
 0002:00026df6       _RtlCompareString@12       004b1db6 f   xboxkrnl:xboxkrnl.exe
 0002:00026dfc       _HalGetInterruptVector@8   004b1dbc f   xboxkrnl:xboxkrnl.exe
 0002:00026e02       _KeConnectInterrupt@4      004b1dc2 f   xboxkrnl:xboxkrnl.exe
 0002:00026e08       _KeInitializeInterrupt@28  004b1dc8 f   xboxkrnl:xboxkrnl.exe
 0002:00026e0e       _KeStallExecutionProcessor@4 004b1dce f   xboxkrnl:xboxkrnl.exe
 0002:00026e14       _ExAllocatePoolWithTag@8   004b1dd4 f   xboxkrnl:xboxkrnl.exe
 0002:00026e1a       _ExFreePool@4              004b1dda f   xboxkrnl:xboxkrnl.exe
 0002:00026e20       _KeQueryInterruptTime@0    004b1de0 f   xboxkrnl:xboxkrnl.exe
 0002:00026e26       _HalInitiateShutdown@0     004b1de6 f   xboxkrnl:xboxkrnl.exe
 0002:00026e2c       _RtlEqualString@12         004b1dec f   xboxkrnl:xboxkrnl.exe
 0002:00026e32       _XeLoadSection@4           004b1df2 f   xboxkrnl:xboxkrnl.exe
 0002:00026e38       _XeUnloadSection@4         004b1df8 f   xboxkrnl:xboxkrnl.exe
 0002:00026e3e       _RtlFillMemoryUlong@12     004b1dfe f   xboxkrnl:xboxkrnl.exe
 0002:00026e44       _NtFreeVirtualMemory@12    004b1e04 f   xboxkrnl:xboxkrnl.exe
 0002:00026e4a       _NtAllocateVirtualMemory@20 004b1e0a f   xboxkrnl:xboxkrnl.exe
 0002:00026e50       _RtlCompareMemoryUlong@12  004b1e10 f   xboxkrnl:xboxkrnl.exe
 0002:00026e56       _RtlCompareMemory@12       004b1e16 f   xboxkrnl:xboxkrnl.exe
 0002:00026e5c       _RtlInitializeCriticalSection@4 004b1e1c f   xboxkrnl:xboxkrnl.exe
 0002:00026e62       _NtQueryVirtualMemory@8    004b1e22 f   xboxkrnl:xboxkrnl.exe
 0002:00026e68       _NtQueryDirectoryFile@40   004b1e28 f   xboxkrnl:xboxkrnl.exe
 0002:00026e6e       _NtQueryFullAttributesFile@8 004b1e2e f   xboxkrnl:xboxkrnl.exe
 0002:00026e74       _FscSetCacheSize@4         004b1e34 f   xboxkrnl:xboxkrnl.exe
 0002:00026e7a       _FscGetCacheSize@0         004b1e3a f   xboxkrnl:xboxkrnl.exe
 0002:00026e80       _MmGetPhysicalAddress@4    004b1e40 f   xboxkrnl:xboxkrnl.exe
 0002:00026e86       _MmLockUnlockBufferPages@12 004b1e46 f   xboxkrnl:xboxkrnl.exe
 0002:00026e8c       _KeInsertQueueDpc@12       004b1e4c f   xboxkrnl:xboxkrnl.exe
 0002:00026e92       _MmLockUnlockPhysicalPage@8 004b1e52 f   xboxkrnl:xboxkrnl.exe
 0002:00026e98       _MmAllocateContiguousMemoryEx@20 004b1e58 f   xboxkrnl:xboxkrnl.exe
 0002:00026e9e       _MmQueryAllocationSize@4   004b1e5e f   xboxkrnl:xboxkrnl.exe
 0002:00026ea4       _AvGetSavedDataAddress@0   004b1e64 f   xboxkrnl:xboxkrnl.exe
 0002:00026eaa       _AvSendTVEncoderOption@16  004b1e6a f   xboxkrnl:xboxkrnl.exe
 0002:00026eb0       _AvSetDisplayMode@24       004b1e70 f   xboxkrnl:xboxkrnl.exe
 0002:00026eb6       _AvSetSavedDataAddress@4   004b1e76 f   xboxkrnl:xboxkrnl.exe
 0002:00026ebc       _MmQueryStatistics@4       004b1e7c f   xboxkrnl:xboxkrnl.exe
 0002:00026ec2       _RtlWalkFrameChain@12      004b1e82 f   xboxkrnl:xboxkrnl.exe
 0002:00026ec8       _NtDeleteFile@4            004b1e88 f   xboxkrnl:xboxkrnl.exe
 0002:00026ece       _HalReadWritePCISpace@24   004b1e8e f   xboxkrnl:xboxkrnl.exe
 0002:00026ed4       _KeDisconnectInterrupt@4   004b1e94 f   xboxkrnl:xboxkrnl.exe
 0002:00026eda       _MmClaimGpuInstanceMemory@8 004b1e9a f   xboxkrnl:xboxkrnl.exe
 0002:00026ee0       ??2@YAPAXI@Z               004b1ea0 f   LIBCMTD:new.obj
 0002:00026f10       __RTC_CheckEsp             004b1ed0 f   LIBCMTD:stack.obj
 0002:00026f40       @_RTC_CheckStackVars@8     004b1f00 f   LIBCMTD:stack.obj
 0002:00026fc0       __RTC_InitBase             004b1f80 f   LIBCMTD:init.obj
 0002:00027000       __RTC_Shutdown             004b1fc0 f   LIBCMTD:init.obj
 0002:00027020       ??3@YAXPAX@Z               004b1fe0 f   LIBCMTD:dbgdel.obj
 0002:00027130       _srand                     004b20f0 f   LIBCMTD:rand.obj
 0002:00027150       _rand                      004b2110 f   LIBCMTD:rand.obj
 0002:00027193       __fpclear                  004b2153 f   LIBCMTD:fpinit.obj
 0002:00027194       __cfltcvt_init             004b2154 f   LIBCMTD:fpinit.obj
 0002:000271da       ___setfflag                004b219a f   LIBCMTD:fpinit.obj
 0002:000271f1       __fpmath                   004b21b1 f   LIBCMTD:fpinit.obj
 0002:00027210       _strlen                    004b21d0 f   LIBCMTD:strlen.obj
 0002:000272c0       _strcpy                    004b2280 f   LIBCMTD:strcat.obj
 0002:000272d0       _strcat                    004b2290 f   LIBCMTD:strcat.obj
 0002:000273f8       __CIcos                    004b23b8 f   LIBCMTD:cos.obj
 0002:0002740c       _cos                       004b23cc     LIBCMTD:cos.obj
 0002:000274d4       __CIsin                    004b2494 f   LIBCMTD:sin.obj
 0002:000274e8       _sin                       004b24a8     LIBCMTD:sin.obj
 0002:000275b0       __onexit                   004b2570 f   LIBCMTD:onexit.obj
 0002:00027750       _atexit                    004b2710 f   LIBCMTD:onexit.obj
 0002:00027770       ___onexitinit              004b2730 f   LIBCMTD:onexit.obj
 0002:000277d0       _memset                    004b2790 f   LIBCMTD:memset.obj
 0002:00027850       _swprintf                  004b2810 f   LIBCMTD:swprintf.obj
 0002:000279d0       __scwprintf                004b2990 f   LIBCMTD:swprintf.obj
 0002:00027a70       ?_JumpToContinuation@@YGXPAXPAUEHRegistrationNode@@@Z 004b2a30 f   LIBCMTD:trnsctrl.obj
 0002:00027ab0       ?_CallMemberFunction0@@YGXPAX0@Z 004b2a70 f   LIBCMTD:trnsctrl.obj
 0002:00027ac0       ?_CallMemberFunction1@@YGXPAX00@Z 004b2a80 f   LIBCMTD:trnsctrl.obj
 0002:00027ad0       ?_CallMemberFunction2@@YGXPAX00H@Z 004b2a90 f   LIBCMTD:trnsctrl.obj
 0002:00027ae0       ?_UnwindNestedFrames@@YGXPAUEHRegistrationNode@@PAUEHExceptionRecord@@@Z 004b2aa0 f   LIBCMTD:trnsctrl.obj
 0002:00027b50       ___CxxFrameHandler         004b2b10 f   LIBCMTD:trnsctrl.obj
 0002:00027ba0       ___CxxLongjmpUnwind@4      004b2b60 f   LIBCMTD:trnsctrl.obj
 0002:00027bd0       ?_CallCatchBlock2@@YAPAXPAUEHRegistrationNode@@PBU_s_FuncInfo@@PAXHK@Z 004b2b90 f   LIBCMTD:trnsctrl.obj
 0002:00027cd0       ?_CallSETranslator@@YAHPAUEHExceptionRecord@@PAUEHRegistrationNode@@PAX2PBU_s_FuncInfo@@H1@Z 004b2c90 f   LIBCMTD:trnsctrl.obj
 0002:00027ef0       ?_GetRangeOfTrysToCheck@@YAPBU_s_TryBlockMapEntry@@PBU_s_FuncInfo@@HHPAI1@Z 004b2eb0 f   LIBCMTD:trnsctrl.obj
 0002:00027fa0       ?_CreateFrameInfo@@YAPAUFrameInfo@@PAU1@PAX@Z 004b2f60 f   LIBCMTD:trnsctrl.obj
 0002:00027fe0       ?IsExceptionObjectToBeDestroyed@@YAHPAX@Z 004b2fa0 f   LIBCMTD:trnsctrl.obj
 0002:00028020       ?_FindAndUnlinkFrame@@YAXPAUFrameInfo@@@Z 004b2fe0 f   LIBCMTD:trnsctrl.obj
 0002:0002808c       __global_unwind2           004b304c f   LIBCMTD:exsup.obj
 0002:000280ce       __local_unwind2            004b308e f   LIBCMTD:exsup.obj
 0002:00028126       __NLG_Return2              004b30e6     LIBCMTD:exsup.obj
 0002:00028136       __abnormal_termination     004b30f6 f   LIBCMTD:exsup.obj
 0002:00028159       __NLG_Notify1              004b3119 f   LIBCMTD:exsup.obj
 0002:00028162       __NLG_Notify               004b3122 f   LIBCMTD:exsup.obj
 0002:00028175       __NLG_Dispatch             004b3135     LIBCMTD:exsup.obj
 0002:000281c0       _memcpy                    004b3180 f   LIBCMTD:memcpy.obj
 0002:000285cc       _fabs                      004b358c f   LIBCMTD:fabs.obj
 0002:000286b0       __vsnprintf                004b3670 f   LIBCMTD:vsnprint.obj
 0002:000287b0       _sprintf                   004b3770 f   LIBCMTD:sprintf.obj
 0002:000288e0       __scprintf                 004b38a0 f   LIBCMTD:sprintf.obj
 0002:00028980       __ftol2                    004b3940 f   LIBCMTD:ftol2.obj
 0002:00028a20       _fclose                    004b39e0 f   LIBCMTD:fclose.obj
 0002:00028b10       __fclose_lk                004b3ad0 f   LIBCMTD:fclose.obj
 0002:00028bf0       _fwrite                    004b3bb0 f   LIBCMTD:fwrite.obj
 0002:00028c90       __fwrite_lk                004b3c50 f   LIBCMTD:fwrite.obj
 0002:00028f30       __fsopen                   004b3ef0 f   LIBCMTD:fopen.obj
 0002:000290b0       _fopen                     004b4070 f   LIBCMTD:fopen.obj
 0002:000290cc       _floor                     004b408c f   LIBCMTD:floor.obj
 0002:000291e0       __assert                   004b41a0 f   LIBCMTD:assert.obj
 0002:00029870       _malloc                    004b4830 f   LIBCMTD:dbgheap.obj
 0002:000298a0       __malloc_dbg               004b4860 f   LIBCMTD:dbgheap.obj
 0002:000298e0       __nh_malloc                004b48a0 f   LIBCMTD:dbgheap.obj
 0002:00029910       __nh_malloc_dbg            004b48d0 f   LIBCMTD:dbgheap.obj
 0002:000299e0       __heap_alloc               004b49a0 f   LIBCMTD:dbgheap.obj
 0002:00029a00       __heap_alloc_dbg           004b49c0 f   LIBCMTD:dbgheap.obj
 0002:00029de0       _calloc                    004b4da0 f   LIBCMTD:dbgheap.obj
 0002:00029e10       __calloc_dbg               004b4dd0 f   LIBCMTD:dbgheap.obj
 0002:00029e90       _realloc                   004b4e50 f   LIBCMTD:dbgheap.obj
 0002:00029ec0       __realloc_dbg              004b4e80 f   LIBCMTD:dbgheap.obj
 0002:0002a5d0       __expand                   004b5590 f   LIBCMTD:dbgheap.obj
 0002:0002a600       __expand_dbg               004b55c0 f   LIBCMTD:dbgheap.obj
 0002:0002a6b0       _free                      004b5670 f   LIBCMTD:dbgheap.obj
 0002:0002a6d0       __free_lk                  004b5690 f   LIBCMTD:dbgheap.obj
 0002:0002a6f0       __free_dbg                 004b56b0 f   LIBCMTD:dbgheap.obj
 0002:0002a780       __free_dbg_lk              004b5740 f   LIBCMTD:dbgheap.obj
 0002:0002aca0       __msize                    004b5c60 f   LIBCMTD:dbgheap.obj
 0002:0002acc0       __msize_dbg                004b5c80 f   LIBCMTD:dbgheap.obj
 0002:0002ae90       __CrtSetBreakAlloc         004b5e50 f   LIBCMTD:dbgheap.obj
 0002:0002aec0       __CrtSetDbgBlockType       004b5e80 f   LIBCMTD:dbgheap.obj
 0002:0002afd0       __CrtSetAllocHook          004b5f90 f   LIBCMTD:dbgheap.obj
 0002:0002b060       __CrtCheckMemory           004b6020 f   LIBCMTD:dbgheap.obj
 0002:0002b4a0       __CrtSetDbgFlag            004b6460 f   LIBCMTD:dbgheap.obj
 0002:0002b570       __CrtDoForAllClientObjects 004b6530 f   LIBCMTD:dbgheap.obj
 0002:0002b640       __CrtIsValidPointer        004b6600 f   LIBCMTD:dbgheap.obj
 0002:0002b6a0       __CrtIsValidHeapPointer    004b6660 f   LIBCMTD:dbgheap.obj
 0002:0002b720       __CrtIsMemoryBlock         004b66e0 f   LIBCMTD:dbgheap.obj
 0002:0002b890       __CrtReportBlockType       004b6850 f   LIBCMTD:dbgheap.obj
 0002:0002b8d0       __CrtSetDumpClient         004b6890 f   LIBCMTD:dbgheap.obj
 0002:0002b900       __CrtMemCheckpoint         004b68c0 f   LIBCMTD:dbgheap.obj
 0002:0002bb00       __CrtMemDifference         004b6ac0 f   LIBCMTD:dbgheap.obj
 0002:0002bc60       __CrtMemDumpAllObjectsSince 004b6c20 f   LIBCMTD:dbgheap.obj
 0002:0002c110       __CrtDumpMemoryLeaks       004b70d0 f   LIBCMTD:dbgheap.obj
 0002:0002c190       __CrtMemDumpStatistics     004b7150 f   LIBCMTD:dbgheap.obj
 0002:0002c270       __aligned_malloc           004b7230 f   LIBCMTD:dbgheap.obj
 0002:0002c2a0       __aligned_malloc_dbg       004b7260 f   LIBCMTD:dbgheap.obj
 0002:0002c2d0       __aligned_realloc          004b7290 f   LIBCMTD:dbgheap.obj
 0002:0002c300       __aligned_realloc_dbg      004b72c0 f   LIBCMTD:dbgheap.obj
 0002:0002c330       __aligned_offset_malloc    004b72f0 f   LIBCMTD:dbgheap.obj
 0002:0002c360       __aligned_offset_malloc_dbg 004b7320 f   LIBCMTD:dbgheap.obj
 0002:0002c4f0       __aligned_offset_realloc   004b74b0 f   LIBCMTD:dbgheap.obj
 0002:0002c520       __aligned_offset_realloc_dbg 004b74e0 f   LIBCMTD:dbgheap.obj
 0002:0002c810       __aligned_free             004b77d0 f   LIBCMTD:dbgheap.obj
 0002:0002c830       __aligned_free_dbg         004b77f0 f   LIBCMTD:dbgheap.obj
 0002:0002c900       _wcslen                    004b78c0 f   LIBCMTD:wcslen.obj
 0002:0002c940       __snprintf                 004b7900 f   LIBCMTD:snprintf.obj
 0002:0002ca70       _strncpy                   004b7a30 f   LIBCMTD:strncpy.obj
 0002:0002cbe0       __strnicmp                 004b7ba0 f   LIBCMTD:strnicmp.obj
 0002:0002cca0       __alloca_probe             004b7c60     LIBCMTD:chkstk.obj
 0002:0002cca0       __chkstk                   004b7c60 f   LIBCMTD:chkstk.obj
 0002:0002cd00       __stricmp                  004b7cc0 f   LIBCMTD:stricmp.obj
 0002:0002cd9c       __SEH_prolog               004b7d5c f   LIBCMTD:sehprolg.obj
 0002:0002cdd7       __SEH_epilog               004b7d97 f   LIBCMTD:sehprolg.obj
 0002:0002ce04       __except_handler3          004b7dc4 f   LIBCMTD:exsup3.obj
 0002:0002ced6       __seh_longjmp_unwind@4     004b7e96 f   LIBCMTD:exsup3.obj
 0002:0002cf30       __snwprintf                004b7ef0 f   LIBCMTD:snwprint.obj
 0002:0002d0c0       __RTC_Initialize           004b8080 f   LIBCMTD:initsect.obj
 0002:0002d160       __RTC_Terminate            004b8120 f   LIBCMTD:initsect.obj
 0002:0002d200       _wcsncpy                   004b81c0 f   LIBCMTD:wcsncpy.obj
 0002:0002d290       _wcscat                    004b8250 f   LIBCMTD:wcscat.obj
 0002:0002d300       _wcscpy                    004b82c0 f   LIBCMTD:wcscat.obj
 0002:0002d350       __aulldiv                  004b8310 f   LIBCMTD:ulldiv.obj
 0002:0002d3e0       __allmul                   004b83a0 f   LIBCMTD:llmul.obj
 0002:0002d430       _memmove                   004b83f0 f   LIBCMTD:memmove.obj
 0002:0002d840       __alldiv                   004b8800 f   LIBCMTD:lldiv.obj
 0002:0002d920       _wcscmp                    004b88e0 f   LIBCMTD:wcscmp.obj
 0002:0002d9a0       __wcsicmp                  004b8960 f   LIBCMTD:wcsicmp.obj
 0002:0002db10       _strchr                    004b8ad0 f   LIBCMTD:strchr.obj
 0002:0002db16       ___from_strstr_to_strchr   004b8ad6     LIBCMTD:strchr.obj
 0002:0002dc01       __copysign                 004b8bc1 f   LIBCMTD:ieeemisc.obj
 0002:0002dc2a       __chgsign                  004b8bea f   LIBCMTD:ieeemisc.obj
 0002:0002dc59       __scalb                    004b8c19 f   LIBCMTD:ieeemisc.obj
 0002:0002dc77       __logb                     004b8c37 f   LIBCMTD:ieeemisc.obj
 0002:0002dd9c       __nextafter                004b8d5c f   LIBCMTD:ieeemisc.obj
 0002:0002e0c9       __finite                   004b9089 f   LIBCMTD:ieeemisc.obj
 0002:0002e0e7       __isnan                    004b90a7 f   LIBCMTD:ieeemisc.obj
 0002:0002e123       __fpclass                  004b90e3 f   LIBCMTD:ieeemisc.obj
 0002:0002e1e8       __CIacos                   004b91a8 f   LIBCMTD:acos.obj
 0002:0002e1fc       _acos                      004b91bc     LIBCMTD:acos.obj
 0002:0002e2e8       _longjmp                   004b92a8 f   LIBCMTD:longjmp.obj
 0002:0002e380       __setjmp3                  004b9340 f   LIBCMTD:setjmp3.obj
 0002:0002e420       _isalpha                   004b93e0 f   LIBCMTD:_ctype.obj
 0002:0002e470       _isupper                   004b9430 f   LIBCMTD:_ctype.obj
 0002:0002e4c0       _islower                   004b9480 f   LIBCMTD:_ctype.obj
 0002:0002e510       _isdigit                   004b94d0 f   LIBCMTD:_ctype.obj
 0002:0002e560       _isxdigit                  004b9520 f   LIBCMTD:_ctype.obj
 0002:0002e5b0       _isspace                   004b9570 f   LIBCMTD:_ctype.obj
 0002:0002e600       _ispunct                   004b95c0 f   LIBCMTD:_ctype.obj
 0002:0002e650       _isalnum                   004b9610 f   LIBCMTD:_ctype.obj
 0002:0002e6a0       _isprint                   004b9660 f   LIBCMTD:_ctype.obj
 0002:0002e6f0       _isgraph                   004b96b0 f   LIBCMTD:_ctype.obj
 0002:0002e740       _iscntrl                   004b9700 f   LIBCMTD:_ctype.obj
 0002:0002e790       ___isascii                 004b9750 f   LIBCMTD:_ctype.obj
 0002:0002e7b0       ___toascii                 004b9770 f   LIBCMTD:_ctype.obj
 0002:0002e7c0       ___iscsymf                 004b9780 f   LIBCMTD:_ctype.obj
 0002:0002e840       ___iscsym                  004b9800 f   LIBCMTD:_ctype.obj
 0002:0002e8b4       _pow                       004b9874 f   LIBCMTD:pow.obj
 0002:0002e8b8       __CIpow                    004b9878 f   LIBCMTD:pow.obj
 0002:0002e8ba       __CIpow_default            004b987a f   LIBCMTD:pow.obj
 0002:0002e8d3       __pow_default              004b9893     LIBCMTD:pow.obj
 0002:0002eb50       _exit                      004b9b10 f   LIBCMTD:crt0dat.obj
 0002:0002eb70       __exit                     004b9b30 f   LIBCMTD:crt0dat.obj
 0002:0002eb90       __cexit                    004b9b50 f   LIBCMTD:crt0dat.obj
 0002:0002ebb0       __c_exit                   004b9b70 f   LIBCMTD:crt0dat.obj
 0002:0002ed30       __lockexit                 004b9cf0 f   LIBCMTD:crt0dat.obj
 0002:0002ed50       __unlockexit               004b9d10 f   LIBCMTD:crt0dat.obj
 0002:0002eda0       __purecall                 004b9d60 f   LIBCMTD:purevirt.obj
 0002:0002edd0       __set_purecall_handler     004b9d90 f   LIBCMTD:purevirt.obj
 0002:0002ee00       ??_M@YGXPAXIHP6EX0@Z@Z     004b9dc0 f   LIBCMTD:ehvecdtr.obj
 0002:0002eed0       ?__ArrayUnwind@@YGXPAXIHP6EX0@Z@Z 004b9e90 f   LIBCMTD:ehvecdtr.obj
 0002:0002efb0       ??_L@YGXPAXIHP6EX0@Z1@Z    004b9f70 f   LIBCMTD:ehvecctr.obj
 0002:0002f078       __EH_prolog                004ba038 f   LIBCMTD:ehprolog.obj
 0002:0002f0a0       ??1type_info@@UAE@XZ       004ba060 f   LIBCMTD:typinfo.obj
 0002:0002f150       ??_Gtype_info@@UAEPAXI@Z   004ba110 f i LIBCMTD:typinfo.obj
 0002:0002f150       ??_Etype_info@@UAEPAXI@Z   004ba110 f i LIBCMTD:typinfo.obj
 0002:0002f190       ??8type_info@@QBEHABV0@@Z  004ba150 f   LIBCMTD:typinfo.obj
 0002:0002f1d0       ??9type_info@@QBEHABV0@@Z  004ba190 f   LIBCMTD:typinfo.obj
 0002:0002f210       ?before@type_info@@QBEHABV1@@Z 004ba1d0 f   LIBCMTD:typinfo.obj
 0002:0002f250       ?raw_name@type_info@@QBEPBDXZ 004ba210 f   LIBCMTD:typinfo.obj
 0002:0002f270       ??0type_info@@AAE@ABV0@@Z  004ba230 f   LIBCMTD:typinfo.obj
 0002:0002f290       ??4type_info@@AAEAAV0@ABV0@@Z 004ba250 f   LIBCMTD:typinfo.obj
 0002:0002f2b0       __CxxThrowException@8      004ba270 f   LIBCMTD:throw.obj
 0002:0002f300       _atol                      004ba2c0 f   LIBCMTD:atox.obj
 0002:0002f3f0       _atoi                      004ba3b0 f   LIBCMTD:atox.obj
 0002:0002f410       __atoi64                   004ba3d0 f   LIBCMTD:atox.obj
 0002:0002f540       _sscanf                    004ba500 f   LIBCMTD:sscanf.obj
 0002:0002f620       _strncmp                   004ba5e0 f   LIBCMTD:strncmp.obj
 0002:0002f670       __itoa                     004ba630 f   LIBCMTD:xtoa.obj
 0002:0002f7d0       __ltoa                     004ba790 f   LIBCMTD:xtoa.obj
 0002:0002f820       __ultoa                    004ba7e0 f   LIBCMTD:xtoa.obj
 0002:0002f850       __i64toa                   004ba810 f   LIBCMTD:xtoa.obj
 0002:0002f9e0       __ui64toa                  004ba9a0 f   LIBCMTD:xtoa.obj
 0002:0002fa10       ?_RTC_GetSrcLine@@YAHKPADHPAHPAPAD@Z 004ba9d0 f   LIBCMTD:error.obj
 0002:0002fa60       ?_RTC_Failure@@YAXPAXH@Z   004baa20 f   LIBCMTD:error.obj
 0002:0002fd40       ?_RTC_MemFailure@@YAXPAXHPBX@Z 004bad00 f   LIBCMTD:error.obj
 0002:00030020       ?_RTC_StackFailure@@YAXPAXPBD@Z 004bafe0 f   LIBCMTD:error.obj
 0002:00030110       __RTC_UninitUse            004bb0d0 f   LIBCMTD:error.obj
 0002:00030230       __RTC_NumErrors            004bb1f0 f   LIBCMTD:userapi.obj
 0002:00030240       __RTC_GetErrDesc           004bb200 f   LIBCMTD:userapi.obj
 0002:00030270       __RTC_SetErrorType         004bb230 f   LIBCMTD:userapi.obj
 0002:000302a0       __RTC_SetErrorFunc         004bb260 f   LIBCMTD:userapi.obj
 0002:000302c0       ?_RTC_GetErrorFunc@@YAP6AHHPBDH00ZZPBX@Z 004bb280 f   LIBCMTD:userapi.obj
 0002:000302d0       __chkesp                   004bb290 f   LIBCMTD:chkesp.obj
 0002:00030320       __CRT_RTC_INIT             004bb2e0 f   LIBCMTD:chkesp.obj
 0002:00030330       __mtinitlocks              004bb2f0 f   LIBCMTD:mlock.obj
 0002:000303e0       __mtdeletelocks            004bb3a0 f   LIBCMTD:mlock.obj
 0002:000304c0       __mtinitlocknum            004bb480 f   LIBCMTD:mlock.obj
 0002:00030630       __lock                     004bb5f0 f   LIBCMTD:mlock.obj
 0002:00030680       __unlock                   004bb640 f   LIBCMTD:mlock.obj
 0002:000306a0       __lockerr_exit             004bb660 f   LIBCMTD:mlock.obj
 0002:000306c0       __CrtDbgBreak              004bb680 f   LIBCMTD:dbgrpt.obj
 0002:000306d0       __CrtSetReportMode         004bb690 f   LIBCMTD:dbgrpt.obj
 0002:00030740       __CrtSetReportFile         004bb700 f   LIBCMTD:dbgrpt.obj
 0002:000307a0       __CrtSetReportHook         004bb760 f   LIBCMTD:dbgrpt.obj
 0002:000307d0       __CrtSetReportHook2        004bb790 f   LIBCMTD:dbgrpt.obj
 0002:00030ab0       __CrtDbgReport             004bba70 f   LIBCMTD:dbgrpt.obj
 0002:00031470       ___crtTlsAlloc@4           004bc430 f   LIBCMTD:tidtable.obj
 0002:00031480       __mtinit                   004bc440 f   LIBCMTD:tidtable.obj
 0002:00031540       __mtterm                   004bc500 f   LIBCMTD:tidtable.obj
 0002:00031550       __initptd                  004bc510 f   LIBCMTD:tidtable.obj
 0002:00031570       __getptd                   004bc530 f   LIBCMTD:tidtable.obj
 0002:00031680       __freefls@4                004bc640 f   LIBCMTD:tidtable.obj
 0002:00031860       __freeptd                  004bc820 f   LIBCMTD:tidtable.obj
 0002:000318f0       ___threadid                004bc8b0 f   LIBCMTD:tidtable.obj
 0002:00031900       ___threadhandle            004bc8c0 f   LIBCMTD:tidtable.obj
 0002:0003190c       __forcdecpt                004bc8cc f   LIBCMTD:cvt.obj
 0002:00031972       __cropzeros                004bc932 f   LIBCMTD:cvt.obj
 0002:000319d3       __positive                 004bc993 f   LIBCMTD:cvt.obj
 0002:000319f8       __fassign                  004bc9b8 f   LIBCMTD:cvt.obj
 0002:00031b43       __cftoe                    004bcb03 f   LIBCMTD:cvt.obj
 0002:00031c88       __cftof                    004bcc48 f   LIBCMTD:cvt.obj
 0002:00031cee       __cftog                    004bccae f   LIBCMTD:cvt.obj
 0002:00031d9e       __cfltcvt                  004bcd5e f   LIBCMTD:cvt.obj
 0002:00031e10       __setdefaultprecision      004bcdd0 f   LIBCMTD:fp8.obj
 0002:00031e2c       __trandisp1                004bcdec f   LIBCMTD:87disp.obj
 0002:00031e93       __trandisp2                004bce53 f   LIBCMTD:87disp.obj
 0002:00031f1f       __rttospopde               004bcedf     LIBCMTD:87disp.obj
 0002:00031f24       __rttospop                 004bcee4     LIBCMTD:87disp.obj
 0002:00031f26       __rtnospop                 004bcee6     LIBCMTD:87disp.obj
 0002:00031f28       __rttosnpop                004bcee8     LIBCMTD:87disp.obj
 0002:00031f29       __rtnospopde               004bcee9     LIBCMTD:87disp.obj
 0002:00031f30       __rtzeropop                004bcef0     LIBCMTD:87disp.obj
 0002:00031f32       __rtzeronpop               004bcef2     LIBCMTD:87disp.obj
 0002:00031f37       __rtonepop                 004bcef7     LIBCMTD:87disp.obj
 0002:00031f39       __rtonenpop                004bcef9     LIBCMTD:87disp.obj
 0002:00031f3e       __tosnan1                  004bcefe     LIBCMTD:87disp.obj
 0002:00031f69       __nosnan2                  004bcf29     LIBCMTD:87disp.obj
 0002:00031f6b       __tosnan2                  004bcf2b     LIBCMTD:87disp.obj
 0002:00031f93       __nan2                     004bcf53     LIBCMTD:87disp.obj
 0002:00031fd2       __rtindfpop                004bcf92     LIBCMTD:87disp.obj
 0002:00031fd4       __rtindfnpop               004bcf94     LIBCMTD:87disp.obj
 0002:00031fe5       __rttosnpopde              004bcfa5     LIBCMTD:87disp.obj
 0002:00031fef       __rtchsifneg               004bcfaf     LIBCMTD:87disp.obj
 0002:00032068       __twoToTOS                 004bd028 f   LIBCMTD:common.obj
 0002:0003207d       __load_CW                  004bd03d f   LIBCMTD:common.obj
 0002:00032094       __convertTOStoQNaN         004bd054 f   LIBCMTD:common.obj
 0002:000320ad       __fload_withFB             004bd06d f   LIBCMTD:common.obj
 0002:000320f0       __checkTOS_withFB          004bd0b0 f   LIBCMTD:common.obj
 0002:00032106       __fast_exit                004bd0c6 f   LIBCMTD:common.obj
 0002:00032113       __math_exit                004bd0d3 f   LIBCMTD:common.obj
 0002:0003213d       __check_overflow_exit      004bd0fd f   LIBCMTD:common.obj
 0002:00032151       __check_range_exit         004bd111 f   LIBCMTD:common.obj
 0002:00032258       __startTwoArgErrorHandling 004bd218 f   LIBCMTD:genexcep.obj
 0002:0003226f       __startOneArgErrorHandling 004bd22f f   LIBCMTD:genexcep.obj
 0002:000322c0       __flsbuf                   004bd280 f   LIBCMTD:_flsbuf.obj
 0002:000325b0       __woutput                  004bd570 f   LIBCMTD:woutput.obj
 0002:00033820       ___InternalCxxFrameHandler 004be7e0 f   LIBCMTD:frame.obj
 0002:00033eb0       ___FrameUnwindToState      004bee70 f   LIBCMTD:frame.obj
 0002:000347c0       ___DestructExceptionObject 004bf780 f   LIBCMTD:frame.obj
 0002:000348d0       ?__uncaught_exception@@YA_NXZ 004bf890 f   LIBCMTD:frame.obj
 0002:000348f0       ___CxxExceptionFilter      004bf8b0 f   LIBCMTD:frame.obj
 0002:00034af0       ___CxxRegisterExceptionObject 004bfab0 f   LIBCMTD:frame.obj
 0002:00034c40       ___CxxDetectRethrow        004bfc00 f   LIBCMTD:frame.obj
 0002:00034ca0       ___CxxUnregisterExceptionObject 004bfc60 f   LIBCMTD:frame.obj
 0002:00034d90       ___CxxQueryExceptionSize   004bfd50 f   LIBCMTD:frame.obj
 0002:00034da0       ___CxxCallUnwindDtor       004bfd60 f   LIBCMTD:frame.obj
 0002:00034e20       ___CxxCallUnwindVecDtor    004bfde0 f   LIBCMTD:frame.obj
 0002:00034eb0       __CallSettingFrame@12      004bfe70 f   LIBCMTD:lowhelpr.obj
 0002:00034ed7       __NLG_Return               004bfe97     LIBCMTD:lowhelpr.obj
 0002:00034f10       ?terminate@@YAXXZ          004bfed0 f   LIBCMTD:hooks.obj
 0002:00034fc0       ?unexpected@@YAXXZ         004bff80 f   LIBCMTD:hooks.obj
 0002:00034ff0       ?_inconsistency@@YAXXZ     004bffb0 f   LIBCMTD:hooks.obj
 0002:00035075       __raise_exc                004c0035 f   LIBCMTD:fpexcept.obj
 0002:000353c2       __handle_exc               004c0382 f   LIBCMTD:fpexcept.obj
 0002:0003562a       __set_errno                004c05ea f   LIBCMTD:fpexcept.obj
 0002:0003568c       __errcode                  004c064c f   LIBCMTD:fpexcept.obj
 0002:000356ca       __umatherr                 004c068a f   LIBCMTD:fpexcept.obj
 0002:0003578f       __handle_qnan1             004c074f f   LIBCMTD:fpexcept.obj
 0002:000357f6       __handle_qnan2             004c07b6 f   LIBCMTD:fpexcept.obj
 0002:0003586c       __except1                  004c082c f   LIBCMTD:fpexcept.obj
 0002:00035948       __except2                  004c0908 f   LIBCMTD:fpexcept.obj
 0002:00035a36       __set_exp                  004c09f6 f   LIBCMTD:util.obj
 0002:00035a6a       __get_exp                  004c0a2a f   LIBCMTD:util.obj
 0002:00035a88       __add_exp                  004c0a48 f   LIBCMTD:util.obj
 0002:00035abd       __set_bexp                 004c0a7d f   LIBCMTD:util.obj
 0002:00035aeb       __sptype                   004c0aab f   LIBCMTD:util.obj
 0002:00035b5c       __decomp                   004c0b1c f   LIBCMTD:util.obj
 0002:00035c3d       __statfp                   004c0bfd f   LIBCMTD:fpctrl.obj
 0002:00035c4e       __clrfp                    004c0c0e f   LIBCMTD:fpctrl.obj
 0002:00035c60       __ctrlfp                   004c0c20 f   LIBCMTD:fpctrl.obj
 0002:00035c8d       __set_statfp               004c0c4d f   LIBCMTD:fpctrl.obj
 0002:00035d00       __output                   004c0cc0 f   LIBCMTD:output.obj
 0002:00037050       ___iob_func                004c2010 f   LIBCMTD:_file.obj
 0002:00037060       ___initstdio               004c2020 f   LIBCMTD:_file.obj
 0002:000371e0       ___endstdio                004c21a0 f   LIBCMTD:_file.obj
 0002:00037200       __lock_file                004c21c0 f   LIBCMTD:_file.obj
 0002:00037250       __lock_file2               004c2210 f   LIBCMTD:_file.obj
 0002:00037290       __unlock_file              004c2250 f   LIBCMTD:_file.obj
 0002:000372e0       __unlock_file2             004c22a0 f   LIBCMTD:_file.obj
 0002:00037320       __close                    004c22e0 f   LIBCMTD:close.obj
 0002:00037450       __close_lk                 004c2410 f   LIBCMTD:close.obj
 0002:00037530       __freebuf                  004c24f0 f   LIBCMTD:_freebuf.obj
 0002:000375e0       _fflush                    004c25a0 f   LIBCMTD:fflush.obj
 0002:00037690       __fflush_lk                004c2650 f   LIBCMTD:fflush.obj
 0002:000376e0       __flush                    004c26a0 f   LIBCMTD:fflush.obj
 0002:000377c0       __flushall                 004c2780 f   LIBCMTD:fflush.obj
 0002:000379e0       __write                    004c29a0 f   LIBCMTD:write.obj
 0002:00037b30       __write_lk                 004c2af0 f   LIBCMTD:write.obj
 0002:00037ec0       __openfile                 004c2e80 f   LIBCMTD:_open.obj
 0002:00038330       __dosmaperr                004c32f0 f   LIBCMTD:dosmap.obj
 0002:000383f0       __errno                    004c33b0 f   LIBCMTD:dosmap.obj
 0002:00038400       ___doserrno                004c33c0 f   LIBCMTD:dosmap.obj
 0002:00038410       __getstream                004c33d0 f   LIBCMTD:stream.obj
 0002:000386ba       __frnd                     004c367a f   LIBCMTD:frnd.obj
 0002:000386d0       _abort                     004c3690 f   LIBCMTD:abort.obj
 0002:00038700       _signal                    004c36c0 f   LIBCMTD:winsig.obj
 0002:000389a0       _raise                     004c3960 f   LIBCMTD:winsig.obj
 0002:00038d00       ___fpecode                 004c3cc0 f   LIBCMTD:winsig.obj
 0002:00038d10       ___pxcptinfoptrs           004c3cd0 f   LIBCMTD:winsig.obj
 0002:00038d20       _strncat                   004c3ce0 f   LIBCMTD:strncat.obj
 0002:00038eb0       ?_set_new_handler@@YAP6AHI@ZP6AHI@Z@Z 004c3e70 f   LIBCMTD:handler.obj
 0002:00038ef0       ?_query_new_handler@@YAP6AHI@ZXZ 004c3eb0 f   LIBCMTD:handler.obj
 0002:00038f00       __callnewh                 004c3ec0 f   LIBCMTD:handler.obj
 0002:00038f40       __malloc_base              004c3f00 f   LIBCMTD:malloc.obj
 0002:00038f70       __nh_malloc_base           004c3f30 f   LIBCMTD:malloc.obj
 0002:00038fe0       __heap_alloc_base          004c3fa0 f   LIBCMTD:malloc.obj
 0002:00039030       __CrtDefaultAllocHook      004c3ff0 f   LIBCMTD:dbghook.obj
 0002:00039040       __expand_base              004c4000 f   LIBCMTD:expand.obj
 0002:00039160       __realloc_base             004c4120 f   LIBCMTD:realloc.obj
 0002:00039340       __free_base                004c4300 f   LIBCMTD:free.obj
 0002:00039410       __heapchk                  004c43d0 f   LIBCMTD:heapchk.obj
 0002:000394f0       __heapset                  004c44b0 f   LIBCMTD:heapchk.obj
 0002:00039500       ___heap_select             004c44c0 f   LIBCMTD:heapinit.obj
 0002:00039520       __get_heap_handle          004c44e0 f   LIBCMTD:heapinit.obj
 0002:00039530       __chvalidator              004c44f0 f   LIBCMTD:isctype.obj
 0002:00039580       __isctype                  004c4540 f   LIBCMTD:isctype.obj
 0002:000395c0       __tolower                  004c4580 f   LIBCMTD:tolower.obj
 0002:000395d0       _tolower                   004c4590 f   LIBCMTD:tolower.obj
 0002:00039640       ___ascii_strnicmp          004c4600 f   LIBCMTD:_strnicm.obj
 0002:000396c0       ___ascii_stricmp           004c4680 f   LIBCMTD:_stricmp.obj
 0002:00039730       _towlower                  004c46f0 f   LIBCMTD:towlower.obj
 0002:000397c6       _ldexp                     004c4786 f   LIBCMTD:ldexp.obj
 0002:000399e0       __rt_probe_read4@4         004c49a0 f   LIBCMTD:sehsupp.obj
 0002:00039a99       __fFEXP                    004c4a59     LIBCMTD:87tran.obj
 0002:00039af0       __rtinfpopse               004c4ab0     LIBCMTD:87tran.obj
 0002:00039af2       __rtinfnpopse              004c4ab2     LIBCMTD:87tran.obj
 0002:00039b02       __fFLN                     004c4ac2     LIBCMTD:87tran.obj
 0002:00039bb7       __rtinfpop                 004c4b77     LIBCMTD:87tran.obj
 0002:00039bb9       __rtinfnpop                004c4b79     LIBCMTD:87tran.obj
 0002:00039bd6       __ffexpm1                  004c4b96     LIBCMTD:87tran.obj
 0002:00039cfc       __d_inttype                004c4cbc f   LIBCMTD:powhlp.obj
 0002:00039d7a       __powhlp                   004c4d3a f   LIBCMTD:powhlp.obj
 0002:00039f20       __amsg_exit                004c4ee0 f   LIBCMTD:crt0.obj
 0002:00039f50       _strcmp                    004c4f10 f   LIBCMTD:strcmp.obj
 0002:0003a000       ?__CxxUnhandledExceptionFilter@@YGJPAU_EXCEPTION_POINTERS@@@Z 004c4fc0 f   LIBCMTD:unhandld.obj
 0002:0003a080       ?__CxxSetUnhandledExceptionFilter@@YAHXZ 004c5040 f   LIBCMTD:unhandld.obj
 0002:0003a0a0       ?__CxxRestoreUnhandledExceptionFilter@@YAXXZ 004c5060 f   LIBCMTD:unhandld.obj
 0002:0003a0c0       __ismbcspace               004c5080 f   LIBCMTD:ismbspc.obj
 0002:0003a120       __input                    004c50e0 f   LIBCMTD:input.obj
 0002:0003bd00       __aullrem                  004c6cc0 f   LIBCMTD:ullrem.obj
 0002:0003bda0       ___crtInitCritSecAndSpinCount 004c6d60 f   LIBCMTD:initcrit.obj
 0002:0003be90       __beginthread              004c6e50 f   LIBCMTD:thread.obj
 0002:0003c0f0       __endthread                004c70b0 f   LIBCMTD:thread.obj
 0002:0003c140       __mtxthreadnotification@4  004c7100 f   LIBCMTD:thread.obj
 0002:0003c190       ___CppXcptFilter           004c7150 f   LIBCMTD:winxfltr.obj
 0002:0003c1c0       __XcptFilter               004c7180 f   LIBCMTD:winxfltr.obj
 0002:0003c460       ___updatetmbcinfo          004c7420 f   LIBCMTD:mbctype.obj
 0002:0003c560       __setmbcp                  004c7520 f   LIBCMTD:mbctype.obj
 0002:0003cb30       __getmbcp                  004c7af0 f   LIBCMTD:mbctype.obj
 0002:0003cb50       ___initmbctable            004c7b10 f   LIBCMTD:mbctype.obj
 0002:0003cb89       __ZeroTail                 004c7b49 f   LIBCMTD:intrncvt.obj
 0002:0003cbcb       __IncMan                   004c7b8b f   LIBCMTD:intrncvt.obj
 0002:0003cc2d       __RoundMan                 004c7bed f   LIBCMTD:intrncvt.obj
 0002:0003ccbb       __CopyMan                  004c7c7b f   LIBCMTD:intrncvt.obj
 0002:0003ccdf       __FillZeroMan              004c7c9f f   LIBCMTD:intrncvt.obj
 0002:0003ccf1       __IsZeroMan                004c7cb1 f   LIBCMTD:intrncvt.obj
 0002:0003cd15       __ShrMan                   004c7cd5 f   LIBCMTD:intrncvt.obj
 0002:0003cdae       __ld12cvt                  004c7d6e f   LIBCMTD:intrncvt.obj
 0002:0003cf5c       __ld12tod                  004c7f1c f   LIBCMTD:intrncvt.obj
 0002:0003cf7a       __ld12tof                  004c7f3a f   LIBCMTD:intrncvt.obj
 0002:0003cf98       __ld12told                 004c7f58 f   LIBCMTD:intrncvt.obj
 0002:0003d033       __atodbl                   004c7ff3 f   LIBCMTD:intrncvt.obj
 0002:0003d06b       __atoldbl                  004c802b f   LIBCMTD:intrncvt.obj
 0002:0003d0a4       __atoflt                   004c8064 f   LIBCMTD:intrncvt.obj
 0002:0003d0e0       __fptostr                  004c80a0 f   LIBCMTD:_fptostr.obj
 0002:0003d219       ___dtold                   004c81d9 f   LIBCMTD:cfout.obj
 0002:0003d301       __fltout2                  004c82c1 f   LIBCMTD:cfout.obj
 0002:0003d380       __fptrap                   004c8340 f   LIBCMTD:crt0fp.obj
 0002:0003d392       __fpreset                  004c8352 f   LIBCMTD:ieee87.obj
 0002:0003d583       __statusfp                 004c8543 f   LIBCMTD:ieee87.obj
 0002:0003d59a       __clearfp                  004c855a f   LIBCMTD:ieee87.obj
 0002:0003d5b3       __control87                004c8573 f   LIBCMTD:ieee87.obj
 0002:0003d5f2       __controlfp                004c85b2 f   LIBCMTD:ieee87.obj
 0002:0003d610       __87except                 004c85d0 f   LIBCMTD:87except.obj
 0002:0003d760       __lseek                    004c8720 f   LIBCMTD:lseek.obj
 0002:0003d8b0       __lseek_lk                 004c8870 f   LIBCMTD:lseek.obj
 0002:0003d990       __ioinit                   004c8950 f   LIBCMTD:ioinit.obj
 0002:0003da90       __ioterm                   004c8a50 f   LIBCMTD:ioinit.obj
 0002:0003db40       __getbuf                   004c8b00 f   LIBCMTD:_getbuf.obj
 0002:0003dc30       __isatty                   004c8bf0 f   LIBCMTD:isatty.obj
 0002:0003dc70       ___pwctype_func            004c8c30 f   LIBCMTD:ctype.obj
 0002:0003dc80       ___pctype_func             004c8c40 f   LIBCMTD:ctype.obj
 0002:0003dc90       _mbtowc                    004c8c50 f   LIBCMTD:mbtowc.obj
 0002:0003dd30       _fputwc                    004c8cf0 f   LIBCMTD:fputwc.obj
 0002:0003de00       __putwc_lk                 004c8dc0 f   LIBCMTD:fputwc.obj
 0002:0003dfd0       _putwc                     004c8f90 f   LIBCMTD:fputwc.obj
 0002:0003dff0       ?_ValidateRead@@YAHPBXI@Z  004c8fb0 f   LIBCMTD:validate.obj
 0002:0003e030       ?_ValidateWrite@@YAHPAXI@Z 004c8ff0 f   LIBCMTD:validate.obj
 0002:0003e070       ?_ValidateExecute@@YAHP6GHXZ@Z 004c9030 f   LIBCMTD:validate.obj
 0002:0003e09f       __matherr                  004c905f f   LIBCMTD:matherr.obj
 0002:0003e0b0       _wctomb                    004c9070 f   LIBCMTD:wctomb.obj
 0002:0003e100       __fcloseall                004c90c0 f   LIBCMTD:closeall.obj
 0002:0003e240       __alloc_osfhnd             004c9200 f   LIBCMTD:osfinfo.obj
 0002:0003e560       __set_osfhnd               004c9520 f   LIBCMTD:osfinfo.obj
 0002:0003e5e0       __free_osfhnd              004c95a0 f   LIBCMTD:osfinfo.obj
 0002:0003e690       __get_osfhandle            004c9650 f   LIBCMTD:osfinfo.obj
 0002:0003e710       __open_osfhandle           004c96d0 f   LIBCMTD:osfinfo.obj
 0002:0003e850       __lock_fhandle             004c9810 f   LIBCMTD:osfinfo.obj
 0002:0003e980       __unlock_fhandle           004c9940 f   LIBCMTD:osfinfo.obj
 0002:0003e9b0       __commit                   004c9970 f   LIBCMTD:commit.obj
 0002:0003eb10       __lseeki64                 004c9ad0 f   LIBCMTD:lseeki64.obj
 0002:0003ec70       __lseeki64_lk              004c9c30 f   LIBCMTD:lseeki64.obj
 0002:0003ed60       __open                     004c9d20 f   LIBCMTD:open.obj
 0002:0003ee30       __sopen                    004c9df0 f   LIBCMTD:open.obj
 0002:0003f490       __FF_MSGBANNER             004ca450 f   LIBCMTD:crt0msg.obj
 0002:0003f4d0       __NMSG_WRITE               004ca490 f   LIBCMTD:crt0msg.obj
 0002:0003f580       __GET_RTERRMSG             004ca540 f   LIBCMTD:crt0msg.obj
 0002:0003f5f0       _iswctype                  004ca5b0 f   LIBCMTD:iswctype.obj
 0002:0003f650       _is_wctype                 004ca610 f   LIBCMTD:iswctype.obj
 0002:0003f670       __allshl                   004ca630 f   LIBCMTD:llshl.obj
 0002:0003f6a0       __filbuf                   004ca660 f   LIBCMTD:_filbuf.obj
 0002:0003f8f0       _ungetc                    004ca8b0 f   LIBCMTD:ungetc.obj
 0002:0003f9c0       __ungetc_lk                004ca980 f   LIBCMTD:ungetc.obj
 0002:0003fb3a       ___addl                    004caafa f   LIBCMTD:mantold.obj
 0002:0003fb64       ___add_12                  004cab24 f   LIBCMTD:mantold.obj
 0002:0003fbdc       ___shl_12                  004cab9c f   LIBCMTD:mantold.obj
 0002:0003fc19       ___shr_12                  004cabd9 f   LIBCMTD:mantold.obj
 0002:0003fc55       ___mtold12                 004cac15 f   LIBCMTD:mantold.obj
 0002:0003fd56       ___strgtold12              004cad16 f   LIBCMTD:strgtold.obj
 0002:000402ef       ___STRINGTOLD              004cb2af f   LIBCMTD:strgtold.obj
 0002:0004033a       _$I10_OUTPUT               004cb2fa f   LIBCMTD:x10fout.obj
 0002:00040650       __flswbuf                  004cb610 f   LIBCMTD:_flswbuf.obj
 0002:00040960       __chsize                   004cb920 f   LIBCMTD:chsize.obj
 0002:00040a80       __chsize_lk                004cba40 f   LIBCMTD:chsize.obj
 0002:00040cc0       __read                     004cbc80 f   LIBCMTD:read.obj
 0002:00040e10       __read_lk                  004cbdd0 f   LIBCMTD:read.obj
 0002:00041359       ___ld12mul                 004cc319 f   LIBCMTD:tenpow.obj
 0002:00041603       ___multtenpow12            004cc5c3 f   LIBCMTD:tenpow.obj
 0002:000416a0       __setmode                  004cc660 f   LIBCMTD:setmode.obj
 0002:000417c0       __setmode_lk               004cc780 f   LIBCMTD:setmode.obj
 0002:000418cc       _XapiGetKernelExportAddress@4 004cc88c f   xapilibd:delaybnd.obj
 0002:00041914       _DebugBreak@0              004cc8d4 f   xapilibd:kthunks.obj
 0002:00041919       _GetSystemTimeAsFileTime@4 004cc8d9 f   xapilibd:kthunks.obj
 0002:00041925       _wvsprintfW@12             004cc8e5 f   xapilibd:kthunks.obj
 0002:00041943       _wvsprintfA@12             004cc903 f   xapilibd:kthunks.obj
 0002:00041961       _DebugPrint                004cc921 f   xapilibd:kthunks.obj
 0002:000419a7       _wsprintfW                 004cc967 f   xapilibd:kthunks.obj
 0002:000419c0       _wsprintfA                 004cc980 f   xapilibd:kthunks.obj
 0002:000419d9       _IsBadReadPtr@8            004cc999 f   xapilibd:process.obj
 0002:00041a57       _IsBadWritePtr@8           004cca17 f   xapilibd:process.obj
 0002:00041ada       _IsBadCodePtr@4            004cca9a f   xapilibd:process.obj
 0002:00041aef       _IsBadStringPtrW@8         004ccaaf f   xapilibd:process.obj
 0002:00041b63       _IsBadStringPtrA@8         004ccb23 f   xapilibd:process.obj
 0002:00041bcf       _TlsAlloc@0                004ccb8f f   xapilibd:tls.obj
 0002:00041c38       _TlsGetValue@4             004ccbf8 f   xapilibd:tls.obj
 0002:00041c7e       _TlsSetValue@8             004ccc3e f   xapilibd:tls.obj
 0002:00041cd2       _TlsFree@4                 004ccc92 f   xapilibd:tls.obj
 0002:00041da4       _RtlUnwind@16              004ccd64 f   xboxkrnl:xboxkrnl.exe
 0002:00041daa       _KeBugCheck@4              004ccd6a f   xboxkrnl:xboxkrnl.exe
 0002:00041db0       _vswprintf                 004ccd70 f   LIBCMTD:vswprint.obj
 0002:00041f30       __vscwprintf               004ccef0 f   LIBCMTD:vswprint.obj
 0002:00041fd0       _vsprintf                  004ccf90 f   LIBCMTD:vsprintf.obj
 0002:000420f0       __vscprintf                004cd0b0 f   LIBCMTD:vsprintf.obj
 0003:00000000       _D3DTexture_GetLevelDesc@12 004d10e0 f   d3d8d:texture.obj
 0003:00000040       _D3DCubeTexture_GetLevelDesc@12 004d1120 f   d3d8d:texture.obj
 0003:00000080       _D3DCubeTexture_LockRect@24 004d1160 f   d3d8d:texture.obj
 0003:000000d0       _D3DVolumeTexture_GetLevelDesc@12 004d11b0 f   d3d8d:texture.obj
 0003:00000110       _D3DVolumeTexture_LockBox@20 004d11f0 f   d3d8d:texture.obj
 0003:00000160       ??0TimingMarker@D3D@@QAE@W4_TimingEventType@@@Z 004d1240 f i d3d8d:texture.obj
 0003:00000190       ??1TimingMarker@D3D@@QAE@XZ 004d1270 f i d3d8d:texture.obj
 0003:000001a0       ?AssertContiguous@D3D@@YGXPAXPAD@Z 004d1280 f i d3d8d:texture.obj
 0003:000001d0       ?AssertWriteCombined@D3D@@YGXPAXPAD@Z 004d12b0 f i d3d8d:texture.obj
 0003:00000200       ?GetGPUAddress@D3D@@YGKPAX@Z 004d12e0 f i d3d8d:texture.obj
 0003:000003a0       ?GetMipmapLevelCount@PixelJar@D3D@@YGKPAUD3DPixelContainer@@@Z 004d1480 f i d3d8d:texture.obj
 0003:000003c0       _D3DDevice_CreateTexture2@28 004d14a0 f   d3d8d:texture.obj
 0003:00000580       _D3DBaseTexture_GetLevelCount@4 004d1660 f   d3d8d:texture.obj
 0003:000005c0       _D3DTexture_GetSurfaceLevel2@8 004d16a0 f   d3d8d:texture.obj
 0003:00000660       _D3DTexture_LockRect@20    004d1740 f   d3d8d:texture.obj
 0003:000006c0       _D3DCubeTexture_GetCubeMapSurface2@12 004d17a0 f   d3d8d:texture.obj
 0003:00000760       _D3DVolumeTexture_GetVolumeLevel2@8 004d1840 f   d3d8d:texture.obj
 0003:000007f0       _D3DDevice_CreateIndexBuffer2@4 004d18d0 f   d3d8d:buffer.obj
 0003:00000840       _D3DIndexBuffer_GetDesc@8  004d1920 f   d3d8d:buffer.obj
 0003:00000880       _D3DPalette_GetSize@4      004d1960 f   d3d8d:buffer.obj
 0003:000008c0       ?GetType@D3DResource@@QAG?AW4_D3DRESOURCETYPE@@XZ 004d19a0 f i d3d8d:buffer.obj
 0003:000008d0       ?AssertPhysical@D3D@@YGXKPAD@Z 004d19b0 f i d3d8d:buffer.obj
 0003:00000900       ?GetWriteCombinedAddress@D3D@@YGPAXK@Z 004d19e0 f i d3d8d:buffer.obj
 0003:00000ab0       ?GetDataFromResource@D3D@@YGPAEPAUD3DResource@@@Z 004d1b90 f i d3d8d:buffer.obj
 0003:00000af0       ?StartPush@CDevice@D3D@@QAEPCKXZ 004d1bd0 f i d3d8d:buffer.obj
 0003:00000b20       _D3DDevice_CreateVertexBuffer2@4 004d1c00 f   d3d8d:buffer.obj
 0003:00000c30       _D3DVertexBuffer_Lock2@8   004d1d10 f   d3d8d:buffer.obj
 0003:00000d00       _D3DVertexBuffer_GetDesc@8 004d1de0 f   d3d8d:buffer.obj
 0003:00000d50       _D3DDevice_CreatePalette2@4 004d1e30 f   d3d8d:buffer.obj
 0003:00000e90       _D3DPalette_Lock2@8        004d1f70 f   d3d8d:buffer.obj
 0003:00000f00       ?VerifyHeaderFileEncodings@D3D@@YGXXZ 004d1fe0 f   d3d8d:state.obj
 0003:00000f60       _D3DDevice_SetRenderState_PSTextureModes@4 004d2040 f   d3d8d:state.obj
 0003:00000fb0       @D3DDevice_SetRenderState_Simple_Fast@8 004d2090 f   d3d8d:state.obj
 0003:00000ff0       @D3DDevice_SetRenderState_Simple@8 004d20d0 f   d3d8d:state.obj
 0003:00001030       _D3DDevice_GetViewportOffsetAndScale@8 004d2110 f   d3d8d:state.obj
 0003:000011b0       ?UpdateProjectionViewportTransform@D3D@@YGXXZ 004d2290 f   d3d8d:state.obj
 0003:00001340       _D3DDevice_GetDepthClipPlanes@12 004d2420 f   d3d8d:state.obj
 0003:00001410       ?DecodeLogWidth@D3D@@YGKK@Z 004d24f0 f i d3d8d:state.obj
 0003:00001430       ?DecodeLogHeight@D3D@@YGKK@Z 004d2510 f i d3d8d:state.obj
 0003:00001450       ?BitsPerPixelOfD3DFORMAT@D3D@@YGKW4_D3DFORMAT@@@Z 004d2530 f i d3d8d:state.obj
 0003:00001470       ?GetFormat@PixelJar@D3D@@YG?AW4_D3DFORMAT@@PAUD3DPixelContainer@@@Z 004d2550 f i d3d8d:state.obj
 0003:00001490       ?GetLogWidth@PixelJar@D3D@@YGKPAUD3DPixelContainer@@@Z 004d2570 f i d3d8d:state.obj
 0003:000014b0       ?GetLogHeight@PixelJar@D3D@@YGKPAUD3DPixelContainer@@@Z 004d2590 f i d3d8d:state.obj
 0003:000014d0       ?GetBitsPerPixel@PixelJar@D3D@@YGKPAUD3DPixelContainer@@@Z 004d25b0 f i d3d8d:state.obj
 0003:000014f0       ?GetLinearWidth@PixelJar@D3D@@YGKPAUD3DPixelContainer@@@Z 004d25d0 f i d3d8d:state.obj
 0003:00001530       ?GetLinearHeight@PixelJar@D3D@@YGKPAUD3DPixelContainer@@@Z 004d2610 f i d3d8d:state.obj
 0003:00001570       ?GetWidth@PixelJar@D3D@@YGKPAUD3DPixelContainer@@@Z 004d2650 f i d3d8d:state.obj
 0003:000015b0       ?GetHeight@PixelJar@D3D@@YGKPAUD3DPixelContainer@@@Z 004d2690 f i d3d8d:state.obj
 0003:000016b0       ?GetRenderTargetFactors@D3D@@YGXPAVCDevice@1@PAUD3DSurface@@PAKPAM322@Z 004d2790 f i d3d8d:state.obj
 0003:00001920       ?COUNT_PERF@D3D@@YGXW4_D3DPERF_PerformanceCounters@1@@Z 004d2a00 f i d3d8d:state.obj
 0003:00001960       _D3DDevice_SetRenderState_EdgeAntiAlias@4 004d2a40 f   d3d8d:state.obj
 0003:000019d0       _D3DDevice_SetRenderState_ShadowFunc@4 004d2ab0 f   d3d8d:state.obj
 0003:00001a50       _D3DDevice_SetRenderState_FogColor@4 004d2b30 f   d3d8d:state.obj
 0003:00001ae0       _D3DDevice_SetRenderState_CullMode@4 004d2bc0 f   d3d8d:state.obj
 0003:00001ba0       _D3DDevice_SetRenderState_FrontFace@4 004d2c80 f   d3d8d:state.obj
 0003:00001c20       _D3DDevice_SetRenderState_NormalizeNormals@4 004d2d00 f   d3d8d:state.obj
 0003:00001ca0       _D3DDevice_SetRenderState_TextureFactor@4 004d2d80 f   d3d8d:state.obj
 0003:00001d40       _D3DDevice_SetRenderState_LineWidth@4 004d2e20 f   d3d8d:state.obj
 0003:00001e00       _D3DDevice_SetRenderState_Dxt1NoiseEnable@4 004d2ee0 f   d3d8d:state.obj
 0003:00001f00       _D3DDevice_SetRenderState_ZBias@4 004d2fe0 f   d3d8d:state.obj
 0003:00001fa0       _D3DDevice_SetRenderState_LogicOp@4 004d3080 f   d3d8d:state.obj
 0003:00002030       _D3DDevice_SetRenderState_FillMode@4 004d3110 f   d3d8d:state.obj
 0003:000020c0       _D3DDevice_SetRenderState_BackFillMode@4 004d31a0 f   d3d8d:state.obj
 0003:00002100       _D3DDevice_SetRenderState_TwoSidedLighting@4 004d31e0 f   d3d8d:state.obj
 0003:00002190       _D3DDevice_SetRenderState_VertexBlend@4 004d3270 f   d3d8d:state.obj
 0003:00002220       _D3DDevice_SetRenderState_ParameterCheck@8 004d3300 f   d3d8d:state.obj
 0003:00002c90       _D3DDevice_SetRenderStateNotInline@8 004d3d70 f   d3d8d:state.obj
 0003:00002dd0       _D3DDevice_SetTextureState_TexCoordIndex@8 004d3eb0 f   d3d8d:state.obj
 0003:00002fa0       _D3DDevice_SetTextureState_BumpEnv@12 004d4080 f   d3d8d:state.obj
 0003:00003080       _D3DDevice_SetTextureState_BorderColor@8 004d4160 f   d3d8d:state.obj
 0003:00003110       _D3DDevice_SetTextureState_ColorKeyColor@8 004d41f0 f   d3d8d:state.obj
 0003:00003190       _D3DDevice_SetTextureState_ParameterCheck@12 004d4270 f   d3d8d:state.obj
 0003:00003520       _D3DDevice_SetTextureStageStateNotInline@12 004d4600 f   d3d8d:state.obj
 0003:000036b0       ?CommonSetTextureBumpEnv@D3D@@YIPCKPAVCDevice@1@PCK@Z 004d4790 f   d3d8d:state.obj
 0003:00003760       ?CommonSetViewport@D3D@@YIPCKPAVCDevice@1@PCK@Z 004d4840 f   d3d8d:state.obj
 0003:000039f0       ?CommonSetControl0@D3D@@YIPCKPAVCDevice@1@PCK@Z 004d4ad0 f   d3d8d:state.obj
 0003:00003a70       ?CommonSetAntiAliasingControl@D3D@@YIXPAVCDevice@1@@Z 004d4b50 f   d3d8d:state.obj
 0003:00003af0       ?CommonSetOccludeZStencilEn@D3D@@YIPCKPAVCDevice@1@PCK@Z 004d4bd0 f   d3d8d:state.obj
 0003:00003b50       ?CommonSetDebugRegisters@D3D@@YIXXZ 004d4c30 f   d3d8d:state.obj
 0003:00003c80       ?CommonSetMultiSampleModeAndScale@D3D@@YIXPAVCDevice@1@PBU_D3DVIEWPORT8@@@Z 004d4d60 f   d3d8d:state.obj
 0003:000040c0       _D3DDevice_SetDepthClipPlanes@12 004d51a0 f   d3d8d:state.obj
 0003:000041e0       _D3DDevice_SetRenderState_ZEnable@4 004d52c0 f   d3d8d:state.obj
 0003:000042f0       _D3DDevice_SetRenderState_StencilEnable@4 004d53d0 f   d3d8d:state.obj
 0003:000043e0       _D3DDevice_SetRenderState_StencilFail@4 004d54c0 f   d3d8d:state.obj
 0003:000044b0       _D3DDevice_SetRenderState_YuvEnable@4 004d5590 f   d3d8d:state.obj
 0003:00004520       _D3DDevice_SetRenderState_OcclusionCullEnable@4 004d5600 f   d3d8d:state.obj
 0003:000045d0       _D3DDevice_SetRenderState_StencilCullEnable@4 004d56b0 f   d3d8d:state.obj
 0003:00004680       _D3DDevice_SetRenderState_RopZCmpAlwaysRead@4 004d5760 f   d3d8d:state.obj
 0003:000046a0       _D3DDevice_SetRenderState_RopZRead@4 004d5780 f   d3d8d:state.obj
 0003:000046c0       _D3DDevice_SetRenderState_DoNotCullUncompressed@4 004d57a0 f   d3d8d:state.obj
 0003:000046e0       _D3DDevice_SetRenderState_MultiSampleMode@4 004d57c0 f   d3d8d:state.obj
 0003:00004730       _D3DDevice_SetRenderState_MultiSampleRenderTargetMode@4 004d5810 f   d3d8d:state.obj
 0003:00004780       _D3DDevice_SetRenderState_MultiSampleAntiAlias@4 004d5860 f   d3d8d:state.obj
 0003:00004800       _D3DDevice_SetRenderState_MultiSampleMask@4 004d58e0 f   d3d8d:state.obj
 0003:00004830       _D3DDevice_SetRenderState_SampleAlpha@4 004d5910 f   d3d8d:state.obj
 0003:00004860       _D3DDevice_GetDirect3D@4   004d5940 f   d3d8d:d3dbase.obj
 0003:00004880       _D3DDevice_GetDeviceCaps@4 004d5960 f   d3d8d:d3dbase.obj
 0003:000048b0       _D3DDevice_GetCreationParameters@4 004d5990 f   d3d8d:d3dbase.obj
 0003:00004920       _D3DDevice_SetGammaRamp@8  004d5a00 f   d3d8d:d3dbase.obj
 0003:000049d0       _D3DDevice_GetGammaRamp@4  004d5ab0 f   d3d8d:d3dbase.obj
 0003:00004a10       ?NV057FormatFromD3DRectColorFormat@D3D@@YGKW4_D3DCOPYRECTCOLORFORMAT@@@Z 004d5af0 f i d3d8d:d3dbase.obj
 0003:00004a60       ?ValidateCopyRectState@D3D@@YGXW4_D3DCOPYRECTCOLORFORMAT@@W4_D3DCOPYRECTOPERATION@@@Z 004d5b40 f   d3d8d:d3dbase.obj
 0003:00004b10       ?SetupCopyRectRopState@D3D@@YGPCKPCKW4_D3DCOPYRECTCOLORFORMAT@@PBU_D3DCOPYRECTROPSTATE@@@Z 004d5bf0 f   d3d8d:d3dbase.obj
 0003:00004c80       _D3DDevice_GetCopyRectsState@8 004d5d60 f   d3d8d:d3dbase.obj
 0003:00004ce0       _D3DDevice_GetTransform@8  004d5dc0 f   d3d8d:d3dbase.obj
 0003:00004d50       _D3DDevice_GetViewport@4   004d5e30 f   d3d8d:d3dbase.obj
 0003:00004dc0       _D3DDevice_SetMaterial@4   004d5ea0 f   d3d8d:d3dbase.obj
 0003:00004e30       _D3DDevice_GetMaterial@4   004d5f10 f   d3d8d:d3dbase.obj
 0003:00004e80       _D3DDevice_SetBackMaterial@4 004d5f60 f   d3d8d:d3dbase.obj
 0003:00004ef0       _D3DDevice_GetBackMaterial@4 004d5fd0 f   d3d8d:d3dbase.obj
 0003:00004f40       ?CheckLightParameters@D3D@@YGXPBU_D3DLIGHT8@@@Z 004d6020 f   d3d8d:d3dbase.obj
 0003:00005140       _D3DDevice_GetLight@8      004d6220 f   d3d8d:d3dbase.obj
 0003:000051e0       _D3DDevice_GetLightEnable@8 004d62c0 f   d3d8d:d3dbase.obj
 0003:00005280       _D3DDevice_GetRenderState@8 004d6360 f   d3d8d:d3dbase.obj
 0003:000052f0       @D3DDevice_SwitchTexture_Fast@12 004d63d0 f   d3d8d:d3dbase.obj
 0003:00005340       _D3DDevice_GetTextureStageState@12 004d6420 f   d3d8d:d3dbase.obj
 0003:000053a0       _D3DDevice_AddRef@0        004d6480 f   d3d8d:d3dbase.obj
 0003:000053c0       _D3DDevice_Release@0       004d64a0 f   d3d8d:d3dbase.obj
 0003:00005410       _D3DDevice_KickPushBuffer@0 004d64f0 f   d3d8d:d3dbase.obj
 0003:00005430       _D3DDevice_GetVisibilityTestResult@12 004d6510 f   d3d8d:d3dbase.obj
 0003:00005540       _D3DDevice_SetVerticalBlankCallback@4 004d6620 f   d3d8d:d3dbase.obj
 0003:00005570       _D3DDevice_SetSwapCallback@4 004d6650 f   d3d8d:d3dbase.obj
 0003:000055a0       _D3DDevice_GetProjectionViewportMatrix@4 004d6680 f   d3d8d:d3dbase.obj
 0003:000055e0       _D3DDevice_GetModelView@4  004d66c0 f   d3d8d:d3dbase.obj
 0003:00005630       _D3DDevice_GetVertexBlendModelView@12 004d6710 f   d3d8d:d3dbase.obj
 0003:000056d0       ?AddRef@D3DResource@@QAGKXZ 004d67b0 f i d3d8d:d3dbase.obj
 0003:000056e0       _D3DDevice_GetTile@8       004d67c0 f   d3d8d:d3dbase.obj
 0003:00005780       _D3DDevice_GetScissors@12  004d6860 f   d3d8d:d3dbase.obj
 0003:00005800       _D3DDevice_GetPersistedSurface2@0 004d68e0 f   d3d8d:d3dbase.obj
 0003:00005810       _D3DDevice_SetFlickerFilter@4 004d68f0 f   d3d8d:d3dbase.obj
 0003:00005890       _D3DDevice_SetSoftDisplayFilter@4 004d6970 f   d3d8d:d3dbase.obj
 0003:00005910       _D3DTest_ChecksumCallback  004d69f0 f   d3d8d:d3dbase.obj
 0003:00005990       _D3DDevice_InsertFence@0   004d6a70 f   d3d8d:d3dbase.obj
 0003:000059b0       _D3DDevice_GetScreenSpaceOffset@8 004d6a90 f   d3d8d:d3dbase.obj
 0003:00005a00       _D3DDevice_GetOverscanColor@0 004d6ae0 f   d3d8d:d3dbase.obj
 0003:00005a10       _D3DDevice_GetStipple@4    004d6af0 f   d3d8d:d3dbase.obj
 0003:00005a60       ?Lock@D3DPalette@@QAGJPAPAKK@Z 004d6b40 f i d3d8d:d3dbase.obj
 0003:00005a90       ?Unlock@D3DPalette@@QAGJXZ 004d6b70 f i d3d8d:d3dbase.obj
 0003:00005aa0       ?GetSize@D3DPalette@@QAG?AW4_D3DPALETTESIZE@@XZ 004d6b80 f i d3d8d:d3dbase.obj
 0003:00005ad0       ?GetRefreshRate@CMiniport@D3D@@QAEKXZ 004d6bb0 f i d3d8d:d3dbase.obj
 0003:00005b30       ?GetTSC@CMiniport@D3D@@SG_KXZ 004d6c10 f i d3d8d:d3dbase.obj
 0003:00005b40       ?IsOddField@CMiniport@D3D@@QAEHXZ 004d6c20 f i d3d8d:d3dbase.obj
 0003:00005cf0       ?DecodeD3DFORMAT@D3D@@YG?AW4_D3DFORMAT@@K@Z 004d6dd0 f i d3d8d:d3dbase.obj
 0003:00005d10       ?IsValidRenderTargetD3DFORMAT@D3D@@YGHW4_D3DFORMAT@@@Z 004d6df0 f i d3d8d:d3dbase.obj
 0003:00005d30       ?IsValidDepthBufferD3DFORMAT@D3D@@YGHW4_D3DFORMAT@@@Z 004d6e10 f i d3d8d:d3dbase.obj
 0003:00005d50       ?IsSwizzledD3DFORMAT@D3D@@YGHW4_D3DFORMAT@@@Z 004d6e30 f i d3d8d:d3dbase.obj
 0003:00005d70       ?IsLinearD3DFORMAT@D3D@@YGHW4_D3DFORMAT@@@Z 004d6e50 f i d3d8d:d3dbase.obj
 0003:00005d90       ?MinimumTextureSizeOfD3DFORMAT@D3D@@YGKW4_D3DFORMAT@@@Z 004d6e70 f i d3d8d:d3dbase.obj
 0003:00005db0       ?IsSurface@PixelJar@D3D@@YG_NPAUD3DResource@@@Z 004d6e90 f i d3d8d:d3dbase.obj
 0003:00005de0       ?IsSwizzled@PixelJar@D3D@@YGHPAUD3DPixelContainer@@@Z 004d6ec0 f i d3d8d:d3dbase.obj
 0003:00005e00       ?IsValidRenderTarget@PixelJar@D3D@@YGHPAUD3DPixelContainer@@@Z 004d6ee0 f i d3d8d:d3dbase.obj
 0003:00005e30       ?IsValidDepthBuffer@PixelJar@D3D@@YGHPAUD3DPixelContainer@@@Z 004d6f10 f i d3d8d:d3dbase.obj
 0003:00005e50       ?IsCompressed@PixelJar@D3D@@YG_NPAUD3DPixelContainer@@@Z 004d6f30 f i d3d8d:d3dbase.obj
 0003:00005e70       ?PitchFromSize@PixelJar@D3D@@YGKK@Z 004d6f50 f i d3d8d:d3dbase.obj
 0003:00005e90       ?GetLinearPitch@PixelJar@D3D@@YGKPAUD3DPixelContainer@@@Z 004d6f70 f i d3d8d:d3dbase.obj
 0003:00005ed0       ?GetPitch@PixelJar@D3D@@YGKPAUD3DPixelContainer@@@Z 004d6fb0 f i d3d8d:d3dbase.obj
 0003:00005f60       ?GetSlice@PixelJar@D3D@@YGKPAUD3DPixelContainer@@@Z 004d7040 f i d3d8d:d3dbase.obj
 0003:00006040       ?IsChildSurface@D3D@@YGHPAUD3DResource@@@Z 004d7120 f i d3d8d:d3dbase.obj
 0003:00006080       ?InternalAddRef@D3D@@YGXPAUD3DResource@@W4_D3DRESOURCETYPE@@@Z 004d7160 f i d3d8d:d3dbase.obj
 0003:00006110       ?InternalRelease@D3D@@YGXPAUD3DResource@@W4_D3DRESOURCETYPE@@@Z 004d71f0 f i d3d8d:d3dbase.obj
 0003:000061b0       ?LightEnableType@D3D@@YGKPBULight@1@@Z 004d7290 f i d3d8d:d3dbase.obj
 0003:000061d0       ?StartPush@CDevice@D3D@@QAEPCKK@Z 004d72b0 f i d3d8d:d3dbase.obj
 0003:000061e0       ?RecordResourceReadPush@CDevice@D3D@@QAEXPAUD3DResource@@@Z 004d72c0 f i d3d8d:d3dbase.obj
 0003:00006250       ?RecordSurfaceWritePush@CDevice@D3D@@QAEXPAUD3DResource@@@Z 004d7330 f i d3d8d:d3dbase.obj
 0003:000062b0       ?___D3DCYCLETIMER_GetTime@D3D@@YG_KXZ 004d7390 f i d3d8d:d3dbase.obj
 0003:000062c0       ??0___D3DCYCLETIMER@D3D@@QAE@W4_D3DPERF_PerformanceCounters@1@@Z 004d73a0 f i d3d8d:d3dbase.obj
 0003:00006310       ??1___D3DCYCLETIMER@D3D@@QAE@XZ 004d73f0 f i d3d8d:d3dbase.obj
 0003:00006380       ??0___D3DPERFEVENT@D3D@@QAE@GH@Z 004d7460 f i d3d8d:d3dbase.obj
 0003:000063b0       ??1___D3DPERFEVENT@D3D@@QAE@XZ 004d7490 f i d3d8d:d3dbase.obj
 0003:000063c0       _D3DDevice_GetDisplayMode@4 004d74a0 f   d3d8d:d3dbase.obj
 0003:000064c0       _D3DDevice_Reset@4         004d75a0 f   d3d8d:d3dbase.obj
 0003:000065d0       _D3DDevice_SetRenderTarget@8 004d76b0 f   d3d8d:d3dbase.obj
 0003:00006e30       _D3DDevice_SetRenderTargetFast@12 004d7f10 f   d3d8d:d3dbase.obj
 0003:00007550       _D3DDevice_GetBackBuffer2@4 004d8630 f   d3d8d:d3dbase.obj
 0003:000075e0       _D3DDevice_GetRasterStatus@4 004d86c0 f   d3d8d:d3dbase.obj
 0003:00007680       _D3DDevice_SetCopyRectsState@8 004d8760 f   d3d8d:d3dbase.obj
 0003:00007970       ?GPUCopyVideoRectangle@D3D@@YGXKPAUtagRECT@@PAUtagPOINT@@@Z 004d8a50 f i d3d8d:d3dbase.obj
 0003:00007a50       _D3DDevice_CopyRects@20    004d8b30 f   d3d8d:d3dbase.obj
 0003:000082a0       _D3DDevice_GetRenderTarget2@0 004d9380 f   d3d8d:d3dbase.obj
 0003:000082d0       _D3DDevice_GetDepthStencilSurface2@0 004d93b0 f   d3d8d:d3dbase.obj
 0003:00008310       _D3DDevice_SetTransform@8  004d93f0 f   d3d8d:d3dbase.obj
 0003:00008650       _D3DDevice_MultiplyTransform@8 004d9730 f   d3d8d:d3dbase.obj
 0003:00008700       _D3DDevice_SetViewport@4   004d97e0 f   d3d8d:d3dbase.obj
 0003:00008a00       _D3DDevice_SetLight@8      004d9ae0 f   d3d8d:d3dbase.obj
 0003:00008dc0       _D3DDevice_LightEnable@8   004d9ea0 f   d3d8d:d3dbase.obj
 0003:00008fe0       _D3DDevice_GetTexture2@4   004da0c0 f   d3d8d:d3dbase.obj
 0003:00009040       _D3DDevice_SetTexture@8    004da120 f   d3d8d:d3dbase.obj
 0003:00009480       @D3DDevice_SwitchTexture@12 004da560 f   d3d8d:d3dbase.obj
 0003:00009560       _D3DDevice_GetPalette2@4   004da640 f   d3d8d:d3dbase.obj
 0003:000095c0       _D3DDevice_SetPalette@8    004da6a0 f   d3d8d:d3dbase.obj
 0003:00009850       _D3DDevice_SetIndices@8    004da930 f   d3d8d:d3dbase.obj
 0003:00009a00       _D3DDevice_GetIndices2@4   004daae0 f   d3d8d:d3dbase.obj
 0003:00009a60       _D3DDevice_IsBusy@0        004dab40 f   d3d8d:d3dbase.obj
 0003:00009ab0       _D3DDevice_BlockUntilIdle@0 004dab90 f   d3d8d:d3dbase.obj
 0003:00009ae0       _D3DDevice_BlockOnFence@4  004dabc0 f   d3d8d:d3dbase.obj
 0003:00009b30       _D3DDevice_BeginVisibilityTest@0 004dac10 f   d3d8d:d3dbase.obj
 0003:00009b90       ?GetVisibilityAddress@D3D@@YGPAKK@Z 004dac70 f   d3d8d:d3dbase.obj
 0003:00009d10       _D3DDevice_EndVisibilityTest@4 004dadf0 f   d3d8d:d3dbase.obj
 0003:00009dd0       _D3DDevice_GetDisplayFieldStatus@4 004daeb0 f   d3d8d:d3dbase.obj
 0003:00009e30       _D3DDevice_SetTimerCallback@16 004daf10 f   d3d8d:d3dbase.obj
 0003:00009ee0       _D3DDevice_BlockUntilVerticalBlank@0 004dafc0 f   d3d8d:d3dbase.obj
 0003:0000a020       _D3DDevice_FlushVertexCache@0 004db100 f   d3d8d:d3dbase.obj
 0003:0000a080       _D3DDevice_SetModelView@12 004db160 f   d3d8d:d3dbase.obj
 0003:0000a1f0       _D3DDevice_SetVertexBlendModelView@16 004db2d0 f   d3d8d:d3dbase.obj
 0003:0000a3d0       _D3DDevice_Nop@0           004db4b0 f   d3d8d:d3dbase.obj
 0003:0000a430       ?SetTileNoWait@D3D@@YGXKPBU_D3DTILE@@@Z 004db510 f   d3d8d:d3dbase.obj
 0003:0000a7c0       _D3DDevice_SetTile@8       004db8a0 f   d3d8d:d3dbase.obj
 0003:0000a7e0       _D3DDevice_SetTileCompressionTagBits@16 004db8c0 f   d3d8d:d3dbase.obj
 0003:0000a920       _D3DDevice_GetTileCompressionTagBits@16 004dba00 f   d3d8d:d3dbase.obj
 0003:0000aa50       _D3DDevice_GetTileCompressionTags@8 004dbb30 f   d3d8d:d3dbase.obj
 0003:0000ac20       _D3DDevice_SetScissors@12  004dbd00 f   d3d8d:d3dbase.obj
 0003:0000b1e0       ?CreateSurfaceWithContiguousHeaderInternal@D3D@@YGPAUD3DSurface@@KKW4_D3DFORMAT@@@Z 004dc2c0 f   d3d8d:d3dbase.obj
 0003:0000b2b0       _D3DDevice_PersistDisplay@0 004dc390 f   d3d8d:d3dbase.obj
 0003:0000b450       _D3DTest_GetScreenChecksum@12 004dc530 f   d3d8d:d3dbase.obj
 0003:0000b4b0       _D3DDevice_SetScreenSpaceOffset@8 004dc590 f   d3d8d:d3dbase.obj
 0003:0000b540       _D3DDevice_SetOverscanColor@4 004dc620 f   d3d8d:d3dbase.obj
 0003:0000b6b0       _D3DDevice_SetStipple@4    004dc790 f   d3d8d:d3dbase.obj
 0003:0000b760       ?D3DInternals@D3D@@YAJKPAX@Z 004dc840 f   d3d8d:d3dbase.obj
 0003:0000ba50       ?FastCopyToWC@D3D@@YGXPCKPAKK@Z 004dcb30 f   d3d8d:drawprim.obj
 0003:0000bb10       ?MMXMemCpyDwordBlock@D3D@@YGXPBX0K@Z 004dcbf0 f i d3d8d:drawprim.obj
 0003:0000bcf0       ?StartBracket@CDevice@D3D@@QAEXXZ 004dcdd0 f i d3d8d:drawprim.obj
 0003:0000bd30       ?EndBracket@CDevice@D3D@@QAEXXZ 004dce10 f i d3d8d:drawprim.obj
 0003:0000bdd0       ?COUNT_ADD_PERF@D3D@@YGXW4_D3DPERF_PerformanceCounters@1@K@Z 004dceb0 f i d3d8d:drawprim.obj
 0003:0000be20       _D3DDevice_DrawVerticesUP@16 004dcf00 f   d3d8d:drawprim.obj
 0003:0000c2b0       _D3DDevice_DrawIndexedVerticesUP@20 004dd390 f   d3d8d:drawprim.obj
 0003:0000c710       _D3DDevice_DrawVertices@12 004dd7f0 f   d3d8d:drawprim.obj
 0003:0000c9e0       _D3DDevice_DrawIndexedVertices@12 004ddac0 f   d3d8d:drawprim.obj
 0003:0000cfa0       _D3DDevice_PrimeVertexCache@8 004de080 f   d3d8d:drawprim.obj
 0003:0000d100       _D3DDevice_SetVertexData2f@12 004de1e0 f   d3d8d:drawprim.obj
 0003:0000d190       _D3DDevice_SetVertexData4f@20 004de270 f   d3d8d:drawprim.obj
 0003:0000d2a0       _D3DDevice_SetVertexData2s@12 004de380 f   d3d8d:drawprim.obj
 0003:0000d340       _D3DDevice_SetVertexData4s@20 004de420 f   d3d8d:drawprim.obj
 0003:0000d3f0       _D3DDevice_SetVertexData4ub@20 004de4d0 f   d3d8d:drawprim.obj
 0003:0000d4a0       _D3DDevice_SetVertexDataColor@8 004de580 f   d3d8d:drawprim.obj
 0003:0000d550       _D3DDevice_Begin@4         004de630 f   d3d8d:drawprim.obj
 0003:0000d680       _D3DDevice_End@0           004de760 f   d3d8d:drawprim.obj
 0003:0000d7d0       ?InitializeVertexShaderFromFvf@D3D@@YGXPAUVertexShader@1@K@Z 004de8b0 f   d3d8d:vshader.obj
 0003:0000d9b0       ?ValidateFVF@D3D@@YGXK@Z   004dea90 f   d3d8d:vshader.obj
 0003:0000da60       ?ShadowVertexShaderState@D3D@@YGXPAUVertexShader@1@K@Z 004deb40 f   d3d8d:vshader.obj
 0003:0000dcc0       ?ParseProgram@D3D@@YGPCKPCKPBKK@Z 004deda0 f   d3d8d:vshader.obj
 0003:0000dd50       _D3DDevice_GetShaderConstantMode@4 004dee30 f   d3d8d:vshader.obj
 0003:0000ddb0       ?ParseDeclarationStream@D3D@@YGXPAUVertexShader@1@PBKH@Z 004dee90 f   d3d8d:vshader.obj
 0003:0000e110       ?ParseDeclarationConstants@D3D@@YGKPBKPCK@Z 004df1f0 f   d3d8d:vshader.obj
 0003:0000e2f0       _D3DDevice_CreateVertexShader@16 004df3d0 f   d3d8d:vshader.obj
 0003:0000e5c0       _D3DDevice_GetVertexShader@4 004df6a0 f   d3d8d:vshader.obj
 0003:0000e600       ?SetVertexShaderConstant_ParameterCheck@D3D@@YIXHPBXK@Z 004df6e0 f   d3d8d:vshader.obj
 0003:0000e700       @D3DDevice_SetVertexShaderConstant1@8 004df7e0 f   d3d8d:vshader.obj
 0003:0000e790       @D3DDevice_SetVertexShaderConstant1Fast@8 004df870 f   d3d8d:vshader.obj
 0003:0000e800       @D3DDevice_SetVertexShaderConstant4@8 004df8e0 f   d3d8d:vshader.obj
 0003:0000e8e0       @D3DDevice_SetVertexShaderConstantNotInlineFast@12 004df9c0 f   d3d8d:vshader.obj
 0003:0000ea00       @D3DDevice_SetVertexShaderConstantNotInline@12 004dfae0 f   d3d8d:vshader.obj
 0003:0000ea60       _D3DDevice_GetVertexShaderConstant@12 004dfb40 f   d3d8d:vshader.obj
 0003:0000eb70       _D3DDevice_GetVertexShaderInput@12 004dfc50 f   d3d8d:vshader.obj
 0003:0000ec00       ?CheckVertexAttributeFormatStruct@D3D@@YGXPAU_D3DVERTEXATTRIBUTEFORMAT@@@Z 004dfce0 f   d3d8d:vshader.obj
 0003:0000ee20       _D3DDevice_SetStreamSource@12 004dff00 f   d3d8d:vshader.obj
 0003:0000f080       _D3DDevice_GetStreamSource2@8 004e0160 f   d3d8d:vshader.obj
 0003:0000f100       _D3DDevice_RunVertexStateShader@8 004e01e0 f   d3d8d:vshader.obj
 0003:0000f1f0       _D3DDevice_LoadVertexShader@8 004e02d0 f   d3d8d:vshader.obj
 0003:0000f320       _D3DDevice_LoadVertexShaderProgram@8 004e0400 f   d3d8d:vshader.obj
 0003:0000f460       _D3DDevice_SelectVertexShaderDirect@8 004e0540 f   d3d8d:vshader.obj
 0003:0000f4c0       _D3DDevice_SelectVertexShader@8 004e05a0 f   d3d8d:vshader.obj
 0003:0000f690       _D3DDevice_GetVertexShaderSize@8 004e0770 f   d3d8d:vshader.obj
 0003:0000f6f0       _D3DDevice_GetVertexShaderType@8 004e07d0 f   d3d8d:vshader.obj
 0003:0000f770       _D3DDevice_SetShaderConstantMode@4 004e0850 f   d3d8d:vshader.obj
 0003:0000f930       ?RestoreVertexShaders@D3D@@YGXPBKK@Z 004e0a10 f   d3d8d:vshader.obj
 0003:0000f9d0       _D3DDevice_DeleteVertexShader@4 004e0ab0 f   d3d8d:vshader.obj
 0003:0000fa70       ?CommonSetPassthroughProgram@D3D@@YIXPAVCDevice@1@@Z 004e0b50 f   d3d8d:vshader.obj
 0003:0000fbe0       _D3DDevice_SetVertexShader@4 004e0cc0 f   d3d8d:vshader.obj
 0003:0000fec0       _D3DDevice_GetVertexShaderDeclaration@12 004e0fa0 f   d3d8d:vshader.obj
 0003:000103e0       _D3DDevice_GetVertexShaderFunction@12 004e14c0 f   d3d8d:vshader.obj
 0003:00010560       _D3DDevice_SetVertexShaderInputDirect@12 004e1640 f   d3d8d:vshader.obj
 0003:000105d0       _D3DDevice_SetVertexShaderInput@12 004e16b0 f   d3d8d:vshader.obj
 0003:00010ed0       _D3DDevice_GetBackBufferScale@8 004e1fb0 f   d3d8d:present.obj
 0003:00010f10       ?SetDebugMarker@D3DDevice@@SGKK@Z 004e1ff0 f i d3d8d:present.obj
 0003:00011bf0       _D3DDevice_Swap@4          004e2cd0 f   d3d8d:present.obj
 0003:00011e00       _D3DDevice_SetBackBufferScale@8 004e2ee0 f   d3d8d:present.obj
 0003:000120d0       ?GPUScale@D3D@@YGXPAUD3DSurface@@0M@Z 004e31b0 f   d3d8d:present.obj
 0003:000121f0       _D3DDevice_Clear@24        004e32d0 f   d3d8d:clear.obj
 0003:00012980       _Direct3DCreate8@4         004e3a60 f   d3d8d:enum.obj
 0003:000129c0       _Direct3D_GetAdapterIdentifier@12 004e3aa0 f   d3d8d:enum.obj
 0003:00012a10       _Direct3D_GetAdapterModeCount@4 004e3af0 f   d3d8d:enum.obj
 0003:00012af0       _Direct3D_EnumAdapterModes@12 004e3bd0 f   d3d8d:enum.obj
 0003:00012cc0       _Direct3D_GetDeviceCaps@12 004e3da0 f   d3d8d:enum.obj
 0003:00012d10       ?CheckDisplayFormat@D3D@@YGHW4_D3DFORMAT@@@Z 004e3df0 f i d3d8d:enum.obj
 0003:00012d30       _Direct3D_GetAdapterDisplayMode@8 004e3e10 f   d3d8d:enum.obj
 0003:00012e30       _Direct3D_CheckDeviceType@20 004e3f10 f   d3d8d:enum.obj
 0003:00012ec0       _Direct3D_CheckDeviceFormat@24 004e3fa0 f   d3d8d:enum.obj
 0003:00012f70       _Direct3D_CheckDeviceMultiSampleType@20 004e4050 f   d3d8d:enum.obj
 0003:00013020       _Direct3D_CheckDepthStencilMatch@20 004e4100 f   d3d8d:enum.obj
 0003:000130a0       _Direct3D_SetPushBufferSize@8 004e4180 f   d3d8d:d3ddev.obj
 0003:00013180       _Direct3D_CreateDevice@24  004e4260 f   d3d8d:d3ddev.obj
 0003:00013360       ?InitSurfaceHeader@D3D@@YGXIIW4_D3DFORMAT@@PAUD3DSurface@@II@Z 004e4440 f   d3d8d:shadersnapshot.obj
 0003:000133c0       ?HandleShaderSnapshotPreSwap@D3D@@YGXXZ 004e44a0 f   d3d8d:shadersnapshot.obj
 0003:000134e0       _D3DPERF_QueryRepeatFrame@0 004e45c0 f   d3d8d:shadersnapshot.obj
 0003:00013520       ?WriteCapture@DebugSnapshot@D3D@@QAEXK@Z 004e4600 f   d3d8d:shadersnapshot.obj
 0003:00013560       ?GetVertexInputsAndOutputs@D3D@@YGXPAUvtxreg@1@PAUvtxio@1@1@Z 004e4640 f   d3d8d:shadersnapshot.obj
 0003:000137c0       ?WriteVTXREG@D3D@@YGXPAUvtxreg@1@0PAKPAE1@Z 004e48a0 f   d3d8d:shadersnapshot.obj
 0003:00013880       ?GetRenderTarget@D3DDevice@@SGJPAPAUD3DSurface@@@Z 004e4960 f i d3d8d:shadersnapshot.obj
 0003:000138a0       ?DrawVertices@D3DDevice@@SGJW4_D3DPRIMITIVETYPE@@II@Z 004e4980 f i d3d8d:shadersnapshot.obj
 0003:000138c0       ?DrawIndexedVertices@D3DDevice@@SGJW4_D3DPRIMITIVETYPE@@IPBG@Z 004e49a0 f i d3d8d:shadersnapshot.obj
 0003:000138e0       ?DrawIndexedVerticesUP@D3DDevice@@SGJW4_D3DPRIMITIVETYPE@@IPBX1I@Z 004e49c0 f i d3d8d:shadersnapshot.obj
 0003:00013910       ?LoadVertexShaderProgram@D3DDevice@@SGJPBKK@Z 004e49f0 f i d3d8d:shadersnapshot.obj
 0003:00013930       ?SetVertexShaderConstant@D3DDevice@@SGJHPBXK@Z 004e4a10 f i d3d8d:shadersnapshot.obj
 0003:00013980       ?SetPixelShader@D3DDevice@@SGJK@Z 004e4a60 f i d3d8d:shadersnapshot.obj
 0003:000139a0       ?SetPixelShaderProgram@D3DDevice@@SGJPBU_D3DPixelShaderDef@@@Z 004e4a80 f i d3d8d:shadersnapshot.obj
 0003:000139c0       ?GetPixelShader@D3DDevice@@SGJPAK@Z 004e4aa0 f i d3d8d:shadersnapshot.obj
 0003:000139e0       ?BlockUntilIdle@D3DDevice@@SGXXZ 004e4ac0 f i d3d8d:shadersnapshot.obj
 0003:000139f0       ?SetScissors@D3DDevice@@SGJKHPBU_D3DRECT@@@Z 004e4ad0 f i d3d8d:shadersnapshot.obj
 0003:00013a10       ?GetScissors@D3DDevice@@SGJPAKPAHPAU_D3DRECT@@@Z 004e4af0 f i d3d8d:shadersnapshot.obj
 0003:00013a30       ?HandleShaderSnapshot_Clear@D3D@@YGXKPBU_D3DRECT@@KKMK@Z 004e4b10 f   d3d8d:shadersnapshot.obj
 0003:00013ae0       ?BeginVSSnapshot@DebugSnapshot@D3D@@QAEXPAK@Z 004e4bc0 f   d3d8d:shadersnapshot.obj
 0003:00013bd0       ?EndVSSnapshot@DebugSnapshot@D3D@@QAEXXZ 004e4cb0 f   d3d8d:shadersnapshot.obj
 0003:00013c40       ?HandleVisTestResult@D3D@@YGXPAI@Z 004e4d20 f   d3d8d:shadersnapshot.obj
 0003:00013c90       _D3DDevice_SetDebugMarker@4 004e4d70 f   d3d8d:shadersnapshot.obj
 0003:00013cc0       _D3DDevice_GetDebugMarker@0 004e4da0 f   d3d8d:shadersnapshot.obj
 0003:00013ef0       ?HandleMovieFrameIdle@D3D@@YGXXZ 004e4fd0 f   d3d8d:shadersnapshot.obj
 0003:00014350       ?WriteColor24@DebugSnapshot@D3D@@QAEXK@Z 004e5430 f   d3d8d:shadersnapshot.obj
 0003:00014460       ?RestoreUserState@DebugSnapshot@D3D@@QAEXH@Z 004e5540 f   d3d8d:shadersnapshot.obj
 0003:00014550       ?SaveUserState@DebugSnapshot@D3D@@QAEXXZ 004e5630 f   d3d8d:shadersnapshot.obj
 0003:000145c0       ?SetPassThroughState@DebugSnapshot@D3D@@QAEXXZ 004e56a0 f   d3d8d:shadersnapshot.obj
 0003:00014720       ?BeginPSSnapshot@DebugSnapshot@D3D@@QAEXPAK@Z 004e5800 f   d3d8d:shadersnapshot.obj
 0003:00014d90       ?GetColorAndDepth@DebugSnapshot@D3D@@QAEXPAK0@Z 004e5e70 f   d3d8d:shadersnapshot.obj
 0003:00014ed0       ?SetColorAndDepth@DebugSnapshot@D3D@@QAEXKK@Z 004e5fb0 f   d3d8d:shadersnapshot.obj
 0003:00015000       ?DumpImage@DebugSnapshot@D3D@@QAEXXZ 004e60e0 f   d3d8d:shadersnapshot.obj
 0003:000151a0       ?EndPSSnapshot@DebugSnapshot@D3D@@QAEXXZ 004e6280 f   d3d8d:shadersnapshot.obj
 0003:000152c0       ?DrawVertices@DebugSnapshot@D3D@@QAEJXZ 004e63a0 f   d3d8d:shadersnapshot.obj
 0003:00015410       ?ReplaceInstWithMoveTemp@D3D@@YGXHH@Z 004e64f0 f   d3d8d:shadersnapshot.obj
 0003:00015470       ?GetConstant0@D3D@@YGXPAUvtxreg@1@@Z 004e6550 f   d3d8d:shadersnapshot.obj
 0003:000154a0       ?ReplaceInst@D3D@@YGXHPAUvtxreg@1@@Z 004e6580 f   d3d8d:shadersnapshot.obj
 0003:000154f0       ?SetConstant@D3D@@YGXHPAUvtxreg@1@@Z 004e65d0 f   d3d8d:shadersnapshot.obj
 0003:00015560       ?DumpVtxInstruction@DebugSnapshot@D3D@@AAEXHPAUvtxreg@2@00PAKPAE1@Z 004e6640 f   d3d8d:shadersnapshot.obj
 0003:00015ef0       ?HandleVSDrawVertices@DebugSnapshot@D3D@@QAEJXZ 004e6fd0 f   d3d8d:shadersnapshot.obj
 0003:000165c0       ?HandleXRDrawVertices@DebugSnapshot@D3D@@QAEJXZ 004e76a0 f   d3d8d:shadersnapshot.obj
 0003:000168f0       ?GetRegister@DebugSnapshot@D3D@@QAEXKI@Z 004e79d0 f   d3d8d:shadersnapshot.obj
 0003:00016e60       ?HandleShaderSnapshotOpcode@D3D@@YGXXZ 004e7f40 f   d3d8d:shadersnapshot.obj
 0003:00017c40       ?GetStageData@DebugSnapshot@D3D@@QAEXI@Z 004e8d20 f   d3d8d:shadersnapshot.obj
 0003:00017d90       ?HandlePSDrawVertices@DebugSnapshot@D3D@@QAEJXZ 004e8e70 f   d3d8d:shadersnapshot.obj
 0003:00018e10       ?HandleDrawVertices@DebugSnapshot@D3D@@QAEJXZ 004e9ef0 f   d3d8d:shadersnapshot.obj
 0003:00018e70       ?HandleShaderSnapshot_DrawVerticesUP@D3D@@YGXW4_D3DPRIMITIVETYPE@@IPBXI@Z 004e9f50 f   d3d8d:shadersnapshot.obj
 0003:00018f20       ?HandleShaderSnapshot_DrawIndexedVerticesUP@D3D@@YGXW4_D3DPRIMITIVETYPE@@IPBX1I@Z 004ea000 f   d3d8d:shadersnapshot.obj
 0003:00018fe0       ?HandleShaderSnapshot_DrawVertices@D3D@@YGXW4_D3DPRIMITIVETYPE@@II@Z 004ea0c0 f   d3d8d:shadersnapshot.obj
 0003:00019080       ?HandleShaderSnapshot_DrawIndexedVertices@D3D@@YGXW4_D3DPRIMITIVETYPE@@IPBG@Z 004ea160 f   d3d8d:shadersnapshot.obj
 0003:00019120       ?ValidCombinerInputs@D3D@@YGHKPAD@Z 004ea200 f   d3d8d:pshader.obj
 0003:000191e0       ?ValidAlphaOutputs@D3D@@YGHKPAD@Z 004ea2c0 f   d3d8d:pshader.obj
 0003:000192d0       ?ValidRGBOutputs@D3D@@YGHKPAD@Z 004ea3b0 f   d3d8d:pshader.obj
 0003:000193a0       ?ValidFinalCombinerABCD@D3D@@YGHKPAD@Z 004ea480 f   d3d8d:pshader.obj
 0003:000195f0       ?ValidFinalCombinerEFG@D3D@@YGHKPAD@Z 004ea6d0 f   d3d8d:pshader.obj
 0003:00019710       ?ValidTextureModes@D3D@@YGHKPAD@Z 004ea7f0 f   d3d8d:pshader.obj
 0003:000199f0       ?ValidInputTexture@D3D@@YGHKPAD@Z 004eaad0 f   d3d8d:pshader.obj
 0003:00019ac0       ?ValidCombinerCount@D3D@@YGHKPAD@Z 004eaba0 f   d3d8d:pshader.obj
 0003:00019b90       ?ValidCompareMode@D3D@@YGHKPAD@Z 004eac70 f   d3d8d:pshader.obj
 0003:00019be0       ?ValidDotMapping@D3D@@YGHKPAD@Z 004eacc0 f   d3d8d:pshader.obj
 0003:00019cc0       ?ValidFinalCombinerConstants@D3D@@YGHKPAD@Z 004eada0 f   d3d8d:pshader.obj
 0003:00019d10       _D3DDevice_CreatePixelShader@8 004eadf0 f   d3d8d:pshader.obj
 0003:0001a210       _D3DDevice_DeletePixelShader@4 004eb2f0 f   d3d8d:pshader.obj
 0003:0001a2b0       _D3DDevice_SetPixelShaderProgram@4 004eb390 f   d3d8d:pshader.obj
 0003:0001a7c0       _D3DDevice_GetPixelShader@4 004eb8a0 f   d3d8d:pshader.obj
 0003:0001a820       _D3DDevice_GetPixelShaderConstant@12 004eb900 f   d3d8d:pshader.obj
 0003:0001ac70       _D3DDevice_GetPixelShaderFunction@8 004ebd50 f   d3d8d:pshader.obj
 0003:0001ad10       _D3DDevice_SetPixelShader@4 004ebdf0 f   d3d8d:pshader.obj
 0003:0001b060       _D3DDevice_SetPixelShaderConstant@12 004ec140 f   d3d8d:pshader.obj
 0003:0001b500       ?CleanPrivateData@D3D@@YGXPAX@Z 004ec5e0 f   d3d8d:resource.obj
 0003:0001b560       _IsEqualGUID@8             004ec640 f i d3d8d:resource.obj
 0003:0001b590       _==@8                      004ec670 f i d3d8d:resource.obj
 0003:0001b5c0       ?ExceptionFilter@D3D@@YGJXZ 004ec6a0 f   d3d8d:resource.obj
 0003:0001b5e0       ?AddRef@D3DDevice@@SGKXZ   004ec6c0 f i d3d8d:resource.obj
 0003:0001b5f0       ?AssertCached@D3D@@YGXPAXPAD@Z 004ec6d0 f i d3d8d:resource.obj
 0003:0001b680       ?IsValidD3DFORMAT@D3D@@YGHW4_D3DFORMAT@@@Z 004ec760 f i d3d8d:resource.obj
 0003:0001b6b0       ?CalcPitch@D3D@@YGKKK@Z    004ec790 f i d3d8d:resource.obj
 0003:0001b6d0       ?GetParent@PixelJar@D3D@@YGPAUD3DBaseTexture@@PAUD3DResource@@@Z 004ec7b0 f i d3d8d:resource.obj
 0003:0001b700       ?GpuTime@CDevice@D3D@@QAEKXZ 004ec7e0 f i d3d8d:resource.obj
 0003:0001b710       ?Age@CDevice@D3D@@QAEKK@Z  004ec7f0 f i d3d8d:resource.obj
 0003:0001b720       ?IsTimePending@CDevice@D3D@@QAEHK@Z 004ec800 f i d3d8d:resource.obj
 0003:0001b750       ?FindPrivateData@D3D@@YGPAUPrivateDataNode@1@PAXABU_GUID@@@Z 004ec830 f   d3d8d:resource.obj
 0003:0001b7a0       ?DestroyResource@D3D@@YGXPAUD3DResource@@@Z 004ec880 f   d3d8d:resource.obj
 0003:0001b8d0       ?VALIDATE_RESOURCE@D3D@@YGXPAUD3DResource@@W4_D3DRESOURCETYPE@@H@Z 004ec9b0 f   d3d8d:resource.obj
 0003:0001bc30       ?IsResourceSetInDevice@D3D@@YGHPAUD3DResource@@@Z 004ecd10 f   d3d8d:resource.obj
 0003:0001bc90       ?InternalAddRefSurface@D3D@@YGXPAUD3DResource@@@Z 004ecd70 f   d3d8d:resource.obj
 0003:0001bdb0       ?InternalReleaseSurface@D3D@@YGXPAUD3DResource@@@Z 004ece90 f   d3d8d:resource.obj
 0003:0001bef0       _D3DResource_AddRef@4      004ecfd0 f   d3d8d:resource.obj
 0003:0001bf80       _D3DResource_Release@4     004ed060 f   d3d8d:resource.obj
 0003:0001c030       _D3DResource_GetType@4     004ed110 f   d3d8d:resource.obj
 0003:0001c150       _D3DResource_IsBusy@4      004ed230 f   d3d8d:resource.obj
 0003:0001c220       _D3DResource_GetDevice@8   004ed300 f   d3d8d:resource.obj
 0003:0001c260       _D3DResource_Register@8    004ed340 f   d3d8d:resource.obj
 0003:0001c370       _D3DResource_BlockUntilNotBusy@4 004ed450 f   d3d8d:resource.obj
 0003:0001c3a0       _D3DResource_SetPrivateData@20 004ed480 f   d3d8d:resource.obj
 0003:0001c540       _D3DResource_GetPrivateData@16 004ed620 f   d3d8d:resource.obj
 0003:0001c600       _D3DResource_FreePrivateData@8 004ed6e0 f   d3d8d:resource.obj
 0003:0001c6a0       _D3DSurface_GetDesc@8      004ed780 f   d3d8d:surface.obj
 0003:0001c6e0       _D3DVolume_GetDesc@8       004ed7c0 f   d3d8d:surface.obj
 0003:0001c720       _D3DVolume_LockBox@16      004ed800 f   d3d8d:surface.obj
 0003:0001c8d0       ?CreateSurfaceOfTexture@D3D@@YGPAUD3DSurface@@KKPAUD3DBaseTexture@@PAX@Z 004ed9b0 f   d3d8d:surface.obj
 0003:0001c960       ?InitializeSurface@D3D@@YGXPAUD3DSurface@@KKPAX@Z 004eda40 f   d3d8d:surface.obj
 0003:0001c9d0       _D3DDevice_CreateSurface2@16 004edab0 f   d3d8d:surface.obj
 0003:0001cbb0       ?CreateSurfaceWithContiguousHeader@D3D@@YGPAUD3DSurface@@KKW4_D3DFORMAT@@@Z 004edc90 f   d3d8d:surface.obj
 0003:0001cc70       _D3DSurface_GetContainer2@4 004edd50 f   d3d8d:surface.obj
 0003:0001ccb0       _D3DSurface_LockRect@16    004edd90 f   d3d8d:surface.obj
 0003:0001cd10       ?CreateVolumeOfTexture@D3D@@YGPAUD3DVolume@@KPAUD3DBaseTexture@@PAX@Z 004eddf0 f   d3d8d:surface.obj
 0003:0001cda0       _D3DVolume_GetContainer2@4 004ede80 f   d3d8d:surface.obj
 0003:0001cde0       ?Log2@D3D@@YIKK@Z          004edec0 f   d3d8d:pixeljar.obj
 0003:0001ce40       ?MapToLinearD3DFORMAT@D3D@@YG?AW4_D3DFORMAT@@W42@@Z 004edf20 f   d3d8d:pixeljar.obj
 0003:0001cf40       ?IsCompressedD3DFORMAT@D3D@@YG_NW4_D3DFORMAT@@@Z 004ee020 f   d3d8d:pixeljar.obj
 0003:0001cf80       ?DecodeLogDepth@D3D@@YGKK@Z 004ee060 f i d3d8d:pixeljar.obj
 0003:0001cf90       ?GetLogDepth@PixelJar@D3D@@YGKPAUD3DPixelContainer@@@Z 004ee070 f i d3d8d:pixeljar.obj
 0003:0001cfb0       ?VideoBitsPerPixelOfD3DFORMAT@D3D@@YGKW4_D3DFORMAT@@@Z 004ee090 f   d3d8d:pixeljar.obj
 0003:0001cfe0       ?CalcTilePitch@D3D@@YGKKW4_D3DFORMAT@@@Z 004ee0c0 f   d3d8d:pixeljar.obj
 0003:0001d030       ?GetSurfaceFormat@PixelJar@D3D@@YGKPAUD3DPixelContainer@@0@Z 004ee110 f   d3d8d:pixeljar.obj
 0003:0001d1e0       ?GetDepthBufferScale@PixelJar@D3D@@YGXPAUD3DPixelContainer@@PAM@Z 004ee2c0 f   d3d8d:pixeljar.obj
 0003:0001d2b0       ?GetSize@PixelJar@D3D@@YGXPAUD3DPixelContainer@@KPAK1111@Z 004ee390 f   d3d8d:pixeljar.obj
 0003:0001d470       ?Get2DSurfaceDesc@PixelJar@D3D@@YGXPAUD3DPixelContainer@@IPAU_D3DSURFACE_DESC@@@Z 004ee550 f   d3d8d:pixeljar.obj
 0003:0001d570       ?Get3DSurfaceDesc@PixelJar@D3D@@YGXPAUD3DPixelContainer@@IPAU_D3DVOLUME_DESC@@@Z 004ee650 f   d3d8d:pixeljar.obj
 0003:0001d610       ?FindSurfaceWithinTexture@PixelJar@D3D@@YGXPAUD3DPixelContainer@@W4_D3DCUBEMAP_FACES@@IPAPAEPAK333@Z 004ee6f0 f   d3d8d:pixeljar.obj
 0003:0001d950       ?Lock2DSurface@PixelJar@D3D@@YGXPAUD3DPixelContainer@@W4_D3DCUBEMAP_FACES@@IPAU_D3DLOCKED_RECT@@PBUtagRECT@@K@Z 004eea30 f   d3d8d:pixeljar.obj
 0003:0001da60       ?Lock3DSurface@PixelJar@D3D@@YGXPAUD3DPixelContainer@@IPAU_D3DLOCKED_BOX@@PBU_D3DBOX@@K@Z 004eeb40 f   d3d8d:pixeljar.obj
 0003:0001db60       ?EncodeFormat@PixelJar@D3D@@YGKKKKKW4_D3DFORMAT@@KHHPAK1@Z 004eec40 f   d3d8d:pixeljar.obj
 0003:0001e160       ??0PERFFIXEDPOINT@D3D@@QAE@_KK@Z 004ef240 f i d3d8d:stats.obj
 0003:0001e1a0       _D3DPERF_GetPushBufferBytesWritten@0 004ef280 f   d3d8d:stats.obj
 0003:0001e280       _D3DPERF_GetPushBufferInfo@4 004ef360 f   d3d8d:stats.obj
 0003:0001e2e0       _D3DPERF_GetStatistics@0   004ef3c0 f   d3d8d:stats.obj
 0003:0001e2f0       _D3DPERF_GetNames@0        004ef3d0 f   d3d8d:stats.obj
 0003:0001e330       ?SpewPerfEvent@D3D@@YGXPAU_D3DPERFEvent@1@PA_K1@Z 004ef410 f   d3d8d:stats.obj
 0003:0001e5b0       _D3DPERF_DumpPerfEvents@0  004ef690 f   d3d8d:stats.obj
 0003:0001e6f0       _D3DPERF_DumpPerfProfCounts@0 004ef7d0 f   d3d8d:stats.obj
 0003:0001e770       _PerfGetPushBufferDistance@8 004ef850 f   d3d8d:stats.obj
 0003:0001e7d0       _D3DPERF_GetRegisterBase@0 004ef8b0 f   d3d8d:stats.obj
 0003:0001e7e0       _D3DPERF_InitializePushBufferAnalyzer@4 004ef8c0 f   d3d8d:stats.obj
 0003:0001e820       _D3DPERF_StartCountingPerfEvent@4 004ef900 f i d3d8d:stats.obj
 0003:0001e8e0       ?MilliSecsFromCycles@D3D@@YGK_K@Z 004ef9c0 f i d3d8d:stats.obj
 0003:0001e930       _D3DPERF_DumpCounterCycleInfo@12 004efa10 f   d3d8d:stats.obj
 0003:0001e990       _D3DPERF_DumpFrameRateInfo@0 004efa70 f   d3d8d:stats.obj
 0003:0001ee60       ?PerfEventCallbackStart@D3D@@YAXK@Z 004eff40 f   d3d8d:stats.obj
 0003:0001ee80       ?PerfEventCallbackTime@D3D@@YAXK@Z 004eff60 f   d3d8d:stats.obj
 0003:0001eeb0       _D3DPERF_PerfEventEnd@8    004eff90 f   d3d8d:stats.obj
 0003:0001ef30       _D3DPERF_PerfEventStart@8  004f0010 f   d3d8d:stats.obj
 0003:0001f090       _D3DPERF_Dump@0            004f0170 f   d3d8d:stats.obj
 0003:0001f270       _D3DPERF_SetState@8        004f0350 f   d3d8d:stats.obj
 0003:0001f320       _D3DPERF_StartPerfProfile@0 004f0400 f   d3d8d:stats.obj
 0003:0001f3d0       _D3DPERF_StopPerfProfile@0 004f04b0 f   d3d8d:stats.obj
 0003:0001f410       _D3DPERF_Reset@0           004f04f0 f   d3d8d:stats.obj
 0003:0001f620       _D3DPERF_HandlePresent@0   004f0700 f   d3d8d:stats.obj
 0003:0001f710       ?Init@CPUAllocator@D3D@@QAEHK@Z 004f07f0 f   d3d8d:timing.obj
 0003:0001f7e0       ?Reset@CPUAllocator@D3D@@QAEXXZ 004f08c0 f   d3d8d:timing.obj
 0003:0001f800       ?SpaceFor@CPUAllocator@D3D@@QAEHK@Z 004f08e0 f   d3d8d:timing.obj
 0003:0001f840       ?GetSize@CPUAllocator@D3D@@QAEKXZ 004f0920 f   d3d8d:timing.obj
 0003:0001f850       ?WriteFile@CPUAllocator@D3D@@QAEJPAXPAU_IO_STATUS_BLOCK@@@Z 004f0930 f   d3d8d:timing.obj
 0003:0001f880       ?FreeMem@CPUAllocator@D3D@@QAEXXZ 004f0960 f   d3d8d:timing.obj
 0003:0001f8a0       ?Reset@GPUAllocator@D3D@@QAEXXZ 004f0980 f   d3d8d:timing.obj
 0003:0001f8d0       ?GetSize@GPUAllocator@D3D@@QAEKXZ 004f09b0 f   d3d8d:timing.obj
 0003:0001f8f0       ?Increment@GPUAllocator@D3D@@QAEHXZ 004f09d0 f   d3d8d:timing.obj
 0003:0001f960       ?WriteFile@GPUAllocator@D3D@@QAEJPAXPAU_IO_STATUS_BLOCK@@@Z 004f0a40 f   d3d8d:timing.obj
 0003:0001fa70       ?WriteBuffers@CPUAllocator@D3D@@QAEXPAPAK@Z 004f0b50 f   d3d8d:timing.obj
 0003:0001faa0       ?WriteBuffers@GPUAllocator@D3D@@QAEXPAPAK@Z 004f0b80 f   d3d8d:timing.obj
 0003:0001fb70       ?WriteTimingFrequency@TimingRecorder@D3D@@AAEXXZ 004f0c50 f   d3d8d:timing.obj
 0003:0001fc40       ?MyFillSzFromWz@D3D@@YGXPADHPAGH@Z 004f0d20 f   d3d8d:timing.obj
 0003:0001fcc0       ?MyDmWalkLoadedModules@D3D@@YGJPAPAU_DM_WALK_MODULES@1@PAU_DMN_MODLOAD@@@Z 004f0da0 f   d3d8d:timing.obj
 0003:0001fe10       ?MyDmCloseLoadedModules@D3D@@YGJPAU_DM_WALK_MODULES@1@@Z 004f0ef0 f   d3d8d:timing.obj
 0003:0001fe30       ?GetInitialStackTrace0@D3D@@YIXPAXKPAK@Z 004f0f10 f   d3d8d:timing.obj
 0003:0001fe50       ?GetInitialStackTrace1@D3D@@YIKPAXK@Z 004f0f30 f   d3d8d:timing.obj
 0003:0001fe70       ?ConcludeStackInitData@TimingRecorder@D3D@@AAEKPAK@Z 004f0f50 f   d3d8d:timing.obj
 0003:0001ffb0       ?WriteTimingFile@TimingRecorder@D3D@@QAEJPAKK0K@Z 004f1090 f   d3d8d:timing.obj
 0003:000201f0       ?WriteVBEvent@D3D@@YGXW4_TimingEventType@@@Z 004f12d0 f   d3d8d:timing.obj
 0003:000202b0       ?InitRealtimeFrame@TimingRecorder@D3D@@QAEJXZ 004f1390 f   d3d8d:timing.obj
 0003:00020540       ?Init@GPUAllocator@D3D@@QAEHXZ 004f1620 f   d3d8d:timing.obj
 0003:00020690       ?FreeMem@GPUAllocator@D3D@@QAEXXZ 004f1770 f   d3d8d:timing.obj
 0003:00020750       ?InsertPixelCountReport@TimingRecorder@D3D@@QAEXXZ 004f1830 f   d3d8d:timing.obj
 0003:000207f0       ?InsertPixelCountReportAt@TimingRecorder@D3D@@QAEXK@Z 004f18d0 f   d3d8d:timing.obj
 0003:00020850       ?InsertPixelCountReportWait@TimingRecorder@D3D@@QAEXXZ 004f1930 f   d3d8d:timing.obj
 0003:00020910       ?FreeBuffers@TimingRecorder@D3D@@AAEXXZ 004f19f0 f   d3d8d:timing.obj
 0003:00020960       ?AllocateBuffers@TimingRecorder@D3D@@AAEHXZ 004f1a40 f   d3d8d:timing.obj
 0003:00020a20       ?ConcludeTimingRecord@TimingRecorder@D3D@@AAEXXZ 004f1b00 f   d3d8d:timing.obj
 0003:00020e50       ?Start@TimingRecorder@D3D@@QAEJPBDK@Z 004f1f30 f   d3d8d:timing.obj
 0003:00020f90       ?End@TimingRecorder@D3D@@QAEJXZ 004f2070 f   d3d8d:timing.obj
 0003:00021170       ?WriteTimingEvent@D3D@@YGXW4_TimingEventType@@@Z 004f2250 f   d3d8d:timing.obj
 0003:00021370       _D3DPERF_StartTimingCapture@8 004f2450 f   d3d8d:timing.obj
 0003:00021390       _D3DPERF_StopTimingCapture@0 004f2470 f   d3d8d:timing.obj
 0003:000213a0       ?AddUserEvent@TimingRecorder@D3D@@QAEXKKPBDPAPAD@Z 004f2480 f   d3d8d:timing.obj
 0003:000214d0       _D3DPERF_SetMarker         004f25b0 f   d3d8d:timing.obj
 0003:00021530       _D3DPERF_BeginEvent        004f2610 f   d3d8d:timing.obj
 0003:000215b0       _D3DPERF_EndEvent@0        004f2690 f   d3d8d:timing.obj
 0003:000215d0       ?StartRealtime@TimingRecorder@D3D@@QAEJXZ 004f26b0 f   d3d8d:timing.obj
 0003:00021670       ?EndRealtime@TimingRecorder@D3D@@QAEJXZ 004f2750 f   d3d8d:timing.obj
 0003:000216f0       ?InitRealtimeFrame@D3D@@YGJXZ 004f27d0 f   d3d8d:timing.obj
 0003:00021700       ?FinishRealtimeFrame@TimingRecorder@D3D@@QAEJXZ 004f27e0 f   d3d8d:timing.obj
 0003:000218c0       ?StartRealtime@D3D@@YGJXZ  004f29a0 f   d3d8d:timing.obj
 0003:000218d0       ?EndRealtime@D3D@@YGJXZ    004f29b0 f   d3d8d:timing.obj
 0003:000218e0       ?FinishRealtimeFrame@D3D@@YGJXZ 004f29c0 f   d3d8d:timing.obj
 0003:000218f0       ?DBGPRINT@D3D@@YAXPADZZ    004f29d0 f   d3d8d:debug.obj
 0003:00021940       ?WARNING@D3D@@YAXPADZZ     004f2a20 f   d3d8d:debug.obj
 0003:00021990       ?DXGRIP@D3D@@YAXPADZZ      004f2a70 f   d3d8d:debug.obj
 0003:000219e0       ?ASSERTMSG@D3D@@YAXHPADZZ  004f2ac0 f   d3d8d:debug.obj
 0003:00021a40       ?MemAlloc@D3D@@YGPAXK@Z    004f2b20 f   d3d8d:memory.obj
 0003:00021a80       ?MemAllocNoZero@D3D@@YGPAXK@Z 004f2b60 f   d3d8d:memory.obj
 0003:00021ac0       ?MemFree@D3D@@YGXPAX@Z     004f2ba0 f   d3d8d:memory.obj
 0003:00021b60       _D3D_AllocNoncontiguousMemory@4 004f2c40 f   d3d8d:memory.obj
 0003:00021ba0       _D3D_FreeNoncontiguousMemory@4 004f2c80 f   d3d8d:memory.obj
 0003:00021bb0       ?DevkitMemAlloc@D3D@@YGPAXKK@Z 004f2c90 f   d3d8d:memory.obj
 0003:00021be0       ?DevkitMemFree@D3D@@YGKPAXK@Z 004f2cc0 f   d3d8d:memory.obj
 0003:00021de0       _D3D_AllocContiguousMemory@8 004f2ec0 f   d3d8d:memory.obj
 0003:00021f60       _D3D_FreeContiguousMemory@4 004f3040 f   d3d8d:memory.obj
 0003:00021fd0       ?DbgRecordPushStart@D3D@@YGXK@Z 004f30b0 f   d3d8d:pusher.obj
 0003:00022040       ?BusyLoop@D3D@@YGXXZ       004f3120 f   d3d8d:pusher.obj
 0003:00022070       ?ComputeGap@D3D@@YIKPAVCDevice@1@PAUFence@1@PCK@Z 004f3150 f   d3d8d:pusher.obj
 0003:000220b0       _D3DDevice_BeginStateParameterCheck@4 004f3190 f   d3d8d:pusher.obj
 0003:00022100       _D3DDevice_EndStateParameterCheck@4 004f31e0 f   d3d8d:pusher.obj
 0003:00022170       _D3DDevice_SetWaitCallback@4 004f3250 f   d3d8d:pusher.obj
 0003:000221a0       ?DumpMatrixTransposed@D3D@@YGXPCKKPBU_D3DMATRIX@@@Z 004f3280 f   d3d8d:pusher.obj
 0003:00022230       ?PushedRaw@D3D@@YGXPCK@Z   004f3310 f   d3d8d:pusher.obj
 0003:000222b0       ?Push1@D3D@@YGXPCKW4SubChannel@@KK@Z 004f3390 f   d3d8d:pusher.obj
 0003:00022370       ?Push2@D3D@@YGXPCKW4SubChannel@@KKK@Z 004f3450 f   d3d8d:pusher.obj
 0003:00022430       ?Push3@D3D@@YGXPCKW4SubChannel@@KKKK@Z 004f3510 f   d3d8d:pusher.obj
 0003:00022500       ?Push4@D3D@@YGXPCKW4SubChannel@@KKKKK@Z 004f35e0 f   d3d8d:pusher.obj
 0003:000225d0       ?Push1f@D3D@@YGXPCKW4SubChannel@@KM@Z 004f36b0 f   d3d8d:pusher.obj
 0003:00022690       ?Push2f@D3D@@YGXPCKW4SubChannel@@KMM@Z 004f3770 f   d3d8d:pusher.obj
 0003:00022750       ?Push3f@D3D@@YGXPCKW4SubChannel@@KMMM@Z 004f3830 f   d3d8d:pusher.obj
 0003:00022820       ?Push4f@D3D@@YGXPCKW4SubChannel@@KMMMM@Z 004f3900 f   d3d8d:pusher.obj
 0003:000228f0       ?PushCount@D3D@@YGXPCKW4SubChannel@@KK@Z 004f39d0 f   d3d8d:pusher.obj
 0003:000229b0       ?PushMatrixTransposed@D3D@@YGXPCKKPBU_D3DMATRIX@@@Z 004f3a90 f   d3d8d:pusher.obj
 0003:00022a70       ?PushInverseModelViewMatrix@D3D@@YGXPCKKPBU_D3DMATRIX@@@Z 004f3b50 f   d3d8d:pusher.obj
 0003:00022b30       ?PushMatrix@D3D@@YGXPCKKMMMMMMMMMMMMMMMM@Z 004f3c10 f   d3d8d:pusher.obj
 0003:00022c50       _XMETAL_PushedRaw@4        004f3d30 f   d3d8d:pusher.obj
 0003:00022c60       _XMETAL_Push1@12           004f3d40 f   d3d8d:pusher.obj
 0003:00022c80       _XMETAL_Push2@16           004f3d60 f   d3d8d:pusher.obj
 0003:00022cb0       _XMETAL_Push3@20           004f3d90 f   d3d8d:pusher.obj
 0003:00022ce0       _XMETAL_Push4@24           004f3dc0 f   d3d8d:pusher.obj
 0003:00022d10       _XMETAL_Push1f@12          004f3df0 f   d3d8d:pusher.obj
 0003:00022d30       _XMETAL_Push2f@16          004f3e10 f   d3d8d:pusher.obj
 0003:00022d60       _XMETAL_Push3f@20          004f3e40 f   d3d8d:pusher.obj
 0003:00022d90       _XMETAL_Push4f@24          004f3e70 f   d3d8d:pusher.obj
 0003:00022dc0       _XMETAL_PushCount@12       004f3ea0 f   d3d8d:pusher.obj
 0003:00023040       ?IsNonSurfaceResourceSetInDevice@D3D@@YGHPAUD3DResource@@@Z 004f4120 f i d3d8d:pusher.obj
 0003:00023090       ?HwGet@CDevice@D3D@@QAEPCKXZ 004f4170 f i d3d8d:pusher.obj
 0003:000230d0       ?InitializePushBuffer@CDevice@D3D@@QAEJXZ 004f41b0 f   d3d8d:pusher.obj
 0003:000232b0       ?UninitializePushBuffer@CDevice@D3D@@QAEXXZ 004f4390 f   d3d8d:pusher.obj
 0003:00023520       ?GpuGet@CDevice@D3D@@QAEPCKXZ 004f4600 f   d3d8d:pusher.obj
 0003:00023680       ?GpuGetOrNewer@D3D@@YGPCKPAVCDevice@1@H@Z 004f4760 f   d3d8d:pusher.obj
 0003:00023740       ?FlushWCCache@D3D@@YGXXZ   004f4820 f   d3d8d:pusher.obj
 0003:00023780       _D3DDevice_IsFencePending@4 004f4860 f   d3d8d:pusher.obj
 0003:000237b0       _D3DDevice_GetPushDistance@4 004f4890 f   d3d8d:pusher.obj
 0003:00023840       ?KickOff@CDevice@D3D@@QAEXXZ 004f4920 f   d3d8d:pusher.obj
 0003:00023a10       ?ReentrantKickOffAndWait@CDevice@D3D@@QAEXXZ 004f4af0 f   d3d8d:pusher.obj
 0003:00023ac0       ?EndPush@CDevice@D3D@@QAEXPCK@Z 004f4ba0 f   d3d8d:pusher.obj
 0003:00023c00       ?SetFence@D3D@@YGKK@Z      004f4ce0 f   d3d8d:pusher.obj
 0003:00023d80       ?BlockOnTime@D3D@@YGXKK@Z  004f4e60 f   d3d8d:pusher.obj
 0003:00024350       ?MakeRequestedSpace@D3D@@YGPCKKK@Z 004f5430 f   d3d8d:pusher.obj
 0003:00024650       _D3DDevice_MakeSpace@0     004f5730 f   d3d8d:pusher.obj
 0003:00024670       _D3DDevice_BeginStateBig@4 004f5750 f   d3d8d:pusher.obj
 0003:00024770       ?KickOffAndWaitForIdle@D3D@@YGXXZ 004f5850 f   d3d8d:pusher.obj
 0003:000247b0       ?BlockOnResource@D3D@@YGXPAUD3DResource@@@Z 004f5890 f   d3d8d:pusher.obj
 0003:000248c0       ?BlockOnNonSurfaceResource@D3D@@YGXPAUD3DResource@@@Z 004f59a0 f   d3d8d:pusher.obj
 0003:000249e0       _D3DDevice_InsertCallback@12 004f5ac0 f   d3d8d:pusher.obj
 0003:00024ae0       _D3DDevice_BeginPush@4     004f5bc0 f   d3d8d:pusher.obj
 0003:00024ca0       _D3DDevice_EndPush@4       004f5d80 f   d3d8d:pusher.obj
 0003:00024da0       ?XformBy4x3@D3D@@YGXPAU_D3DVECTOR@@PBU2@MPBU_D3DMATRIX@@@Z 004f5e80 f   d3d8d:math.obj
 0003:00024e30       ?MatrixProduct4x4@D3D@@YGXPAU_D3DMATRIX@@PBU2@1@Z 004f5f10 f   d3d8d:math.obj
 0003:00024f70       ?Explut@D3D@@YGXMPAM0@Z    004f6050 f   d3d8d:math.obj
 0003:000250b0       ?JBInvSqrt@D3D@@YGMM@Z     004f6190 f   d3d8d:math.obj
 0003:00025130       ?nvSqrt@D3D@@YGMM@Z        004f6210 f   d3d8d:math.obj
 0003:00025150       ?nvInv@D3D@@YGMM@Z         004f6230 f   d3d8d:math.obj
 0003:00025190       ?NormalizeVector3@D3D@@YGXPAU_D3DVECTOR@@@Z 004f6270 f   d3d8d:math.obj
 0003:00025220       ?Inverse4x4@D3D@@YGHPAU_D3DMATRIX@@PBU2@H@Z 004f6300 f   d3d8d:math.obj
 0003:000257c0       ?FloatToLong@D3D@@YGJM@Z   004f68a0 f   d3d8d:floatmath.obj
 0003:000257d0       ?Cos@D3D@@YGMM@Z           004f68b0 f   d3d8d:floatmath.obj
 0003:000257e0       ?Exp@D3D@@YGMM@Z           004f68c0 f   d3d8d:floatmath.obj
 0003:00025850       ?Log@D3D@@YGMM@Z           004f6930 f   d3d8d:floatmath.obj
 0003:000258b4       ?DacProgramVideoStart@CMiniport@D3D@@QAEXK@Z 004f6994 f   d3d8d:mpdac.obj
 0003:00025972       ?DacProgramGammaRamp@CMiniport@D3D@@QAEXPAU_D3DGAMMARAMP@@@Z 004f6a52 f   d3d8d:mpdac.obj
 0003:00025a00       ?PresentationParametersParameterCheck@D3D@@YGJPAU_D3DPRESENT_PARAMETERS_@@@Z 004f6ae0 f   d3d8d:dxgcreate.obj
 0003:00025b70       ?SetTransform@D3DDevice@@SGJW4_D3DTRANSFORMSTATETYPE@@PBU_D3DMATRIX@@@Z 004f6c50 f i d3d8d:dxgcreate.obj
 0003:00025b90       ?SetShaderConstantMode@D3DDevice@@SGJK@Z 004f6c70 f i d3d8d:dxgcreate.obj
 0003:00025bd0       ?DisableInterrupts@CMiniport@D3D@@QAEXPAX@Z 004f6cb0 f i d3d8d:dxgcreate.obj
 0003:00025ea0       ?InitializeKelvin@D3D@@YGXXZ 004f6f80 f   d3d8d:dxgcreate.obj
 0003:00026030       ?InitializeHardware@D3D@@YGXXZ 004f7110 f   d3d8d:dxgcreate.obj
 0003:000261b0       ?InitializeD3dState@D3D@@YGXXZ 004f7290 f   d3d8d:dxgcreate.obj
 0003:000262b0       ?FreeFrameBuffers@CDevice@D3D@@QAEXXZ 004f7390 f   d3d8d:dxgcreate.obj
 0003:00026570       ?InitializeFrameBuffers@CDevice@D3D@@QAEJPAU_D3DPRESENT_PARAMETERS_@@@Z 004f7650 f   d3d8d:dxgcreate.obj
 0003:00026fc0       ?Init@CDevice@D3D@@QAEJPAU_D3DPRESENT_PARAMETERS_@@@Z 004f80a0 f   d3d8d:dxgcreate.obj
 0003:00027770       ?UnInit@CDevice@D3D@@QAEXXZ 004f8850 f   d3d8d:dxgcreate.obj
 0003:00027d1f       ?GetPresentFlagsFromAvInfo@CMiniport@D3D@@SGKK@Z 004f8dff f   d3d8d:mpmode.obj
 0003:00027d72       ?GetDisplayCapabilities@CMiniport@D3D@@SGKXZ 004f8e52 f   d3d8d:mpmode.obj
 0003:00027d98       ?GetTableForCurrentAvInfo@D3D@@YGPBUDISPLAYMODE@1@XZ 004f8e78 f   d3d8d:mpmode.obj
 0003:00027e8e       ?SetVideoMode@CMiniport@D3D@@QAEJKKKKW4_D3DFORMAT@@KK@Z 004f8f6e f   d3d8d:mpmode.obj
 0003:000281b0       ?IsFlipPending@CMiniport@D3D@@QAEHXZ 004f9290 f   d3d8d:mpintr.obj
 0003:000281d0       ?ServiceMediaPortInterrupt@CMiniport@D3D@@AAEKXZ 004f92b0 f   d3d8d:mpintr.obj
 0003:000281f0       ?RecognizeGraphicsHardwareError@D3D@@YGHKKKK@Z 004f92d0 f   d3d8d:mpintr.obj
 0003:0002c0d0       ?EnableInterrupts@CMiniport@D3D@@QAEXPAX@Z 004fd1b0 f i d3d8d:mpintr.obj
 0003:0002c0f0       ?GetTime@CMiniport@D3D@@QAEKXZ 004fd1d0 f i d3d8d:mpintr.obj
 0003:0002c100       ?GrDone@CMiniport@D3D@@AAEXXZ 004fd1e0 f i d3d8d:mpintr.obj
 0003:0002c110       ?Isr@CMiniport@D3D@@SGEPAU_KINTERRUPT@@PAX@Z 004fd1f0 f   d3d8d:mpintr.obj
 0003:0002c280       ?ServiceQueuedFlips@CMiniport@D3D@@AAEKXZ 004fd360 f   d3d8d:mpintr.obj
 0003:0002c3a0       ?VBlank@CMiniport@D3D@@AAEKXZ 004fd480 f   d3d8d:mpintr.obj
 0003:0002c550       ?ServiceTimerInterrupt@CMiniport@D3D@@AAEKXZ 004fd630 f   d3d8d:mpintr.obj
 0003:0002c6e0       ?ServiceVideoInterrupt@CMiniport@D3D@@AAEKXZ 004fd7c0 f   d3d8d:mpintr.obj
 0003:0002c700       ?ShutdownNotification@CMiniport@D3D@@SGXPAU_HAL_SHUTDOWN_REGISTRATION@@@Z 004fd7e0 f   d3d8d:mpintr.obj
 0003:0002c780       ?PrintRange@D3D@@YGXPAEKK@Z 004fd860 f   d3d8d:mpintr.obj
 0003:0002c7f0       ?ReportHardwareError@D3D@@YGXKKKK@Z 004fd8d0 f   d3d8d:mpintr.obj
 0003:0002cbf0       ?SoftwareMethod@CMiniport@D3D@@AAEXK@Z 004fdcd0 f   d3d8d:mpintr.obj
 0003:0002cfa0       ?ServiceGrInterrupt@CMiniport@D3D@@AAEKXZ 004fe080 f   d3d8d:mpintr.obj
 0003:0002d1d0       ?ServiceFifoInterrupt@CMiniport@D3D@@AAEKXZ 004fe2b0 f   d3d8d:mpintr.obj
 0003:0002d4b0       ?Dpc@CMiniport@D3D@@SGXPAU_KDPC@@PAX11@Z 004fe590 f   d3d8d:mpintr.obj
 0003:0002d62e       ?ReserveInstMem@CMiniport@D3D@@AAEKK@Z 004fe70e f   d3d8d:mpcore.obj
 0003:0002d67c       ?InitGammaRamp@CMiniport@D3D@@AAEXK@Z 004fe75c f   d3d8d:mpcore.obj
 0003:0002d6cf       ?InitDMAChannel@CMiniport@D3D@@QAEHKPAUOBJECTINFO@12@0KPAPAX@Z 004fe7af f   d3d8d:mpcore.obj
 0003:0002d745       ?BindToChannel@CMiniport@D3D@@QAEHPAUOBJECTINFO@12@@Z 004fe825 f   d3d8d:mpcore.obj
 0003:0002d7b0       ?Init@OBJECTINFO@CMiniport@D3D@@QAEXXZ 004fe890 f i d3d8d:mpcore.obj
 0003:0002d7d0       ?AssertContiguousOrPhysical@D3D@@YGXPAXPAD@Z 004fe8b0 f i d3d8d:mpcore.obj
 0003:0002d800       ?IsContiguousMemory@D3D@@YGHPAX@Z 004fe8e0 f i d3d8d:mpcore.obj
 0003:0002d81f       ?DumpClocks@CMiniport@D3D@@AAEXXZ 004fe8ff f   d3d8d:mpcore.obj
 0003:0002da0a       ?MapRegisters@CMiniport@D3D@@AAEHXZ 004feaea f   d3d8d:mpcore.obj
 0003:0002da3f       ?GetGeneralInfo@CMiniport@D3D@@AAEHXZ 004feb1f f   d3d8d:mpcore.obj
 0003:0002da90       ?InitEngines@CMiniport@D3D@@AAEHXZ 004feb70 f   d3d8d:mpcore.obj
 0003:0002db33       ?LoadEngines@CMiniport@D3D@@AAEHXZ 004fec13 f   d3d8d:mpcore.obj
 0003:0002dbf1       ?GetAddressInfo@CMiniport@D3D@@AAEXPAXPAPAXPAKH@Z 004fecd1 f   d3d8d:mpcore.obj
 0003:0002dc75       ?CreateCtxDmaObject@CMiniport@D3D@@QAEHKKPAXKPAUOBJECTINFO@12@@Z 004fed55 f   d3d8d:mpcore.obj
 0003:0002ddc1       ?CreateGrObject@CMiniport@D3D@@QAEHKKPAUOBJECTINFO@12@@Z 004feea1 f   d3d8d:mpcore.obj
 0003:0002df11       ?TilingUpdateIdle@CMiniport@D3D@@QAEXPAK@Z 004feff1 f   d3d8d:mpcore.obj
 0003:0002df9a       ?GetTimerTime@CMiniport@D3D@@AAE_KXZ 004ff07a f   d3d8d:mpcore.obj
 0003:0002dfb4       ?EnableTimer@CMiniport@D3D@@AAEXH@Z 004ff094 f   d3d8d:mpcore.obj
 0003:0002dfdd       ?SetTimerAlarm@CMiniport@D3D@@AAEX_KH@Z 004ff0bd f   d3d8d:mpcore.obj
 0003:0002e0de       ?SetTimerCallbackAlarm@CMiniport@D3D@@QAEX_KP6AXK@ZK@Z 004ff1be f   d3d8d:mpcore.obj
 0003:0002e190       ?ApplyLGSFix@CMiniport@D3D@@QAEXXZ 004ff270 f   d3d8d:mpcore.obj
 0003:0002e1e8       ?InitHardware@CMiniport@D3D@@QAEHXZ 004ff2c8 f   d3d8d:mpcore.obj
 0003:0002e479       ?CreateTile@CMiniport@D3D@@QAEHKKKKKKK@Z 004ff559 f   d3d8d:mpcore.obj
 0003:0002e70f       ?DestroyTile@CMiniport@D3D@@QAEHKK@Z 004ff7ef f   d3d8d:mpcore.obj
 0003:0002e801       ?ShutdownEngines@CMiniport@D3D@@QAEXXZ 004ff8e1 f   d3d8d:mpcore.obj
 0003:0002f1b0       ?GetGPUDataFromResource@D3D@@YGKPAUD3DResource@@@Z 00500290 f i d3d8d:lazy.obj
 0003:0002f230       ?LazyPrimitiveLaunchStateTest@D3D@@YGXXZ 00500310 f i d3d8d:lazy.obj
 0003:0002f2b0       ?LazySetPointParams@D3D@@YGXPAVCDevice@1@@Z 00500390 f   d3d8d:lazy.obj
 0003:0002f4f0       ?LazySetShaderStageProgram@D3D@@YGXPAVCDevice@1@@Z 005005d0 f   d3d8d:lazy.obj
 0003:0002f980       ?LazySetTextureState@D3D@@YGXPAVCDevice@1@K@Z 00500a60 f   d3d8d:lazy.obj
 0003:0002fcb0       ?LazySetSpecFogCombiner@D3D@@YGXPAVCDevice@1@@Z 00500d90 f   d3d8d:lazy.obj
 0003:0002ff90       ?LazySetTextureTransform@D3D@@YGXPAVCDevice@1@@Z 00501070 f   d3d8d:lazy.obj
 0003:00030810       ?LazySetLights@D3D@@YGXPAVCDevice@1@K@Z 005018f0 f   d3d8d:lazy.obj
 0003:00030d10       ?LazySetTransform@D3D@@YGXPAVCDevice@1@K@Z 00501df0 f   d3d8d:lazy.obj
 0003:00030fd0       ?LazySetState@D3D@@YGXXZ   005020b0 f   d3d8d:lazy.obj
 0003:00031080       ?LazySetStateVB@CDevice@D3D@@QAEXK@Z 00502160 f   d3d8d:lazy.obj
 0003:00031330       ?LazySetStateUP@CDevice@D3D@@QAEXXZ 00502410 f   d3d8d:lazy.obj
 0003:00031550       ?SpewFloat@D3D@@YGXPAX@Z   00502630 f   d3d8d:rdi.obj
 0003:00031620       ?ParseOut@D3D@@YGXPAUVINSTR@1@@Z 00502700 f   d3d8d:rdi.obj
 0003:000316d0       ?ParseMux@D3D@@YGXHHHHHHHPAUVINSTR@1@@Z 005027b0 f   d3d8d:rdi.obj
 0003:00031820       ?DisasmInstr@D3D@@YG_NPAX@Z 00502900 f   d3d8d:rdi.obj
 0003:00031c60       _D3DRDI_GetRamData@16      00502d40 f   d3d8d:rdi.obj
 0003:00031d10       _D3DRDI_GetNextVTXLRUSlot@0 00502df0 f   d3d8d:rdi.obj
 0003:00031d40       _D3DRDI_GetVTXFileEntry@8  00502e20 f   d3d8d:rdi.obj
 0003:00031d90       _D3DRDI_GetPAEntry@8       00502e70 f   d3d8d:rdi.obj
 0003:00031dc0       _D3DRDI_DumpVTXFileEntry@4 00502ea0 f   d3d8d:rdi.obj
 0003:00031f40       _D3DRDI_DumpVTXProgram@8   00503020 f   d3d8d:rdi.obj
 0003:00031ff0       _D3DRDI_DumpVTXConstants@8 005030d0 f   d3d8d:rdi.obj
 0003:000320d0       _D3DRDI_DumpVAB@0          005031b0 f   d3d8d:rdi.obj
 0003:000321a0       ?D3DRDI_DumpPA@D3D@@YGXXZ  00503280 f   d3d8d:rdi.obj
 0003:000323a0       ?StrChr@D3D@@YGPBDPBDH@Z   00503480 f   d3d8d:recorder.obj
 0003:000323d0       ?StrCat@D3D@@YGXPADPBD@Z   005034b0 f   d3d8d:recorder.obj
 0003:00032410       ?ZeroInitialize@D3D@@YGXPAXK@Z 005034f0 f   d3d8d:recorder.obj
 0003:00032460       ?WriteDisk@Recorder@D3D@@AAEXW4RecordType@@PBXKKKK@Z 00503540 f   d3d8d:recorder.obj
 0003:00032540       ?ValidateStateAgainstParser@Recorder@D3D@@AAEXPBK0@Z 00503620 f   d3d8d:recorder.obj
 0003:00032750       ?InitializeCRC@D3D@@YGXXZ  00503830 f   d3d8d:recorder.obj
 0003:00032790       ?ComputeCRC@D3D@@YGHPBXPAK@Z 00503870 f   d3d8d:recorder.obj
 0003:00032980       ?RedundantComputeCRC@D3D@@YGKKPAEH@Z 00503a60 f   d3d8d:recorder.obj
 0003:000329c0       ?TiledToLinear@D3D@@YGKPAU_D3DTILE@@K@Z 00503aa0 f   d3d8d:recorder.obj
 0003:00032ab0       ?SaveMemorySummary@Recorder@D3D@@AAEHXZ 00503b90 f   d3d8d:recorder.obj
 0003:00032bb0       ?SaveFloatingPointControl@Recorder@D3D@@AAEHXZ 00503c90 f   d3d8d:recorder.obj
 0003:00032c40       ?SaveModifiedRanges@Recorder@D3D@@AAEHXZ 00503d20 f   d3d8d:recorder.obj
 0003:00032d80       ?FindMinMax16@D3D@@YGXPBKKPAK1@Z 00503e60 f   d3d8d:recorder.obj
 0003:00032f40       ?RedundantFindMinMax16@D3D@@YGXPBKKPAK1@Z 00504020 f   d3d8d:recorder.obj
 0003:00032fb0       ?FindMinMax32@D3D@@YGXPBKKPAK1@Z 00504090 f   d3d8d:recorder.obj
 0003:00033010       ?FindMinMaxArrays@D3D@@YGXPBKKPAK1@Z 005040f0 f   d3d8d:recorder.obj
 0003:00033090       ?Start@Recorder@D3D@@QAEJPBDPAUD3DSurface@@@Z 00504170 f   d3d8d:recorder.obj
 0003:000331f0       ?End@Recorder@D3D@@QAEJXZ  005042d0 f   d3d8d:recorder.obj
 0003:000333a0       _D3DPERF_StartPushBufferCapture@8 00504480 f   d3d8d:recorder.obj
 0003:00033410       _D3DPERF_StopPushBufferCapture@0 005044f0 f   d3d8d:recorder.obj
 0003:00033480       ?SpecialCaseReadKelvinRegister@D3D@@YGKKK@Z 00504560 f   d3d8d:recorder.obj
 0003:000334f0       ?ReadKelvinRegister@D3D@@YGKK@Z 005045d0 f   d3d8d:recorder.obj
 0003:00033600       ?IsBusy@Recorder@D3D@@AAEHXZ 005046e0 f   d3d8d:recorder.obj
 0003:00033630       ?SaveGammaRamp@Recorder@D3D@@AAEHXZ 00504710 f   d3d8d:recorder.obj
 0003:00033690       ?MarkUntiledRange@Recorder@D3D@@AAEXKKW4RecordResourceType@@@Z 00504770 f   d3d8d:recorder.obj
 0003:00033930       ?MarkPages@Recorder@D3D@@AAEXKKW4RecordResourceType@@@Z 00504a10 f   d3d8d:recorder.obj
 0003:00033b30       ?SavePages@Recorder@D3D@@AAEXXZ 00504c10 f   d3d8d:recorder.obj
 0003:00033d60       ?UpdateCRCsFromTargets@Recorder@D3D@@AAEXXZ 00504e40 f   d3d8d:recorder.obj
 0003:00033e40       ?MarkColorSurface@Recorder@D3D@@AAEXXZ 00504f20 f   d3d8d:recorder.obj
 0003:00033e90       ?MarkZetaSurface@Recorder@D3D@@AAEXXZ 00504f70 f   d3d8d:recorder.obj
 0003:00033ee0       ?MarkTextures@Recorder@D3D@@AAEXXZ 00504fc0 f   d3d8d:recorder.obj
 0003:00033fe0       ?MarkVertexBuffers@Recorder@D3D@@AAEXKK@Z 005050c0 f   d3d8d:recorder.obj
 0003:000340b0       ?MarkPalettes@Recorder@D3D@@AAEXXZ 00505190 f   d3d8d:recorder.obj
 0003:00034100       ?MarkRendering@Recorder@D3D@@AAEXXZ 005051e0 f   d3d8d:recorder.obj
 0003:000341d0       ?ParseMethod@Recorder@D3D@@AAEXKPBKK@Z 005052b0 f   d3d8d:recorder.obj
 0003:00034ba0       ?ParseSegment@Recorder@D3D@@AAEPBKPBK0PAPAX1@Z 00505c80 f   d3d8d:recorder.obj
 0003:00034cf0       ?SaveRenderState@Recorder@D3D@@AAEHXZ 00505dd0 f   d3d8d:recorder.obj
 0003:00035390       ?SaveTileState@Recorder@D3D@@AAEHXZ 00506470 f   d3d8d:recorder.obj
 0003:000356a0       ?Initialize@Recorder@D3D@@AAEXXZ 00506780 f   d3d8d:recorder.obj
 0003:00035880       ?Put@Recorder@D3D@@QAEXK@Z 00506960 f   d3d8d:recorder.obj
 0003:00035c00       ?PerfRecordPut@D3D@@YGXK@Z 00506ce0 f   d3d8d:recorder.obj
 0003:00035c30       ?FixupPushBuffer@D3D@@YGXPAUPushBufferFixup@1@@Z 00506d10 f   d3d8d:pushres.obj
 0003:00035db0       ?ReadBuffer@D3D@@YGKPAK@Z  00506e90 f   d3d8d:pushres.obj
 0003:00035e00       ?EndFixup@D3D@@YGXH@Z      00506ee0 f   d3d8d:pushres.obj
 0003:00035e70       ?Fixup1@D3D@@YGXPAKKK@Z    00506f50 f   d3d8d:pushres.obj
 0003:00035f40       ?Fixup2@D3D@@YGXPAKKKK@Z   00507020 f   d3d8d:pushres.obj
 0003:00036020       ?FixupCount@D3D@@YGXPAKW4SubChannel@@KK@Z 00507100 f   d3d8d:pushres.obj
 0003:00036110       ?FixupMatrixTransposed@D3D@@YGXPAKKPBU_D3DMATRIX@@@Z 005071f0 f   d3d8d:pushres.obj
 0003:000361e0       ?AddToFixup@D3D@@YGXK@Z    005072c0 f   d3d8d:pushres.obj
 0003:00036210       ?StartFixup@D3D@@YGPAKPAUD3DPushBuffer@@IK@Z 005072f0 f   d3d8d:pushres.obj
 0003:00036340       _D3DPushBuffer_SetModelView@20 00507420 f   d3d8d:pushres.obj
 0003:00036450       _D3DPushBuffer_SetVertexBlendModelView@24 00507530 f   d3d8d:pushres.obj
 0003:000365e0       _D3DPushBuffer_SetVertexShaderInputDirect@20 005076c0 f   d3d8d:pushres.obj
 0003:00036650       _D3DPushBuffer_SetPalette@16 00507730 f   d3d8d:pushres.obj
 0003:00036780       _D3DPushBuffer_SetVertexShaderConstant@20 00507860 f   d3d8d:pushres.obj
 0003:000368d0       _D3DPushBuffer_SetRenderState@16 005079b0 f   d3d8d:pushres.obj
 0003:000369a0       _D3DPushBuffer_CopyRects@16 00507a80 f   d3d8d:pushres.obj
 0003:00036a50       ?StampCheckValue@D3D@@YGXPCKHKPAD@Z 00507b30 f i d3d8d:pushres.obj
 0003:00036ac0       ?VerifyInstruction@D3D@@YGXKPCKKH@Z 00507ba0 f   d3d8d:pushres.obj
 0003:00036b50       _D3DPushBuffer_Verify@8    00507c30 f   d3d8d:pushres.obj
 0003:00036d30       _D3DDevice_CreateFixup2@4  00507e10 f   d3d8d:pushres.obj
 0003:00036d90       _D3DFixup_Reset@4          00507e70 f   d3d8d:pushres.obj
 0003:00036df0       _D3DPushBuffer_BeginFixup@12 00507ed0 f   d3d8d:pushres.obj
 0003:00036ef0       _D3DPushBuffer_EndFixup@4  00507fd0 f   d3d8d:pushres.obj
 0003:00036fb0       _D3DFixup_GetSize@8        00508090 f   d3d8d:pushres.obj
 0003:00036ff0       _D3DFixup_GetSpace@8       005080d0 f   d3d8d:pushres.obj
 0003:000371d0       ?RunPushBufferParameterCheck@D3D@@YGXPAUD3DPushBuffer@@PAUD3DFixup@@@Z 005082b0 f   d3d8d:pushres.obj
 0003:000373d0       _D3DDevice_RunPushBuffer@8 005084b0 f   d3d8d:pushres.obj
 0003:000379c0       _D3DDevice_CreatePushBuffer2@8 00508aa0 f   d3d8d:pushres.obj
 0003:00037b20       _D3DDevice_BeginPushBuffer@4 00508c00 f   d3d8d:pushres.obj
 0003:00037cd0       _D3DDevice_EndPushBuffer@0 00508db0 f   d3d8d:pushres.obj
 0003:00037e50       _D3DDevice_GetPushBufferOffset@4 00508f30 f   d3d8d:pushres.obj
 0003:00037f60       _D3DPushBuffer_RunPushBuffer@16 00509040 f   d3d8d:pushres.obj
 0003:00038140       _D3DPushBuffer_SetVertexShaderInput@20 00509220 f   d3d8d:pushres.obj
 0003:00038310       _D3DPushBuffer_SetRenderTarget@16 005093f0 f   d3d8d:pushres.obj
 0003:000385e0       _D3DPushBuffer_SetTexture@16 005096c0 f   d3d8d:pushres.obj
 0003:000387d0       _D3DPushBuffer_EndVisibilityTest@12 005098b0 f   d3d8d:pushres.obj
 0003:000388d0       _D3DPushBuffer_Jump@12     005099b0 f   d3d8d:pushres.obj
 0003:00038a24       ?HalMcControlInit@CMiniport@D3D@@AAEXXZ 00509b04 f   d3d8d:mphal.obj
 0003:00038be4       ?HalFbControlInit@CMiniport@D3D@@AAEXXZ 00509cc4 f   d3d8d:mphal.obj
 0003:00038d62       ?HalDacControlInit@CMiniport@D3D@@AAEXXZ 00509e42 f   d3d8d:mphal.obj
 0003:00038e64       ?HalVideoControlInit@CMiniport@D3D@@AAEXXZ 00509f44 f   d3d8d:mphal.obj
 0003:00038ea7       ?HalGrControlInit@CMiniport@D3D@@AAEXXZ 00509f87 f   d3d8d:mphal.obj
 0003:00038ee3       ?HalFifoControlInit@CMiniport@D3D@@AAEXXZ 00509fc3 f   d3d8d:mphal.obj
 0003:00038f70       ?HalGrIdle@CMiniport@D3D@@AAEXXZ 0050a050 f   d3d8d:mphal.obj
 0003:00038fbe       ?HalGrUnloadChannelContext@CMiniport@D3D@@AAEXK@Z 0050a09e f   d3d8d:mphal.obj
 0003:00039009       ?HalFifoContextSwitch@CMiniport@D3D@@AAEXK@Z 0050a0e9 f   d3d8d:mphal.obj
 0003:00039285       ?HalMpControlInit@CMiniport@D3D@@AAEXXZ 0050a365 f   d3d8d:mphal.obj
 0003:000393a3       ?HalDacUnload@CMiniport@D3D@@AAEXXZ 0050a483 f   d3d8d:mphal.obj
 0003:000393bf       ?HalDacLoad@CMiniport@D3D@@AAEXXZ 0050a49f f   d3d8d:mphal.obj
 0003:000393d5       ?HalDacProgramMClk@CMiniport@D3D@@AAEXXZ 0050a4b5 f   d3d8d:mphal.obj
 0003:000395ac       ?HalDacProgramNVClk@CMiniport@D3D@@AAEXXZ 0050a68c f   d3d8d:mphal.obj
 0003:00039756       ?HalDacProgramPClk@CMiniport@D3D@@AAEXXZ 0050a836 f   d3d8d:mphal.obj
 0003:0003983e       ?HalFifoAllocDMA@CMiniport@D3D@@AAEXKKKPAUOBJECTINFO@12@@Z 0050a91e f   d3d8d:mphal.obj
 0003:00039a78       ?HalFifoHashAdd@CMiniport@D3D@@AAEXKKKKK@Z 0050ab58 f   d3d8d:mphal.obj
 0003:00039aeb       ?HalGrInitObjectContext@CMiniport@D3D@@AAEXKK@Z 0050abcb f   d3d8d:mphal.obj
 0003:00039bc0       ?HalGrInit3d@CMiniport@D3D@@AAEXXZ 0050aca0 f   d3d8d:mphal.obj
 0003:0003a865       ?HalGrLoadChannelContext@CMiniport@D3D@@AAEXK@Z 0050b945 f   d3d8d:mphal.obj
 0003:0003a9d0       ?HalFifoControlLoad@CMiniport@D3D@@AAEXXZ 0050bab0 f   d3d8d:mphal.obj
 0003:0003aa71       ?HalGrControlLoad@CMiniport@D3D@@AAEXXZ 0050bb51 f   d3d8d:mphal.obj
 0003:0003b450       ?LazySetCombiners@D3D@@YGKPAVCDevice@1@K@Z 0050c530 f   d3d8d:combiner.obj
 0003:0003bc07       ?ClearStateBlockFlags@D3D@@YGXXZ 0050cce7 f   d3d8d:block.obj
 0003:0003bc89       _D3DDevice_BeginStateBlock@0 0050cd69 f   d3d8d:block.obj
 0003:0003bcd0       _D3DDevice_Suspend@0       0050cdb0 f   d3d8d:block.obj
 0003:0003bcf0       ?SetMaterial@D3DDevice@@SGJPBU_D3DMATERIAL8@@@Z 0050cdd0 f i d3d8d:block.obj
 0003:0003bd10       ?SetBackMaterial@D3DDevice@@SGJPBU_D3DMATERIAL8@@@Z 0050cdf0 f i d3d8d:block.obj
 0003:0003bd30       ?SetLight@D3DDevice@@SGJKPBU_D3DLIGHT8@@@Z 0050ce10 f i d3d8d:block.obj
 0003:0003bd40       ?LightEnable@D3DDevice@@SGJKH@Z 0050ce20 f i d3d8d:block.obj
 0003:0003bd50       ?GetLightEnable@D3DDevice@@SGJKPAH@Z 0050ce30 f i d3d8d:block.obj
 0003:0003bd70       ?SetRenderStateNotInline@D3DDevice@@SGJW4_D3DRENDERSTATETYPE@@K@Z 0050ce50 f i d3d8d:block.obj
 0003:0003bd90       ?SetTextureStageStateNotInline@D3DDevice@@SGJKW4_D3DTEXTURESTAGESTATETYPE@@K@Z 0050ce70 f i d3d8d:block.obj
 0003:0003bdb0       ?DeleteVertexShader@D3DDevice@@SGJK@Z 0050ce90 f i d3d8d:block.obj
 0003:0003bdd0       ?SetIndices@D3DDevice@@SGJPAUD3DIndexBuffer@@I@Z 0050ceb0 f i d3d8d:block.obj
 0003:0003bdf0       ?DeletePixelShader@D3DDevice@@SGJK@Z 0050ced0 f i d3d8d:block.obj
 0003:0003be10       ?SetPixelShaderConstant@D3DDevice@@SGJKPBXK@Z 0050cef0 f i d3d8d:block.obj
 0003:0003be34       ?RecordStateBlock@D3D@@YGJPAK@Z 0050cf14 f   d3d8d:block.obj
 0003:0003c52b       _D3DDevice_ApplyStateBlock@4 0050d60b f   d3d8d:block.obj
 0003:0003c73a       _D3DDevice_CaptureStateBlock@4 0050d81a f   d3d8d:block.obj
 0003:0003caf7       _D3DDevice_DeleteStateBlock@4 0050dbd7 f   d3d8d:block.obj
 0003:0003cbea       _D3DDevice_CreateStateBlock@8 0050dcca f   d3d8d:block.obj
 0003:0003cdfa       _D3DDevice_EndStateBlock@4 0050deda f   d3d8d:block.obj
 0003:0003ce31       _D3DDevice_Resume@4        0050df11 f   d3d8d:block.obj
 0003:0003e680       ??_C@_0EI@OHLADGHJ@AssertContiguous?5?9?5the?5address?5i@ 0050f760     d3d8d:texture.obj
 0003:0003e6d8       ??_C@_0EM@FLMIJNGA@AllocateContiguousMemory?5?9?5inval@ 0050f7b8     d3d8d:texture.obj
 0003:0003e738       ??_C@_0HI@NBOBFCBI@AllocateContiguousMemory?5?9?5addre@ 0050f818     d3d8d:texture.obj
 0003:0003e7c8       ??_C@_0EE@CGPNCKIH@AssertWriteCombined?5?9?5the?5addres@ 0050f8a8     d3d8d:texture.obj
 0003:0003e81c       ??_C@_0DE@EFOBNNFN@AllocateContiguousMemory?5?9?5inval@ 0050f8fc     d3d8d:texture.obj
 0003:0003e85c       ??_C@_0BI@GIBIFBKD@Unexpected?5texture?5type?$AA@ 0050f93c     d3d8d:texture.obj
 0003:0003e878       ??_C@_0DD@KBIOPGPB@D3DTexture_GetSurfaceLevel?5?9?5inv@ 0050f958     d3d8d:texture.obj
 0003:0003e8b8       ??_C@_0DI@NJCBJCLN@D3DVolumeTexture_GetVolumeLevel?5@ 0050f998     d3d8d:texture.obj
 0003:0003e8fc       ?g_PaletteSize@D3D@@3QBHB  0050f9dc     d3d8d:buffer.obj
 0003:0003e910       ??_C@_0EE@EGKAFALK@AssertPhysical?5?9?5the?5address?5is?5@ 0050f9f0     d3d8d:buffer.obj
 0003:0003e964       ??_C@_0DD@NBAEBKBF@Size?5must?5be?5D3DPALETTESIZE_32?0?5@ 0050fa44     d3d8d:buffer.obj
 0003:0003e9a8       ?g_TextureFormat@D3D@@3QBEB 0050fa88     d3d8d:state.obj
 0003:0003e9f8       ?g_LODBias2x@D3D@@3QBMB    0050fad8     d3d8d:state.obj
 0003:0003ea20       ?g_RenderStateEncodings@D3D@@3QBKB 0050fb00     d3d8d:state.obj
 0003:0003ed98       ?g_ComplexRenderStateFunctionTable@D3D@@3QBQ6GXK@ZB 0050fe78     d3d8d:state.obj
 0003:0003ee2c       ??_C@_0DN@OKDDNEBN@g_RenderStateEncodings?$FL2?$CKi?$FN?5?$DN?$DN?5D@ 0050ff0c     d3d8d:state.obj
 0003:0003ee78       ??_C@_0BG@EGGDMOGE@Assertion?5failure?3?5?$CFs?$AA@ 0050ff58     d3d8d:state.obj
 0003:0003ee94       ??_C@_0CF@NPJMGKHL@g_RenderStateEncodings?$FL2?$CKi?5?$CL?51?$FN?5@ 0050ff74     d3d8d:state.obj
 0003:0003eec0       ??_C@_0BB@HKLFMIML@Invalid?5encoding?$AA@ 0050ffa0     d3d8d:state.obj
 0003:0003eed4       ??_C@_0CE@EGDDNIDP@Invalid?5flags?5in?5GetDepthClipPla@ 0050ffb4     d3d8d:state.obj
 0003:0003ef00       ??_C@_0BD@DKGLMDC@pPixels?9?$DOSize?5?$CB?$DN?50?$AA@ 0050ffe0     d3d8d:state.obj
 0003:0003ef18       ??_C@_0DM@KILGBJGB@?$CISTATE_DXTNOISEENABLE?5?$DN?$DN?5TRUE?$CJ?5?$CG@ 0050fff8     d3d8d:state.obj
 0003:0003ef60       ??_C@_0N@BKKEHPBJ@PSDotMapping?$AA@ 00510040     d3d8d:state.obj
 0003:0003ef70       ??_C@_0O@EGJJCFIM@PSCompareMode?$AA@ 00510050     d3d8d:state.obj
 0003:0003ef80       ??_C@_0BA@HDBNOFKC@PSCombinerCount?$AA@ 00510060     d3d8d:state.obj
 0003:0003ef94       ??_C@_0P@LFHGHIGA@PSInputTexture?$AA@ 00510074     d3d8d:state.obj
 0003:0003efa8       ??_C@_0P@OEHPOPHG@PSTextureModes?$AA@ 00510088     d3d8d:state.obj
 0003:0003efbc       ??_C@_0BJ@NDANDFLP@PSFinalCombinerInputsEFG?$AA@ 0051009c     d3d8d:state.obj
 0003:0003efe0       ??_C@_0EO@NDFLPMKH@Can?8t?5set?5final?5combiner?5render?5@ 005100c0     d3d8d:state.obj
 0003:0003f040       ??_C@_0BK@LCPDLAGC@PSFinalCombinerInputsABCD?$AA@ 00510120     d3d8d:state.obj
 0003:0003f060       ??_C@_0O@ONDCINOK@PSRGBOutputs7?$AA@ 00510140     d3d8d:state.obj
 0003:0003f070       ??_C@_0O@PECJLMKL@PSRGBOutputs6?$AA@ 00510150     d3d8d:state.obj
 0003:0003f080       ??_C@_0O@NPAEOPGI@PSRGBOutputs5?$AA@ 00510160     d3d8d:state.obj
 0003:0003f090       ??_C@_0O@MGBPNOCJ@PSRGBOutputs4?$AA@ 00510170     d3d8d:state.obj
 0003:0003f0a0       ??_C@_0O@IJFOEIOO@PSRGBOutputs3?$AA@ 00510180     d3d8d:state.obj
 0003:0003f0b0       ??_C@_0O@JAEFHJKP@PSRGBOutputs2?$AA@ 00510190     d3d8d:state.obj
 0003:0003f0c0       ??_C@_0O@LLGICKGM@PSRGBOutputs1?$AA@ 005101a0     d3d8d:state.obj
 0003:0003f0d0       ??_C@_0O@KCHDBLCN@PSRGBOutputs0?$AA@ 005101b0     d3d8d:state.obj
 0003:0003f0e0       ??_C@_0BA@BJDPJKPC@PSAlphaOutputs7?$AA@ 005101c0     d3d8d:state.obj
 0003:0003f0f4       ??_C@_0BA@CEKLLD@PSAlphaOutputs6?$AA@ 005101d4     d3d8d:state.obj
 0003:0003f108       ??_C@_0BA@CLAJPIHA@PSAlphaOutputs5?$AA@ 005101e8     d3d8d:state.obj
 0003:0003f11c       ??_C@_0BA@DCBCMJDB@PSAlphaOutputs4?$AA@ 005101fc     d3d8d:state.obj
 0003:0003f130       ??_C@_0BA@HNFDFPPG@PSAlphaOutputs3?$AA@ 00510210     d3d8d:state.obj
 0003:0003f144       ??_C@_0BA@GEEIGOLH@PSAlphaOutputs2?$AA@ 00510224     d3d8d:state.obj
 0003:0003f158       ??_C@_0BA@EPGFDNHE@PSAlphaOutputs1?$AA@ 00510238     d3d8d:state.obj
 0003:0003f16c       ??_C@_0BA@FGHOAMDF@PSAlphaOutputs0?$AA@ 0051024c     d3d8d:state.obj
 0003:0003f180       ??_C@_0N@OLJCJILL@PSRGBInputs7?$AA@ 00510260     d3d8d:state.obj
 0003:0003f190       ??_C@_0N@PCIJKJPK@PSRGBInputs6?$AA@ 00510270     d3d8d:state.obj
 0003:0003f1a0       ??_C@_0N@NJKEPKDJ@PSRGBInputs5?$AA@ 00510280     d3d8d:state.obj
 0003:0003f1b0       ??_C@_0N@MALPMLHI@PSRGBInputs4?$AA@ 00510290     d3d8d:state.obj
 0003:0003f1c0       ??_C@_0N@IPPOFNLP@PSRGBInputs3?$AA@ 005102a0     d3d8d:state.obj
 0003:0003f1d0       ??_C@_0N@JGOFGMPO@PSRGBInputs2?$AA@ 005102b0     d3d8d:state.obj
 0003:0003f1e0       ??_C@_0N@LNMIDPDN@PSRGBInputs1?$AA@ 005102c0     d3d8d:state.obj
 0003:0003f1f0       ??_C@_0N@KENDAOHM@PSRGBInputs0?$AA@ 005102d0     d3d8d:state.obj
 0003:0003f200       ??_C@_0P@DCDANBKN@PSAlphaInputs7?$AA@ 005102e0     d3d8d:state.obj
 0003:0003f214       ??_C@_0P@CLCLOAOM@PSAlphaInputs6?$AA@ 005102f4     d3d8d:state.obj
 0003:0003f228       ??_C@_0P@GLDCP@PSAlphaInputs5?$AA@ 00510308     d3d8d:state.obj
 0003:0003f23c       ??_C@_0P@BJBNICGO@PSAlphaInputs4?$AA@ 0051031c     d3d8d:state.obj
 0003:0003f250       ??_C@_0P@FGFMBEKJ@PSAlphaInputs3?$AA@ 00510330     d3d8d:state.obj
 0003:0003f264       ??_C@_0P@EPEHCFOI@PSAlphaInputs2?$AA@ 00510344     d3d8d:state.obj
 0003:0003f278       ??_C@_0P@GEGKHGCL@PSAlphaInputs1?$AA@ 00510358     d3d8d:state.obj
 0003:0003f28c       ??_C@_0P@HNHBEHGK@PSAlphaInputs0?$AA@ 0051036c     d3d8d:state.obj
 0003:0003f2a0       ??_C@_0BF@IOJALANB@Invalid?5D3DMCS?5value?$AA@ 00510380     d3d8d:state.obj
 0003:0003f2bc       ??_C@_0BD@BCLHIBIA@Invalid?5WRAP?5value?$AA@ 0051039c     d3d8d:state.obj
 0003:0003f2d4       ??_C@_0P@PMOIKDMN@Invalid?5value?4?$AA@ 005103b4     d3d8d:state.obj
 0003:0003f2e8       ??_C@_0CB@IPLPLLMN@Invalid?5D3DMULTISAMPLEMODE?5value@ 005103c8     d3d8d:state.obj
 0003:0003f310       ??_C@_0CE@OJGBOCIC@Invalid?5presentation?5interval?5va@ 005103f0     d3d8d:state.obj
 0003:0003f33c       ??_C@_0O@INPNLMJE@Invalid?5value?$AA@ 0051041c     d3d8d:state.obj
 0003:0003f34c       ??_C@_0BK@PLLMBFGO@Invalid?5render?5state?5type?$AA@ 0051042c     d3d8d:state.obj
 0003:0003f36c       ??_C@_0BD@PIGPNLGN@Unexpected?5texgen?6?$AA@ 0051044c     d3d8d:state.obj
 0003:0003f384       ??_C@_0CN@NEALJFCJ@Index?5can?8t?5be?5D3DDP_MAXTEXCOORD@ 00510464     d3d8d:state.obj
 0003:0003f3c0       ??_C@_0EB@HBAJGNMD@?$CIType?5?$DO?$DN?5D3DTSS_BUMPENVMAT00?$CJ?5?$CG?$CG@ 005104a0     d3d8d:state.obj
 0003:0003f410       ??_C@_0CF@FPIOJFLH@Invalid?5texture?5stage?5or?5state?5i@ 005104f0     d3d8d:state.obj
 0003:0003f43c       ??_C@_0P@GPOPBBKB@Invalid?5texgen?$AA@ 0051051c     d3d8d:state.obj
 0003:0003f450       ??_C@_0CE@KBJDPFGK@Texture?5coordinate?5index?5is?5too?5@ 00510530     d3d8d:state.obj
 0003:0003f47c       ??_C@_0CA@KDDICLNA@Invalid?5D3DTSS_ALPHAKILL?5value?4?$AA@ 0051055c     d3d8d:state.obj
 0003:0003f4a4       ??_C@_0CA@OPFJBBOJ@Invalid?5D3DTSS_COLORSIGN?5value?4?$AA@ 00510584     d3d8d:state.obj
 0003:0003f4cc       ??_C@_0CB@BGFJPOGD@Invalid?5D3DTSS_COLORKEYOP?5value?4@ 005105ac     d3d8d:state.obj
 0003:0003f4f4       ??_C@_0DA@GABIGGMI@Invalid?5flags?5for?5D3DTSS_TEXTURE@ 005105d4     d3d8d:state.obj
 0003:0003f530       ??_C@_0DL@CGGCGIGE@Invalid?5coordinate?5count?5for?5D3D@ 00510610     d3d8d:state.obj
 0003:0003f578       ??_C@_0CB@HBKCELHB@Must?5be?5in?5the?5range?5?$FL?98?40?0?58?40?$FN@ 00510658     d3d8d:state.obj
 0003:0003f5a0       ??_C@_0BL@PMMMPNOA@Maximum?5MAXANISOTROPY?5is?54?$AA@ 00510680     d3d8d:state.obj
 0003:0003f5c0       ??_C@_0CA@FEAMMKBA@Invalid?5D3DTSS_MIPFILTER?5value?4?$AA@ 005106a0     d3d8d:state.obj
 0003:0003f5e8       ??_C@_0DB@CLPLJBIN@Invalid?5D3DTSS_MAGFILTER?1D3DTSS_@ 005106c8     d3d8d:state.obj
 0003:0003f624       ??_C@_0CC@GMKHPODH@Invalid?5value?5for?5D3DTSS_ADRESSx@ 00510704     d3d8d:state.obj
 0003:0003f64c       ??_C@_0DI@BMLLJIFL@Invalid?5modifier?5for?5D3DTSS_COLO@ 0051072c     d3d8d:state.obj
 0003:0003f690       ??_C@_0DO@JKHECHEN@Invalid?5value?5selector?5for?5D3DTS@ 00510770     d3d8d:state.obj
 0003:0003f6dc       ??_C@_0CJ@KLHFEHCL@Invalid?5value?5for?5D3DTSS_COLOROP@ 005107bc     d3d8d:state.obj
 0003:0003f710       ??_C@_0GF@PFMMBFKA@?$CIValue?5?$DM?5D3DTOP_BUMPENVMAP?$CJ?5?$HM?$HM?5?$CI@ 005107f0     d3d8d:state.obj
 0003:0003f790       ??_C@_0FA@BJGDLMCH@?$CIsetSurfaceFormat?5?$CG?5DRF_NUM?$CI097?0@ 00510870     d3d8d:state.obj
 0003:0003f7f0       ??_C@_0CE@LMBJOONH@Invalid?5flags?5in?5SetDepthClipPla@ 005108d0     d3d8d:state.obj
 0003:0003f81c       ?g_DefaultViewport@D3D@@3U_D3DVIEWPORT8@@B 005108fc     d3d8d:d3dbase.obj
 0003:0003f850       ?g_TilePitches@D3D@@3QBKB  00510930     d3d8d:d3dbase.obj
 0003:0003f8cc       ?g_TransformDirtyTable@D3D@@3QBKB 005109ac     d3d8d:d3dbase.obj
 0003:0003f8fc       ??_C@_0CK@BIIOPDAE@ColorFormat?5?$DO?5D3DCOPYRECT_COLOR_@ 005109dc     d3d8d:d3dbase.obj
 0003:0003f930       ??_C@_0GC@KIGLIGGF@D3DDevice_SetCopyRectsState?3?5Inv@ 00510a10     d3d8d:d3dbase.obj
 0003:0003f9a8       ??_C@_0EN@PDKOOPNP@D3DDevice_SetCopyRectsState?3?5Inv@ 00510a88     d3d8d:d3dbase.obj
 0003:0003fa08       ??_C@_0FF@GDMHDGJH@D3DDevice_SetCopyRectsState?3?5COL@ 00510ae8     d3d8d:d3dbase.obj
 0003:0003fa70       ??_C@_0CN@HNMIFCML@SetupCopyRectRopState?5?9?5Invalid?5@ 00510b50     d3d8d:d3dbase.obj
 0003:0003faa8       ??_C@_0BA@LNOHFKPL@Invalid?5pointer?$AA@ 00510b88     d3d8d:d3dbase.obj
 0003:0003fabc       ??_C@_0CL@EEDLNMID@Invalid?5state?5value?5passed?5to?5Ge@ 00510b9c     d3d8d:d3dbase.obj
 0003:0003faf0       ??_C@_0BJ@PBGAKELP@Invalid?5viewport?5pointer?$AA@ 00510bd0     d3d8d:d3dbase.obj
 0003:0003fb10       ??_C@_0BG@HDOFAKAB@Null?5material?5pointer?$AA@ 00510bf0     d3d8d:d3dbase.obj
 0003:0003fb2c       ??_C@_0CH@GCDAINLO@Attenuation?5factor?5can?5not?5be?5ne@ 00510c0c     d3d8d:d3dbase.obj
 0003:0003fb5c       ??_C@_0CN@MDBCCCE@Invalid?5D3DLIGHT?5Theta?5angle?0?5mu@ 00510c3c     d3d8d:d3dbase.obj
 0003:0003fb94       ??_C@_0CL@GNOLMIFF@Invalid?5D3DLIGHT?5Theta?5angle?0?5mu@ 00510c74     d3d8d:d3dbase.obj
 0003:0003fbc8       ??_C@_0CK@OKOJOJIK@Invalid?5D3DLIGHT?5Phi?5angle?0?5must@ 00510ca8     d3d8d:d3dbase.obj
 0003:0003fbfc       ??_C@_0CJ@ICHJHGBN@Invalid?5D3DLIGHT?5Phi?5angle?0?5must@ 00510cdc     d3d8d:d3dbase.obj
 0003:0003fc30       ??_C@_0BL@BEDBCGJM@Invalid?5D3DLIGHT?5direction?$AA@ 00510d10     d3d8d:d3dbase.obj
 0003:0003fc50       ??_C@_0CI@OCGKODFH@Attenuation?5factors?5can?5not?5all?5@ 00510d30     d3d8d:d3dbase.obj
 0003:0003fc80       ??_C@_0BH@JEDGFDIO@Invalid?5D3DLIGHT?5range?$AA@ 00510d60     d3d8d:d3dbase.obj
 0003:0003fc9c       ??_C@_0BG@FBNDPJHG@Invalid?5D3DLIGHT?5type?$AA@ 00510d7c     d3d8d:d3dbase.obj
 0003:0003fcb8       ??_C@_0BE@FMEJEIBG@Invalid?5light?5index?$AA@ 00510d98     d3d8d:d3dbase.obj
 0003:0003fcd0       ??_C@_0BG@HDJBIOEA@Invalid?5light?5pointer?$AA@ 00510db0     d3d8d:d3dbase.obj
 0003:0003fcec       ??_C@_0CO@KLPFIHMJ@EndVisibilityTest?5wasn?8t?5called?5@ 00510dcc     d3d8d:d3dbase.obj
 0003:0003fd28       ??_C@_0EB@OKAKGGLO@Can?8t?5call?5GetVisibilityTestResu@ 00510e08     d3d8d:d3dbase.obj
 0003:0003fd78       ??_C@_0EA@CCFCEIIK@EndVisibilityTest?5wasn?8t?5called?5@ 00510e58     d3d8d:d3dbase.obj
 0003:0003fdc4       ??_C@_0CP@NELNLJGH@Index?5must?5be?5less?5than?5D3DVISIB@ 00510ea4     d3d8d:d3dbase.obj
 0003:0003fdfc       ??_C@_0CD@CKPJCALM@Can?8t?5request?5more?5than?54?5matric@ 00510edc     d3d8d:d3dbase.obj
 0003:0003fe28       ??_C@_0DJ@BLOBMCKA@Can?8t?5set?5any?5tile?5index?5of?5D3DT@ 00510f08     d3d8d:d3dbase.obj
 0003:0003fe6c       ??_C@_0CD@BEIBKFJB@Device?5hasn?8t?5been?5initialized?5y@ 00510f4c     d3d8d:d3dbase.obj
 0003:0003fe98       ??_C@_0DF@JBMCGCCG@D3DDevice_SetFlickerFilter?5?9?5Bad@ 00510f78     d3d8d:d3dbase.obj
 0003:0003fed8       ??_C@_0BL@HKLOKFID@?$CBIsChildSurface?$CIpResource?$CJ?$AA@ 00510fb8     d3d8d:d3dbase.obj
 0003:0003fef8       ??_C@_0EP@DMFAPOFM@?$CIpResource?9?$DOCommon?5?$CG?5D3DCOMMON_I@ 00510fd8     d3d8d:d3dbase.obj
 0003:0003ff58       ??_C@_0DG@FIELPDEH@?$CIpResource?9?$DOCommon?5?$CG?5D3DCOMMON_I@ 00511038     d3d8d:d3dbase.obj
 0003:0003ff98       ??_C@_0BP@DMJHDIIM@PixelJar?3?3IsSurface?$CIpResource?$CJ?$AA@ 00511078     d3d8d:d3dbase.obj
 0003:0003ffc0       ??_C@_0DE@PADKIGGK@Failed?5to?5recreate?5frame?5and?5bac@ 005110a0     d3d8d:d3dbase.obj
 0003:00040000       ??_C@_0DO@PJICGGFF@The?5depth?5buffer?5must?5be?5at?5leas@ 005110e0     d3d8d:d3dbase.obj
 0003:0004004c       ??_C@_0DA@MHJLIGBF@The?5data?5for?5a?5ZBuffer?5must?5be?56@ 0051112c     d3d8d:d3dbase.obj
 0003:00040088       ??_C@_0BN@PCBCABKJ@Invalid?5depth?5buffer?5format?4?$AA@ 00511168     d3d8d:d3dbase.obj
 0003:000400b0       ??_C@_0GA@GECGFJO@A?5swizzled?5render?5target?5require@ 00511190     d3d8d:d3dbase.obj
 0003:00040124       ??_C@_0DE@PEPIFMIA@A?5swizzled?5depth?5buffer?5can?8t?5be@ 00511204     d3d8d:d3dbase.obj
 0003:00040168       ??_C@_0EF@OOBBOPKA@A?5render?5target?5that?5is?5only?51?5p@ 00511248     d3d8d:d3dbase.obj
 0003:000401c0       ??_C@_0FE@EJIIDILB@An?5ZBuffer?5requires?5a?5pitch?5that@ 005112a0     d3d8d:d3dbase.obj
 0003:00040228       ??_C@_0FK@CIFCGBEG@A?5swizzled?5render?5target?5needs?5a@ 00511308     d3d8d:d3dbase.obj
 0003:00040298       ??_C@_0GF@GILJPEEJ@An?5unswizzled?5render?5target?5requ@ 00511378     d3d8d:d3dbase.obj
 0003:00040314       ??_C@_0CM@EEOOFGJO@The?5render?5target?5can?5be?5at?5most@ 005113f4     d3d8d:d3dbase.obj
 0003:00040348       ??_C@_0DG@LPPPKCEN@The?5data?5for?5a?5render?5target?5mus@ 00511428     d3d8d:d3dbase.obj
 0003:00040388       ??_C@_0DF@HLFNAHLF@ZStencil?5not?5a?5true?5surface?5?$CID3D@ 00511468     d3d8d:d3dbase.obj
 0003:000403c8       ??_C@_0DK@ECJNBPIB@Render?5target?5not?5a?5true?5surface@ 005114a8     d3d8d:d3dbase.obj
 0003:00040410       ??_C@_0BO@KHAIKCHJ@Invalid?5render?5target?5format?4?$AA@ 005114f0     d3d8d:d3dbase.obj
 0003:00040434       ??_C@_0CH@GABFPKOD@Z?9buffer?5pitch?5doesn?8t?5match?5las@ 00511514     d3d8d:d3dbase.obj
 0003:00040464       ??_C@_0CH@JCLOPEBF@Z?9buffer?5depth?5doesn?8t?5match?5las@ 00511544     d3d8d:d3dbase.obj
 0003:00040494       ??_C@_0DM@IGGFFHGO@Color?5pitch?5doesn?8t?5match?5betwee@ 00511574     d3d8d:d3dbase.obj
 0003:000404e0       ??_C@_0ED@NDJOJBG@Effective?5dimensions?5don?8t?5match@ 005115c0     d3d8d:d3dbase.obj
 0003:00040530       ??_C@_0EC@MANAECOM@Multi?9sample?5mode?5doesn?8t?5match?5@ 00511610     d3d8d:d3dbase.obj
 0003:00040580       ??_C@_0BA@HFACJEBB@Flags?5must?5be?50?$AA@ 00511660     d3d8d:d3dbase.obj
 0003:00040594       ??_C@_0O@NLNDHMII@Invalid?5index?$AA@ 00511674     d3d8d:d3dbase.obj
 0003:000405a4       ??_C@_0BN@FHPKPOGM@BackBuffer?5index?5is?5too?5big?4?$AA@ 00511684     d3d8d:d3dbase.obj
 0003:000405c8       ??_C@_0DM@MMEELIMP@D3DDevice_SetCopyRectsState?5?9?5In@ 005116a8     d3d8d:d3dbase.obj
 0003:00040610       ??_C@_0FF@KKFDPOG@D3DDevice_SetCopyRectsState?5?9?5Co@ 005116f0     d3d8d:d3dbase.obj
 0003:00040678       ??_C@_0DF@LIOAEBMF@D3DDevice_SetCopyRectsState?5?9?5Ba@ 00511758     d3d8d:d3dbase.obj
 0003:000406b8       ??_C@_0HP@EBLGDFII@D3DDevice_CopyRects?5?9?5The?5source@ 00511798     d3d8d:d3dbase.obj
 0003:00040750       ??_C@_0FH@CODEFHIO@D3DDevice_CopyRects?5?9?5CopyRects?5@ 00511830     d3d8d:d3dbase.obj
 0003:000407b8       ??_C@_0GG@GNAOGEFA@D3DDevice_CopyRects?5?9?5The?5destin@ 00511898     d3d8d:d3dbase.obj
 0003:00040838       ??_C@_0FM@GJKGGMMJ@D3DDevice_CopyRects?5?9?5The?5source@ 00511918     d3d8d:d3dbase.obj
 0003:000408a8       ??_C@_0GE@BHMDBADO@D3DDevice_CopyRects?5?9?5Malformed?5@ 00511988     d3d8d:d3dbase.obj
 0003:00040920       ??_C@_0CG@ENOBOHEA@DestPitch?5?$CF?564?5?$DN?$DN?50?5?$CG?$CG?5DestPitch@ 00511a00     d3d8d:d3dbase.obj
 0003:00040950       ??_C@_0EB@PMHHDFDE@SourcePitch?5?$CF?564?5?$DN?$DN?50?5?$CG?$CG?5SourceP@ 00511a30     d3d8d:d3dbase.obj
 0003:000409a0       ??_C@_0EP@IHHMGLHO@D3DDevice_CopyRects?5?9?5pixel?5size@ 00511a80     d3d8d:d3dbase.obj
 0003:00040a00       ??_C@_0CI@NCMGMIBL@GPUCopyVideoRectangle?5?9?5Bad?5pixe@ 00511ae0     d3d8d:d3dbase.obj
 0003:00040a30       ??_C@_0DK@KFFPCAIL@pDevice?9?$DOm_CopyRectState?4Operati@ 00511b10     d3d8d:d3dbase.obj
 0003:00040a78       ??_C@_0EF@OGKCPAKM@?$CISwizzledColumns?5?1?5BytesPerPixel@ 00511b58     d3d8d:d3dbase.obj
 0003:00040acc       ??_C@_0BC@KPIJMIHK@Slice?5?$CF?54096?5?$DN?$DN?50?$AA@ 00511bac     d3d8d:d3dbase.obj
 0003:00040ae8       ??_C@_0GA@LIAHHAAP@D3DDevice_CopyRects?5?9?5Swizzled?5s@ 00511bc8     d3d8d:d3dbase.obj
 0003:00040b60       ??_C@_0FK@GHHHPFMK@D3DDevice_CopyRects?5?9?5Must?5use?5D@ 00511c40     d3d8d:d3dbase.obj
 0003:00040bd0       ??_C@_0GA@LCMKLGLA@D3DDevice_CopyRects?5?9?5CopyRects?5@ 00511cb0     d3d8d:d3dbase.obj
 0003:00040c48       ??_C@_0FO@MPDLHAIK@D3DDevice_CopyRects?5?9?5The?5source@ 00511d28     d3d8d:d3dbase.obj
 0003:00040cb8       ??_C@_0GB@OMHGKLEC@D3DDevice_CopyRects?5?9?5The?5source@ 00511d98     d3d8d:d3dbase.obj
 0003:00040d2c       ??_C@_0CA@MMLDCKEP@This?5warning?5is?5shown?5only?5once?$AA@ 00511e0c     d3d8d:d3dbase.obj
 0003:00040d54       ??_C@_0CF@OBCIJMKB@Setting?5wNear?5to?50?40?5and?5wFar?5to@ 00511e34     d3d8d:d3dbase.obj
 0003:00040d80       ??_C@_0EC@GFJANJAL@Cannot?5compute?5WNear?5and?5WFar?5fr@ 00511e60     d3d8d:d3dbase.obj
 0003:00040dd0       ??_C@_0FA@EFJEAGBO@SetTransform?5called?5while?5Set?$FLVe@ 00511eb0     d3d8d:d3dbase.obj
 0003:00040e30       ??_C@_0CL@DAIFBAMP@Invalid?5state?5value?5passed?5to?5Se@ 00511f10     d3d8d:d3dbase.obj
 0003:00040e64       ??_C@_0DA@PNLHFJBO@Invalid?5state?5value?5passed?5to?5Mu@ 00511f44     d3d8d:d3dbase.obj
 0003:00040ea0       ??_C@_0HB@CIGOLOME@Invalid?5effective?5clip?5dimension@ 00511f80     d3d8d:d3dbase.obj
 0003:00040f28       ??_C@_0CJ@GAOKIIGN@pDevice?9?$DOm_EnabledLights?$FLslot?$FN?5?$DN@ 00512008     d3d8d:d3dbase.obj
 0003:00040f5c       ??_C@_0BO@BMCDLNNO@Light?5index?5is?5more?5than?54095?$AA@ 0051203c     d3d8d:d3dbase.obj
 0003:00040f80       ??_C@_0CH@DLPIAKHA@pDevice?9?$DOm_EnabledLights?$FLslot?$FN?5?$DN@ 00512060     d3d8d:d3dbase.obj
 0003:00040fb0       ??_C@_0CP@JANEOOMK@Can?8t?5enable?5more?5than?58?5lights?5@ 00512090     d3d8d:d3dbase.obj
 0003:00040fe8       ??_C@_0CK@IBGHACCA@D3DDevice_GetTexture?5?9?5Bad?5textu@ 005120c8     d3d8d:d3dbase.obj
 0003:0004101c       ??_C@_0BC@CGILGCKN@pPrevious?5?$CB?$DN?5NULL?$AA@ 005120fc     d3d8d:d3dbase.obj
 0003:00041038       ??_C@_0EF@LCCGGOGK@D3DDevice_SetTexture?5?9?5a?5non?9top@ 00512118     d3d8d:d3dbase.obj
 0003:0004108c       ??_C@_0CK@ONLEHGOD@D3DDevice_SetTexture?5?9?5Bad?5textu@ 0051216c     d3d8d:d3dbase.obj
 0003:000410c0       ??_C@_0EB@OGFFOHME@Cubemap?9ness?5and?5dimensionality?5@ 005121a0     d3d8d:d3dbase.obj
 0003:00041110       ??_C@_0CP@HINPDHIC@Can?8t?5call?5SwitchTexture?5with?5a?5@ 005121f0     d3d8d:d3dbase.obj
 0003:00041148       ??_C@_0EK@LPAENDJC@Can?8t?5call?5SwitchTexture?5when?5pr@ 00512228     d3d8d:d3dbase.obj
 0003:000411a0       ??_C@_0BO@HMIMPPGP@Invalid?5texture?5unit?5encoding?$AA@ 00512280     d3d8d:d3dbase.obj
 0003:000411c4       ??_C@_0CK@LHBCGLCE@D3DDevice_GetPalette?5?9?5Bad?5textu@ 005122a4     d3d8d:d3dbase.obj
 0003:000411f8       ??_C@_0BL@FJGAAONL@?$CIpPalette?9?$DOData?5?$CG?563?$CJ?5?$DN?$DN?50?$AA@ 005122d8     d3d8d:d3dbase.obj
 0003:00041218       ??_C@_0HO@MANHJAAC@contextAndLength?5?$DM?$DN?5?$CIDRF_DEF?$CI097@ 005122f8     d3d8d:d3dbase.obj
 0003:000412b0       ??_C@_0BM@ODPAPOKG@?$CIcontextAndLength?5?$CG?52?$CJ?5?$DN?$DN?50?$AA@ 00512390     d3d8d:d3dbase.obj
 0003:000412d4       ??_C@_0BD@NICFPLMF@Bad?5texture?5stage?4?$AA@ 005123b4     d3d8d:d3dbase.obj
 0003:000412f0       ??_C@_0EB@GJJGKIOO@Can?8t?5set?5non?9zero?5BaseVertexInd@ 005123d0     d3d8d:d3dbase.obj
 0003:00041340       ??_C@_0EB@HOKCBCEC@The?5previous?5visibility?5test?5for@ 00512420     d3d8d:d3dbase.obj
 0003:00041390       ??_C@_0DA@KMEPJIEH@Possible?5deadlock?0?5blocked?5for?5m@ 00512470     d3d8d:d3dbase.obj
 0003:000413d0       ??_C@_0EG@LBCLGGOC@Can?5call?5SetVertexBlendModelView@ 005124b0     d3d8d:d3dbase.obj
 0003:00041424       ??_C@_0DD@IFBPKNJE@SetModelView?5will?5nuke?5negative?5@ 00512504     d3d8d:d3dbase.obj
 0003:00041464       ??_C@_0CF@FJMACPDA@All?5pointers?5must?5be?5NULL?5to?5dis@ 00512544     d3d8d:d3dbase.obj
 0003:00041490       ??_C@_0EF@HBNKGCJP@Can?5call?5SetVertexBlendModelView@ 00512570     d3d8d:d3dbase.obj
 0003:000414e4       ??_C@_0BD@LAPMJLFG@Count?5out?5of?5range?$AA@ 005125c4     d3d8d:d3dbase.obj
 0003:000414fc       ??_C@_0DP@LFIOOEKG@SetVertexBlendModelViews?5will?5nu@ 005125dc     d3d8d:d3dbase.obj
 0003:00041548       ??_C@_0DF@COPGFAOJ@Z?5tag?5range?5overlaps?5with?5a?5tag?5@ 00512628     d3d8d:d3dbase.obj
 0003:00041588       ??_C@_0HN@FFFBHINJ@ZOffset?5can?5only?5be?5used?5for?5the@ 00512668     d3d8d:d3dbase.obj
 0003:00041620       ??_C@_0DG@LEFBDLNA@ZOffset?5must?5be?5a?5multiple?5of?5D3@ 00512700     d3d8d:d3dbase.obj
 0003:00041660       ??_C@_0DA@LBLFIHDA@ZStart?5can?8t?5be?5D3DTILE_MAXTAGS?5@ 00512740     d3d8d:d3dbase.obj
 0003:0004169c       ??_C@_0CE@ENAMOHH@ZStartTag?5must?5be?5a?5multiple?5of?5@ 0051277c     d3d8d:d3dbase.obj
 0003:000416c8       ??_C@_0CM@BKBOFFID@Pitch?5must?5be?5a?5valid?5D3DTILE_PI@ 005127a8     d3d8d:d3dbase.obj
 0003:000416fc       ??_C@_0DD@BHFEPAKL@Size?5must?5be?5a?5multiple?5of?5D3DTI@ 005127dc     d3d8d:d3dbase.obj
 0003:0004173c       ??_C@_0DG@HNJOMBKP@pMemory?5must?5be?5a?5multiple?5of?5D3@ 0051281c     d3d8d:d3dbase.obj
 0003:0004177c       ??_C@_0CK@EPFNIFIO@Size?5can?8t?5be?5zero?5if?5pMemory?5is@ 0051285c     d3d8d:d3dbase.obj
 0003:000417b0       ??_C@_0O@IAEHGFJM@Invalid?5Flags?$AA@ 00512890     d3d8d:d3dbase.obj
 0003:000417c0       ??_C@_0DN@HFKFEDMF@Tile?5already?5in?5use?5?9?5set?5to?5NUL@ 005128a0     d3d8d:d3dbase.obj
 0003:0004180c       ??_C@_0DB@LNJOFNJP@GPU?5should?5be?5idle?5for?5SetTileCo@ 005128ec     d3d8d:d3dbase.obj
 0003:00041848       ??_C@_0BP@FNJAKKCJ@Address?5?$CL?5Count?5must?5be?5?$DM?$DN?5600?$AA@ 00512928     d3d8d:d3dbase.obj
 0003:00041870       ??_C@_0BI@KLEIEAMC@Partition?5must?5be?50?5?9?53?$AA@ 00512950     d3d8d:d3dbase.obj
 0003:0004188c       ??_C@_0DB@DNFIJADJ@GPU?5should?5be?5idle?5for?5GetTileCo@ 0051296c     d3d8d:d3dbase.obj
 0003:000418c8       ??_C@_0CH@NCBAEHEI@ZEndTag?5must?5be?5greater?5than?5ZSt@ 005129a8     d3d8d:d3dbase.obj
 0003:000418f8       ??_C@_0DG@MIPMPPHJ@ZEndTag?5can?8t?5be?5greater?5than?5D3@ 005129d8     d3d8d:d3dbase.obj
 0003:00041938       ??_C@_0CC@OBKGFBDB@ZEndTag?5must?5be?5a?5multiple?5of?525@ 00512a18     d3d8d:d3dbase.obj
 0003:00041960       ??_C@_0FD@PADENIAL@?$CIx?5?$CL?5width?5?$DM?$DN?5pDevice?9?$DOm_Surface@ 00512a40     d3d8d:d3dbase.obj
 0003:000419c4       ??_C@_0DI@CPCPFFPC@SetScissors?5rectangle?5dimension?5@ 00512aa4     d3d8d:d3dbase.obj
 0003:00041a08       ??_C@_0CJ@FCJJNMJM@pRects?5can?5be?5NULL?5only?5if?5Count@ 00512ae8     d3d8d:d3dbase.obj
 0003:00041a3c       ??_C@_0BI@LEDFOGCN@Invalid?5Exclusive?5value?$AA@ 00512b1c     d3d8d:d3dbase.obj
 0003:00041a58       ??_C@_0CN@CMHODFHI@Count?5can?8t?5be?5more?5than?5D3DSCIS@ 00512b38     d3d8d:d3dbase.obj
 0003:00041a90       ??_C@_0BF@JMIIBPPG@?$CB?$CI?$CIcount?5?9?515?$CJ?5?$CF?516?$CJ?$AA@ 00512b70     d3d8d:drawprim.obj
 0003:00041aac       ??_C@_0BB@NKMDADPJ@count?5?$DO?$DN?515?5?$CL?516?$AA@ 00512b8c     d3d8d:drawprim.obj
 0003:00041ac0       ??_C@_0CI@OOIBOIP@?$CB?$CIm_StateFlags?5?$CG?5STATE_BEGINENDB@ 00512ba0     d3d8d:drawprim.obj
 0003:00041af0       ??_C@_0CH@GLFHGJNH@?$CB?$CIstateFlags?5?$CG?5STATE_RECORDPUSHB@ 00512bd0     d3d8d:drawprim.obj
 0003:00041b20       ??_C@_0CF@PLJGOBKI@m_StateFlags?5?$CG?5STATE_BEGINENDBRA@ 00512c00     d3d8d:drawprim.obj
 0003:00041b50       ??_C@_0IC@BPLOBEMA@Vertex?5or?5index?5data?5for?5this?5ca@ 00512c30     d3d8d:drawprim.obj
 0003:00041bec       ??_C@_0BK@BBDNHEJI@?$CIcount?$CJ?5?$CG?$CG?5?$CIcount?5?$DM?52048?$CJ?$AA@ 00512ccc     d3d8d:drawprim.obj
 0003:00041c0c       ??_C@_0DD@EEGLELPJ@DWORD?5alignment?5is?5required?5for?5@ 00512cec     d3d8d:drawprim.obj
 0003:00041c4c       ??_C@_0DD@BBBPALEC@DWORD?5alignment?5is?5required?5for?5@ 00512d2c     d3d8d:drawprim.obj
 0003:00041c8c       ??_C@_0N@KGACPIIJ@NULL?5pointer?$AA@ 00512d6c     d3d8d:drawprim.obj
 0003:00041c9c       ??_C@_0P@CKJLCCHP@Invalid?5stride?$AA@ 00512d7c     d3d8d:drawprim.obj
 0003:00041cb0       ??_C@_0BH@HJMOEJID@Invalid?5primitive?5type?$AA@ 00512d90     d3d8d:drawprim.obj
 0003:00041ccc       ??_C@_0BB@OHDBMGEF@Zero?5VertexCount?$AA@ 00512dac     d3d8d:drawprim.obj
 0003:00041ce0       ??_C@_0EH@HLODDIAD@W?5buffering?5is?5not?5supported?5wit@ 00512dc0     d3d8d:drawprim.obj
 0003:00041d38       ??_C@_0DH@MKEBHOIH@Can?5only?5do?5D3DPT_POINTLIST?5when@ 00512e18     d3d8d:drawprim.obj
 0003:00041d7c       ??_C@_0BB@BJHAFOLB@VertexCount?5?$DO?$DN?51?$AA@ 00512e5c     d3d8d:drawprim.obj
 0003:00041d90       ??_C@_0BF@KHOMBPMK@drawArraysCount?5?$DN?$DN?51?$AA@ 00512e70     d3d8d:drawprim.obj
 0003:00041dac       ??_C@_0BG@OKBIBJIA@drawArraysCount?9?9?5?$DO?51?$AA@ 00512e8c     d3d8d:drawprim.obj
 0003:00041dc8       ??_C@_0CO@KPHFOJKI@Hardware?5can?8t?5take?5more?5than?50x@ 00512ea8     d3d8d:drawprim.obj
 0003:00041e00       ??_C@_0DD@ELEHDKFA@Hardware?5can?8t?5take?5a?5StartVerte@ 00512ee0     d3d8d:drawprim.obj
 0003:00041e40       ??_C@_0BH@MECBGGGC@?$CIINT?$CJ?5VertexCount?5?$DO?$DN?50?$AA@ 00512f20     d3d8d:drawprim.obj
 0003:00041e5c       ??_C@_0BH@CLJFFACA@?$CB?$CI?$CIDWORD?$CJpPush?5?$CG?50x1f?$CJ?$AA@ 00512f3c     d3d8d:drawprim.obj
 0003:00041e78       ??_C@_0N@IKBPHMOD@dwAlign?5?$DM?$DN?57?$AA@ 00512f58     d3d8d:drawprim.obj
 0003:00041e88       ??_C@_0BO@JEFJMFAA@Pointer?5to?5index?5data?5is?5NULL?$AA@ 00512f68     d3d8d:drawprim.obj
 0003:00041eac       ??_C@_0BE@FAAHPGOP@Invalid?5VertexCount?$AA@ 00512f8c     d3d8d:drawprim.obj
 0003:00041ec4       ??_C@_0BC@HLOHPCGA@Goofy?5VertexCount?$AA@ 00512fa4     d3d8d:drawprim.obj
 0003:00041edc       ??_C@_0BB@IGDLPBAO@Invalid?5register?$AA@ 00512fbc     d3d8d:drawprim.obj
 0003:00041ef0       ??_C@_0DF@NMJMKCMN@D3DVSDE_VERTEX?5specified?5outside@ 00512fd0     d3d8d:drawprim.obj
 0003:00041f30       ??_C@_0CA@PJPFLDGC@g_pD3DPerfEventBeginEnd?5?$DN?$DN?5NULL?$AA@ 00513010     d3d8d:drawprim.obj
 0003:00041f58       ??_C@_0EA@IMKPILCF@D3DDevice_Begin?5?9?5Begin?5before?5a@ 00513038     d3d8d:drawprim.obj
 0003:00041fa4       ??_C@_0CO@CAGFJJPP@D3DDevice_End?5?9?5End?5without?5a?5ma@ 00513084     d3d8d:drawprim.obj
 0003:00041fdc       ?g_TextureFormatMask@D3D@@3QBKB 005130bc     d3d8d:vshader.obj
 0003:00042008       ?g_BytesPerUnit@D3D@@3QBEB 005130e8     d3d8d:vshader.obj
 0003:00042010       ?g_UnitsOfElement@D3D@@3QBEB 005130f0     d3d8d:vshader.obj
 0003:00042020       ?g_IdentityMatrix@D3D@@3U_D3DMATRIX@@B 00513100     d3d8d:vshader.obj
 0003:0004206c       ?g_FixedFunctionPipelineConstants@D3D@@3QBKB 0051314c     d3d8d:vshader.obj
 0003:000420a8       ?g_PassthruProgramWFog@D3D@@3QBKB 00513188     d3d8d:vshader.obj
 0003:00042190       ?g_PassthruProgramZFog@D3D@@3QBKB 00513270     d3d8d:vshader.obj
 0003:00042268       ?g_PassthruProgramSpecularFog@D3D@@3QBKB 00513348     d3d8d:vshader.obj
 0003:00042350       ?g_TextureCount@D3D@@3QBKB 00513430     d3d8d:vshader.obj
 0003:00042364       ??_C@_0CB@PHKFKCND@numTextures?5?$DM?$DN?5D3DDP_MAXTEXCOORD@ 00513444     d3d8d:vshader.obj
 0003:0004238c       ??_C@_0N@FCEFPFAH@weights?5?$DN?$DN?54?$AA@ 0051346c     d3d8d:vshader.obj
 0003:0004239c       ??_C@_0N@CPDCABEC@weights?5?$DN?$DN?51?$AA@ 0051347c     d3d8d:vshader.obj
 0003:000423ac       ??_C@_0DE@LLNGCEJM@Normal?5should?5not?5be?5used?5with?5X@ 0051348c     d3d8d:vshader.obj
 0003:000423ec       ??_C@_0CA@HEHFEDOA@FVF?5has?5incorrect?5position?5type?$AA@ 005134cc     d3d8d:vshader.obj
 0003:00042414       ??_C@_0BM@HLFOOGLF@FVF?5has?5reserved?5bit?$CIs?$CJ?5set?$AA@ 005134f4     d3d8d:vshader.obj
 0003:00042438       ??_C@_0CB@ONIBJMIK@FVF?5has?5incorrect?5texture?5format@ 00513518     d3d8d:vshader.obj
 0003:00042460       ??_C@_0GH@DMPFOLNB@pProgramAndConstants?5?$DN?$DN?5?$CGpVertex@ 00513540     d3d8d:vshader.obj
 0003:000424e0       ??_C@_0FH@HAGKBBAG@?$CImethodEncode?5?$CG?50xffff?$CJ?5?$DN?$DN?5PUSHE@ 005135c0     d3d8d:vshader.obj
 0003:00042548       ??_C@_0EI@MFMJIECF@pConstants?5?$CL?5count?5?$DM?$DN?5?$CGg_VertexS@ 00513628     d3d8d:vshader.obj
 0003:000425a0       ??_C@_0DI@CJLMMLLK@?$CI?$CIcount?5?$CG?53?$CJ?5?$DN?$DN?50?$CJ?5?$CG?$CG?5?$CIcount?5?$DM?5V@ 00513680     d3d8d:vshader.obj
 0003:000425e8       ??_C@_0FJ@OJFNNPBJ@?$CImethodEncode?5?$CG?50xffff?$CJ?5?$DN?$DN?5PUSHE@ 005136c8     d3d8d:vshader.obj
 0003:00042654       ??_C@_0CE@FJEIAEBF@constantSlot?5?$DM?5VSHADER_CONSTANT_@ 00513734     d3d8d:vshader.obj
 0003:00042680       ??_C@_0FB@PAHPDFFM@pSlots?5?$CL?5count?5?$DM?$DN?5?$CGpDevice?9?$DOm_Ve@ 00513760     d3d8d:vshader.obj
 0003:000426e8       ??_C@_0EI@FMNNPLNH@?$CI?$CIcount?5?$CG?53?$CJ?5?$DN?$DN?50?$CJ?5?$CG?$CG?5?$CIcount?5?$CB?$DN?5@ 005137c8     d3d8d:vshader.obj
 0003:00042740       ??_C@_0L@EJHHCBB@count?5?$CB?$DN?50?$AA@ 00513820     d3d8d:vshader.obj
 0003:00042750       ??_C@_0N@HHPCKPHG@Null?5pointer?$AA@ 00513830     d3d8d:vshader.obj
 0003:00042760       ??_C@_0CD@KIEPPLFL@Bad?5declaration?5CONST?5token?3?50x?$CF@ 00513840     d3d8d:vshader.obj
 0003:0004278c       ??_C@_0BC@DBCPLAKL@Token?5type?3?50x?$CFlx?$AA@ 0051386c     d3d8d:vshader.obj
 0003:000427a4       ??_C@_0BE@OAECGIIC@Unidentified?5token?6?$AA@ 00513884     d3d8d:vshader.obj
 0003:000427bc       ??_C@_0CE@FNKMGIDM@Bad?5declaration?5STREAM?5token?3?50x@ 0051389c     d3d8d:vshader.obj
 0003:000427e8       ??_C@_0DH@MCDIFIFP@?$CIpVertexShader?9?$DODimensionality?5?$CG@ 005138c8     d3d8d:vshader.obj
 0003:0004282c       ??_C@_0BG@KOHIBHKI@Invalid?5type?5encoding?$AA@ 0051390c     d3d8d:vshader.obj
 0003:00042848       ??_C@_0CG@JMCLAKEG@Can?8t?5specify?5a?5register?5more?5th@ 00513928     d3d8d:vshader.obj
 0003:00042878       ??_C@_0CB@DFIPDGBF@Bad?5declaration?5REG?5token?3?50x?$CFlx@ 00513958     d3d8d:vshader.obj
 0003:000428a0       ??_C@_0CC@LNPPHCBF@Bad?5declaration?5SKIP?5token?3?50x?$CFl@ 00513980     d3d8d:vshader.obj
 0003:000428c8       ??_C@_0DA@GDJBAAFE@?$CIpPush?5?$DN?$DN?5NULL?$CJ?5?$HM?$HM?5?$CIpPush?5?$DN?$DN?5pPu@ 005139a8     d3d8d:vshader.obj
 0003:00042908       ??_C@_0JC@OOMFPJIF@Address?5range?5can?8t?5include?5rese@ 005139e8     d3d8d:vshader.obj
 0003:000429b8       ??_C@_0EO@EMIEAOLH@Invalid?5constant?5address?5range?5?$CI@ 00513a98     d3d8d:vshader.obj
 0003:00042a18       ??_C@_0DA@JCJBFNBM@Invalid?5declaration?5token?5?$CImissi@ 00513af8     d3d8d:vshader.obj
 0003:00042a54       ??_C@_0CC@PHDPLKOD@programSize?5?$DN?$DN?54?5?$CK?5functionDword@ 00513b34     d3d8d:vshader.obj
 0003:00042a80       ??_C@_0IO@KIBHLFN@?$CIUsage?5?$CG?5?$HO?$CID3DUSAGE_PERSISTENTDI@ 00513b60     d3d8d:vshader.obj
 0003:00042b2c       ??_C@_0DH@DFGOMKPH@Declaration?5pointer?5can?5be?5NULL?5@ 00513c0c     d3d8d:vshader.obj
 0003:00042b70       ??_C@_0DD@DAPPAEGJ@State?5shaders?5must?5pass?5a?5NULL?5d@ 00513c50     d3d8d:vshader.obj
 0003:00042bb0       ??_C@_0GO@LDJNALAE@?$CIPerhaps?5you?8re?5calling?5with?5a?5D@ 00513c90     d3d8d:vshader.obj
 0003:00042c38       ??_C@_0FI@JGHLGLIO@Invalid?5function?5header?4?5?5Only?5v@ 00513d18     d3d8d:vshader.obj
 0003:00042ca4       ??_C@_0BD@DGPMADLF@Invalid?5usage?5flag?$AA@ 00513d84     d3d8d:vshader.obj
 0003:00042cc0       ??_C@_0HL@EFPAOGAJ@Address?5range?5can?8t?5include?5rese@ 00513da0     d3d8d:vshader.obj
 0003:00042d54       ??_C@_0DK@NIGMDLDI@Negative?5addresses?5allowed?5only?5@ 00513e34     d3d8d:vshader.obj
 0003:00042d9c       ??_C@_0CP@DDKHGFOM@Invalid?5address?5range?5?$CInot?5betwe@ 00513e7c     d3d8d:vshader.obj
 0003:00042dd4       ??_C@_0O@PGNOGEJ@Invalid?5count?$AA@ 00513eb4     d3d8d:vshader.obj
 0003:00042de4       ??_C@_0BD@EIMPNJEF@Invalid?5DwordCount?$AA@ 00513ec4     d3d8d:vshader.obj
 0003:00042dfc       ??_C@_0DD@KCHMLDEN@Can?8t?5query?5the?5constant?5registe@ 00513edc     d3d8d:vshader.obj
 0003:00042e3c       ??_C@_0DB@KLAPEIPA@Register?5range?5can?8t?5include?5res@ 00513f1c     d3d8d:vshader.obj
 0003:00042e78       ??_C@_0DK@GECDPLJI@Negative?5registers?5allowed?5only?5@ 00513f58     d3d8d:vshader.obj
 0003:00042ec0       ??_C@_0O@KDMHEBBH@Invalid?5range?$AA@ 00513fa0     d3d8d:vshader.obj
 0003:00042ed0       ??_C@_0FE@KNNKKMFN@Invalid?5Format?5in?5D3DVERTEXATTRI@ 00513fb0     d3d8d:vshader.obj
 0003:00042f38       ??_C@_0EB@EKLHDNGO@Invalid?5Format?5in?5Input?5?$CFd?5of?5D3@ 00514018     d3d8d:vshader.obj
 0003:00042f88       ??_C@_0EO@CIKACGPM@SetStreamSource?5called?5while?5Set@ 00514068     d3d8d:vshader.obj
 0003:00042fe8       ??_C@_0CE@MCLKFCJM@NV2A?5allows?5a?5maximum?5stride?5of?5@ 005140c8     d3d8d:vshader.obj
 0003:00043014       ??_C@_0BG@LEHOPBGI@Invalid?5stream?5number?$AA@ 005140f4     d3d8d:vshader.obj
 0003:00043030       ??_C@_0DJ@HPPHDDEA@Can?8t?5run?5a?5vertex?5state?5shader?5@ 00514110     d3d8d:vshader.obj
 0003:00043074       ??_C@_0CH@DNOOKINJ@Start?5address?5can?8t?5be?5larger?5th@ 00514154     d3d8d:vshader.obj
 0003:000430a4       ??_C@_0CJ@EOAFAIGL@Must?5have?5a?5vertex?5state?5shader?5@ 00514184     d3d8d:vshader.obj
 0003:000430d8       ??_C@_0BM@CJBEKNPP@End?5address?5larger?5than?5136?$AA@ 005141b8     d3d8d:vshader.obj
 0003:000430fc       ??_C@_0DA@MIGHDFNI@Invalid?5vertex?5shader?5object?5?$CIal@ 005141dc     d3d8d:vshader.obj
 0003:00043138       ??_C@_0CM@CPLOHJLO@Must?5be?5a?5vertex?5shader?5program?0@ 00514218     d3d8d:vshader.obj
 0003:0004316c       ??_C@_0DK@HJCMJNDM@Length?5specified?5in?5second?5WORD?5@ 0051424c     d3d8d:vshader.obj
 0003:000431b8       ??_C@_0GA@LBFOINDB@Must?5be?5a?5programmable?5vertex?5sh@ 00514298     d3d8d:vshader.obj
 0003:00043230       ??_C@_0GB@FJIKHMOG@Shader?5handle?5required?5in?5Select@ 00514310     d3d8d:vshader.obj
 0003:000432a4       ??_C@_0DM@FGHGHHPJ@Can?8t?5select?5a?5vertex?5state?5shad@ 00514384     d3d8d:vshader.obj
 0003:000432ec       ??_C@_0DG@DJBLHFNA@Can?8t?5set?5constant?5mode?5while?5re@ 005143cc     d3d8d:vshader.obj
 0003:0004332c       ??_C@_0N@HLFHGGIB@Invalid?5mode?$AA@ 0051440c     d3d8d:vshader.obj
 0003:0004333c       ??_C@_0DF@LMNBJDJK@Can?8t?5delete?5a?5vertex?5shader?5tha@ 0051441c     d3d8d:vshader.obj
 0003:0004337c       ??_C@_0CD@GIAJNKCK@Invalid?5vertex?5shader?5handle?5val@ 0051445c     d3d8d:vshader.obj
 0003:000433a8       ??_C@_0CP@BMDPEPJ@?$CB?$CIpVertexShader?9?$DOFlags?5?$CG?5VERTEXS@ 00514488     d3d8d:vshader.obj
 0003:000433e0       ??_C@_0EE@LKMGIIIE@Can?8t?5use?5fixed?5function?5pipelin@ 005144c0     d3d8d:vshader.obj
 0003:00043438       ??_C@_0EO@CAKHIOOL@SetVertexShader?5called?5while?5Set@ 00514518     d3d8d:vshader.obj
 0003:00043498       ??_C@_0BA@KIDBJOKH@slotCount?5?$DM?$DN?515?$AA@ 00514578     d3d8d:vshader.obj
 0003:000434ac       ??_C@_0BL@BLBIAJE@currentEndOffset?5?$CB?$DN?5offset?$AA@ 0051458c     d3d8d:vshader.obj
 0003:000434cc       ??_C@_0BO@LNLCEMLH@Can?8t?5have?5a?5NULL?5pSizeOfData?$AA@ 005145ac     d3d8d:vshader.obj
 0003:000434f0       ??_C@_0CL@LIKPONOL@?$CIDWORD?$CJ?5pDst?5?9?5?$CIDWORD?$CJ?5pData?5?$DN?$DN?5@ 005145d0     d3d8d:vshader.obj
 0003:00043528       ??_C@_0EJ@OMDKLKAK@Vertex?5Shader?5references?5more?5st@ 00514608     d3d8d:vshader.obj
 0003:00043580       ??_C@_0DO@NAHHKKFO@D3DTSS_TEXCOORDINDEX?5mapping?5for@ 00514660     d3d8d:vshader.obj
 0003:000435cc       ??_C@_0CC@PNFJFOCM@Can?8t?5have?5a?5stride?5more?5than?525@ 005146ac     d3d8d:vshader.obj
 0003:000435f4       ??_C@_0CA@IPBCNNEN@Can?8t?5specify?5NULL?5VertexBuffer?$AA@ 005146d4     d3d8d:vshader.obj
 0003:0004361c       ??_C@_0CI@KAOAOIIK@Stream?5count?5can?8t?5be?50?5or?5more?5@ 005146fc     d3d8d:vshader.obj
 0003:0004364c       ??_C@_0DM@LAAGKHEL@StreamCount?5and?5pStreamInputs?5mu@ 0051472c     d3d8d:vshader.obj
 0003:00043698       ?g_AntiAliasedTextureStates@D3D@@3QBKB 00514778     d3d8d:present.obj
 0003:00043708       ?g_AntiAliasedRenderStates@D3D@@3QBKB 005147e8     d3d8d:present.obj
 0003:000437c8       ?g_PassthruProgramPositionAndTexture@D3D@@3QBKB 005148a8     d3d8d:present.obj
 0003:000437f0       ??_C@_0EI@DOHHNPGF@?$CB?$CIAddress?5?$CG?5?$CIFLIP_DATA_OR_IMMEDI@ 005148d0     d3d8d:present.obj
 0003:00043848       ??_C@_0BG@JGMBNEJP@State?5?$DO?$DN?5D3DRS_PS_MAX?$AA@ 00514928     d3d8d:present.obj
 0003:00043868       ??_C@_0GA@FHOAJEOO@Gaussian?5filter?5is?5nonsensical?5u@ 00514948     d3d8d:present.obj
 0003:000438e0       ??_C@_0GA@CCHLALJJ@Quincunx?5filter?5is?5nonsensical?5u@ 005149c0     d3d8d:present.obj
 0003:00043954       ??_C@_0CO@PBJBCKMF@Can?8t?5call?5Swap?5while?5recording?5@ 00514a34     d3d8d:present.obj
 0003:0004398c       ??_C@_0N@CKMPFIBH@Invalid?5flag?$AA@ 00514a6c     d3d8d:present.obj
 0003:0004399c       ??_C@_0DH@NBPKOOMF@D3DSWAP_FINISH?5without?5a?5D3DSWAP@ 00514a7c     d3d8d:present.obj
 0003:000439e0       ??_C@_0DL@NCDFJANP@D3DSWAP_COPY?1BYPASSCOPY?5before?5a@ 00514ac0     d3d8d:present.obj
 0003:00043a28       ??_C@_0DP@LNNLEIKO@Scale?5causes?5rendering?5to?5exceed@ 00514b08     d3d8d:present.obj
 0003:00043a74       ??_C@_0BE@HGKHLCPN@Invalid?5scale?5value?$AA@ 00514b54     d3d8d:present.obj
 0003:00043a8c       ??_C@_0CP@JHBOLDDM@D3DDevice_Clear?5?9?5Unknown?5depth?5@ 00514b6c     d3d8d:clear.obj
 0003:00043ac8       ??_C@_0EJ@FPIELBOB@D3DFMT_LIN_L8?5and?5D3DFMT_LIN_G8B@ 00514ba8     d3d8d:clear.obj
 0003:00043b20       ??_C@_0GG@ECDGCNLG@Swizzled?5render?5targets?5can?5only@ 00514c00     d3d8d:clear.obj
 0003:00043b9c       ??_C@_0DP@BELDGAFH@Swizzled?5render?5targets?5can?5only@ 00514c7c     d3d8d:clear.obj
 0003:00043be8       ??_C@_0GP@JHIABBNO@D3DCLEAR_ZBUFFER?5for?532?9bit?5dept@ 00514cc8     d3d8d:clear.obj
 0003:00043c70       ??_C@_0BF@CCBELMKI@Invalid?5Z?5fill?5value?$AA@ 00514d50     d3d8d:clear.obj
 0003:00043c8c       ??_C@_0BL@HEFICIED@Invalid?5stencil?5fill?5value?$AA@ 00514d6c     d3d8d:clear.obj
 0003:00043cac       ??_C@_0BO@CICDDOP@Invalid?5flags?5passed?5to?5Clear?$AA@ 00514d8c     d3d8d:clear.obj
 0003:00043cd0       ?g_AdapterIdentifier@D3D@@3U_D3DADAPTER_IDENTIFIER8@@B 00514db0     d3d8d:enum.obj
 0003:000441d8       ??_C@_0JL@DLAPFHLP@?6D3D?5ERROR?3?5This?5application?5com@ 005152b8     d3d8d:enum.obj
 0003:00044294       ??_C@_0CM@PFBEKEHG@Direct3D_EnumAdapterModes?5?9?5Bad?5@ 00515374     d3d8d:enum.obj
 0003:000442c8       ??_C@_0EK@CIJLMJEI@Direct3D_SetPushBufferSize?5?9?5A?5p@ 005153a8     d3d8d:d3ddev.obj
 0003:00044320       ??_C@_0FH@BCDNFGHP@Direct3D_SetPushBufferSize?5?9?5The@ 00515400     d3d8d:d3ddev.obj
 0003:00044388       ??_C@_0EK@KODANIIA@Direct3D_SetPushBufferSize?5?9?5Kic@ 00515468     d3d8d:d3ddev.obj
 0003:000443e0       ??_C@_0EN@LHOBCJN@Direct3D_SetPushBufferSize?5?9?5The@ 005154c0     d3d8d:d3ddev.obj
 0003:00044440       ??_C@_0ED@PBIGJKPN@Direct3D_SetPushBufferSize?5?9?5The@ 00515520     d3d8d:d3ddev.obj
 0003:00044490       ??_C@_0EE@OJJLNDNK@Direct3D_SetPushBufferSize?5?9?5Cal@ 00515570     d3d8d:d3ddev.obj
 0003:000444e4       ??_C@_0CK@EHNMHBPE@FATAL?3?5Failed?5to?5initialize?5devi@ 005155c4     d3d8d:d3ddev.obj
 0003:00044518       ??_C@_0CG@KAPIHFFA@Can?8t?5create?5more?5than?5one?5D3D?5d@ 005155f8     d3d8d:d3ddev.obj
 0003:00044548       ??_C@_0FC@DHFIFNAN@Only?5D3DFMT_A8R8G8B8?0?5_X8R8G8B8?0@ 00515628     d3d8d:d3ddev.obj
 0003:000445ac       ??_C@_0BL@FHEFOHOB@Only?5HAL?5devices?5supported?$AA@ 0051568c     d3d8d:d3ddev.obj
 0003:000445cc       ??_C@_0CK@FELNHPDJ@Only?5hardware?5vertex?5processing?5@ 005156ac     d3d8d:d3ddev.obj
 0003:00044600       ??_C@_0BH@EFEJKNDH@Windowed?5must?5be?5FALSE?$AA@ 005156e0     d3d8d:d3ddev.obj
 0003:0004461c       ??_C@_0CN@BGHNFMGA@Invalid?5BehaviorFlags?5passed?5to?5@ 005156fc     d3d8d:d3ddev.obj
 0003:00044654       ??_C@_0DB@DIKHOLEI@Invalid?5Adapter?5parameter?5passed@ 00515734     d3d8d:d3ddev.obj
 0003:00044690       ??_C@_0CG@LEGNNEIF@D3DFORMAT_UNKNOWN?5not?5allowed?5on@ 00515770     d3d8d:d3ddev.obj
 0003:000446c0       ??_C@_0DK@DCKMOIEK@Invalid?5D3DPRESENT_PARAMETERS?5po@ 005157a0     d3d8d:d3ddev.obj
 0003:00044708       ??_C@_03CCCACEOK@oT3?$AA@  005157e8     d3d8d:shadersnapshot.obj
 0003:0004470c       ??_C@_03DLDLBFKL@oT2?$AA@  005157ec     d3d8d:shadersnapshot.obj
 0003:00044710       ??_C@_03BABGEGGI@oT1?$AA@  005157f0     d3d8d:shadersnapshot.obj
 0003:00044714       ??_C@_03JANHHCJ@oT0?$AA@   005157f4     d3d8d:shadersnapshot.obj
 0003:00044718       ??_C@_03ILNJJKK@oB1?$AA@   005157f8     d3d8d:shadersnapshot.obj
 0003:0004471c       ??_C@_03BBKGKIOL@oB0?$AA@  005157fc     d3d8d:shadersnapshot.obj
 0003:00044720       ??_C@_04LOFIANGF@oPts?$AA@ 00515800     d3d8d:shadersnapshot.obj
 0003:00044728       ??_C@_04PFPHJOOC@oFog?$AA@ 00515808     d3d8d:shadersnapshot.obj
 0003:00044730       ??_C@_03MDAOFBI@oD1?$AA@   00515810     d3d8d:shadersnapshot.obj
 0003:00044734       ??_C@_03BFCLNEFJ@oD0?$AA@  00515814     d3d8d:shadersnapshot.obj
 0003:00044738       ??_C@_03MCMPNMHE@o2?$DP?$AA@ 00515818     d3d8d:shadersnapshot.obj
 0003:0004473c       ??_C@_03MAIJGCCN@o1?$DP?$AA@ 0051581c     d3d8d:shadersnapshot.obj
 0003:00044740       ??_C@_04KOCLEBPE@oPos?$AA@ 00515820     d3d8d:shadersnapshot.obj
 0003:00044748       ??_C@_0BO@KIBIIKE@D3D__AllocsContiguous?5?$DO?$DN?5size?$AA@ 00515828     d3d8d:shadersnapshot.obj
 0003:0004476c       ??_C@_0CA@GJMEKBLB@Wait?5for?5image?5write?5timed?9out?6?$AA@ 0051584c     d3d8d:shadersnapshot.obj
 0003:00044794       ??_C@_0BP@BPOFKPAI@Wait?5for?5image?5read?5timed?9out?6?$AA@ 00515874     d3d8d:shadersnapshot.obj
 0003:000447bc       ??_C@_02BKJPHGNJ@pc?$AA@   0051589c     d3d8d:shadersnapshot.obj
 0003:000447c0       ??_C@_05CCMOGDN@?$CFs?3?$CFs?$AA@ 005158a0     d3d8d:shadersnapshot.obj
 0003:000447c8       ??_C@_0M@EKAMBPKE@1?400?45849?41?$AA@ 005158a8     d3d8d:shadersnapshot.obj
 0003:000447d8       ??_C@_05GCIPIGEI@Debug?$AA@ 005158b8     d3d8d:shadersnapshot.obj
 0003:000447e0       ??_C@_07DLHCIBDH@default?$AA@ 005158c0     d3d8d:shadersnapshot.obj
 0003:000447ec       ??_C@_0DB@PLEMIDFP@Unable?5to?5re?9open?5movie?5cache?5fi@ 005158cc     d3d8d:shadersnapshot.obj
 0003:00044828       ??_C@_0BM@PMANFOOE@createfile?5error?5?9?5st?$DN?$CF08x?6?$AA@ 00515908     d3d8d:shadersnapshot.obj
 0003:0004484c       ??_C@_0CF@JAIFDFBO@GetDiskFreeSpaceEx?5failed?5with?5?$CF@ 0051592c     d3d8d:shadersnapshot.obj
 0003:00044878       ??_C@_02HGOPDIBI@t?3?$AA@  00515958     d3d8d:shadersnapshot.obj
 0003:0004487b       ??_C@_00CNPNBAHC@?$AA@     0051595b     d3d8d:pshader.obj
 0003:0004487c       ??_C@_06DJHOIPC@?$CFs?3?5?$CFs?$AA@ 0051595c     d3d8d:pshader.obj
 0003:00044884       ??_C@_0BD@GKHLDCIP@Invalid?5D?5Register?$AA@ 00515964     d3d8d:pshader.obj
 0003:0004489c       ??_C@_0BD@EDEACHAM@Invalid?5C?5Register?$AA@ 0051597c     d3d8d:pshader.obj
 0003:000448b4       ??_C@_0BD@ICMOPIMM@Invalid?5B?5Register?$AA@ 00515994     d3d8d:pshader.obj
 0003:000448cc       ??_C@_0BD@BLCMJOMN@Invalid?5A?5Register?$AA@ 005159ac     d3d8d:pshader.obj
 0003:000448e4       ??_C@_0BE@DNFHIMBN@Invalid?5CD?5register?$AA@ 005159c4     d3d8d:pshader.obj
 0003:000448fc       ??_C@_0BE@DJNJNIMB@Invalid?5AB?5register?$AA@ 005159dc     d3d8d:pshader.obj
 0003:00044914       ??_C@_0BF@NOJONFHH@Invalid?5Sum?5register?$AA@ 005159f4     d3d8d:pshader.obj
 0003:00044930       ??_C@_0BH@ODKPGKEJ@Invalid?5output?5mapping?$AA@ 00515a10     d3d8d:pshader.obj
 0003:0004494c       ??_C@_0BA@OHBGBLJB@13?312?5must?5be?50?$AA@ 00515a2c     d3d8d:pshader.obj
 0003:00044960       ??_C@_0BA@CCAHGHAC@31?318?5must?5be?50?$AA@ 00515a40     d3d8d:pshader.obj
 0003:00044974       ??_C@_0BA@JJMBHNDC@31?320?5must?5be?50?$AA@ 00515a54     d3d8d:pshader.obj
 0003:00044988       ??_C@_0BM@OFCNLPL@Invalid?5input?5mapping?5Reg?5D?$AA@ 00515a68     d3d8d:pshader.obj
 0003:000449ac       ??_C@_0BM@EBBDENDM@Invalid?5input?5mapping?5Reg?5C?$AA@ 00515a8c     d3d8d:pshader.obj
 0003:000449d0       ??_C@_0BM@FIAIHMHN@Invalid?5input?5mapping?5Reg?5B?$AA@ 00515ab0     d3d8d:pshader.obj
 0003:000449f4       ??_C@_0BM@HDCFCPLO@Invalid?5input?5mapping?5Reg?5A?$AA@ 00515ad4     d3d8d:pshader.obj
 0003:00044a18       ??_C@_0CD@JOOFIIHJ@Alpha?5invalid?5for?5SUM?5or?5PROD?5on@ 00515af8     d3d8d:pshader.obj
 0003:00044a44       ??_C@_0CD@NBKEBOLO@Alpha?5invalid?5for?5SUM?5or?5PROD?5on@ 00515b24     d3d8d:pshader.obj
 0003:00044a70       ??_C@_0CD@MILPCPPP@Alpha?5invalid?5for?5SUM?5or?5PROD?5on@ 00515b50     d3d8d:pshader.obj
 0003:00044a9c       ??_C@_0CD@ODJCHMDM@Alpha?5invalid?5for?5SUM?5or?5PROD?5on@ 00515b7c     d3d8d:pshader.obj
 0003:00044ac8       ??_C@_0BD@PDJJFEIO@Invalid?5G?5Register?$AA@ 00515ba8     d3d8d:pshader.obj
 0003:00044ae0       ??_C@_0BD@DCBHILEO@Invalid?5F?5Register?$AA@ 00515bc0     d3d8d:pshader.obj
 0003:00044af8       ??_C@_0BD@KLPFONEP@Invalid?5E?5Register?$AA@ 00515bd8     d3d8d:pshader.obj
 0003:00044b10       ??_C@_0O@JINFECGF@4?30?5must?5be?50?$AA@ 00515bf0     d3d8d:pshader.obj
 0003:00044b20       ??_C@_0BM@CFHPIIDI@Invalid?5input?5mapping?5Reg?5G?$AA@ 00515c00     d3d8d:pshader.obj
 0003:00044b44       ??_C@_0BM@DMGELJHJ@Invalid?5input?5mapping?5Reg?5F?$AA@ 00515c24     d3d8d:pshader.obj
 0003:00044b68       ??_C@_0BM@BHEJOKLK@Invalid?5input?5mapping?5Reg?5E?$AA@ 00515c48     d3d8d:pshader.obj
 0003:00044b8c       ??_C@_0CH@NLHGFDAO@Stg1?5mode?5requires?5different?5Stg@ 00515c6c     d3d8d:pshader.obj
 0003:00044bbc       ??_C@_0CI@GNMKOHHG@Stg?53?5mode?5requires?5DOTPRODUCT?5i@ 00515c9c     d3d8d:pshader.obj
 0003:00044bf0       ??_C@_0ED@FNHMLECF@Stg2?5mode?5requires?5DOT_RFLCT_SPE@ 00515cd0     d3d8d:pshader.obj
 0003:00044c40       ??_C@_0DI@BIFPNCGA@Stg3?5mode?5requires?5DOTPRODUCT?5or@ 00515d20     d3d8d:pshader.obj
 0003:00044c84       ??_C@_0CO@OMGNECJG@Stg3?5mode?5requires?5DOTPRODUCT?5in@ 00515d64     d3d8d:pshader.obj
 0003:00044cbc       ??_C@_0CG@PJJDFFCL@Stg3?5mode?5requires?5DOTPRODUCT?5in@ 00515d9c     d3d8d:pshader.obj
 0003:00044cec       ??_C@_0CG@BNCABBCA@Stg2?5mode?5requires?5DOTPRODUCT?5in@ 00515dcc     d3d8d:pshader.obj
 0003:00044d1c       ??_C@_0CH@IMJBPHNB@Stg3?5mode?5requires?5different?5Stg@ 00515dfc     d3d8d:pshader.obj
 0003:00044d4c       ??_C@_0CH@LPJGCIPA@Stg2?5mode?5requires?5different?5Stg@ 00515e2c     d3d8d:pshader.obj
 0003:00044d7c       ??_C@_0BD@DKBHCCDJ@Invalid?5Stg?53?5Mode?$AA@ 00515e5c     d3d8d:pshader.obj
 0003:00044d94       ??_C@_0BD@JMGACJIN@Invalid?5Stg?52?5Mode?$AA@ 00515e74     d3d8d:pshader.obj
 0003:00044dac       ??_C@_0BD@KNIIDDBA@Invalid?5Stg?51?5Mode?$AA@ 00515e8c     d3d8d:pshader.obj
 0003:00044dc4       ??_C@_0BD@LPPDIKE@Invalid?5Stg?50?5Mode?$AA@ 00515ea4     d3d8d:pshader.obj
 0003:00044ddc       ??_C@_0BA@JKMHEGEN@31?324?5must?5be?50?$AA@ 00515ebc     d3d8d:pshader.obj
 0003:00044df0       ??_C@_0BP@GEEGIDAO@Invalid?5input?5texture?5in?5stg?53?$AA@ 00515ed0     d3d8d:pshader.obj
 0003:00044e18       ??_C@_0BP@HNFNLCEP@Invalid?5input?5texture?5in?5stg?52?$AA@ 00515ef8     d3d8d:pshader.obj
 0003:00044e40       ??_C@_0P@HGOOKDAK@15?30?5must?5be?50?$AA@ 00515f20     d3d8d:pshader.obj
 0003:00044e54       ??_C@_0BA@FAJDPIHD@31?317?5must?5be?50?$AA@ 00515f34     d3d8d:pshader.obj
 0003:00044e68       ??_C@_0BJ@KPIHFFMC@Invalid?5Separate?5C0?5flag?$AA@ 00515f48     d3d8d:pshader.obj
 0003:00044e88       ??_C@_0BA@GFPKLOGA@Invalid?5Mux?5bit?$AA@ 00515f68     d3d8d:pshader.obj
 0003:00044e9c       ??_C@_0BH@BFFHEEFP@Invalid?5Combiner?5Count?$AA@ 00515f7c     d3d8d:pshader.obj
 0003:00044eb8       ??_C@_0BB@OOCFICHB@31?316?5must?5be?50?6?$AA@ 00515f98     d3d8d:pshader.obj
 0003:00044ecc       ??_C@_0BA@MIDAIPGD@31?312?5must?5be?50?$AA@ 00515fac     d3d8d:pshader.obj
 0003:00044ee0       ??_C@_0BA@HBJMMAED@Stage?53?5invalid?$AA@ 00515fc0     d3d8d:pshader.obj
 0003:00044ef4       ??_C@_0BA@JOFOKLHN@Stage?52?5invalid?$AA@ 00515fd4     d3d8d:pshader.obj
 0003:00044f08       ??_C@_0BA@HFGJBAHO@Stage?51?5invalid?$AA@ 00515fe8     d3d8d:pshader.obj
 0003:00044f1c       ??_C@_0P@FKGNKHBB@31?39?5must?5be?50?$AA@ 00515ffc     d3d8d:pshader.obj
 0003:00044f30       ??_C@_0DP@HBKCHHNA@D3DDevice_CreatePixelShader?5?9?5In@ 00516010     d3d8d:pshader.obj
 0003:00044f7c       ??_C@_0BJ@CIGDIJMC@PSFinalCombinerConstants?$AA@ 0051605c     d3d8d:pshader.obj
 0003:00044f9c       ??_C@_0BA@GIFJJBHO@PSRGBOutputs?$FL7?$FN?$AA@ 0051607c     d3d8d:pshader.obj
 0003:00044fb0       ??_C@_0BA@GJJLPLEJ@PSRGBOutputs?$FL6?$FN?$AA@ 00516090     d3d8d:pshader.obj
 0003:00044fc4       ??_C@_0BA@GLNNEFBA@PSRGBOutputs?$FL5?$FN?$AA@ 005160a4     d3d8d:pshader.obj
 0003:00044fd8       ??_C@_0BA@GKBPCPCH@PSRGBOutputs?$FL4?$FN?$AA@ 005160b8     d3d8d:pshader.obj
 0003:00044fec       ??_C@_0BA@GPFADJKC@PSRGBOutputs?$FL3?$FN?$AA@ 005160cc     d3d8d:pshader.obj
 0003:00045000       ??_C@_0BA@GOJCFDJF@PSRGBOutputs?$FL2?$FN?$AA@ 005160e0     d3d8d:pshader.obj
 0003:00045014       ??_C@_0BA@GMNEONMM@PSRGBOutputs?$FL1?$FN?$AA@ 005160f4     d3d8d:pshader.obj
 0003:00045028       ??_C@_0BA@GNBGIHPL@PSRGBOutputs?$FL0?$FN?$AA@ 00516108     d3d8d:pshader.obj
 0003:0004503c       ??_C@_0BC@GJJBHION@PSAlphaOutputs?$FL7?$FN?$AA@ 0051611c     d3d8d:pshader.obj
 0003:00045054       ??_C@_0BC@GIFDBCNK@PSAlphaOutputs?$FL6?$FN?$AA@ 00516134     d3d8d:pshader.obj
 0003:0004506c       ??_C@_0BC@GKBFKMID@PSAlphaOutputs?$FL5?$FN?$AA@ 0051614c     d3d8d:pshader.obj
 0003:00045084       ??_C@_0BC@GLNHMGLE@PSAlphaOutputs?$FL4?$FN?$AA@ 00516164     d3d8d:pshader.obj
 0003:0004509c       ??_C@_0BC@GOJINADB@PSAlphaOutputs?$FL3?$FN?$AA@ 0051617c     d3d8d:pshader.obj
 0003:000450b4       ??_C@_0BC@GPFKLKAG@PSAlphaOutputs?$FL2?$FN?$AA@ 00516194     d3d8d:pshader.obj
 0003:000450cc       ??_C@_0BC@GNBMAEFP@PSAlphaOutputs?$FL1?$FN?$AA@ 005161ac     d3d8d:pshader.obj
 0003:000450e4       ??_C@_0BC@GMNOGOGI@PSAlphaOutputs?$FL0?$FN?$AA@ 005161c4     d3d8d:pshader.obj
 0003:000450fc       ??_C@_0P@KGCEBPCA@PSRGBInputs?$FL7?$FN?$AA@ 005161dc     d3d8d:pshader.obj
 0003:00045110       ??_C@_0P@KHOGHFBH@PSRGBInputs?$FL6?$FN?$AA@ 005161f0     d3d8d:pshader.obj
 0003:00045124       ??_C@_0P@KFKAMLEO@PSRGBInputs?$FL5?$FN?$AA@ 00516204     d3d8d:pshader.obj
 0003:00045138       ??_C@_0P@KEGCKBHJ@PSRGBInputs?$FL4?$FN?$AA@ 00516218     d3d8d:pshader.obj
 0003:0004514c       ??_C@_0P@KBCNLHPM@PSRGBInputs?$FL3?$FN?$AA@ 0051622c     d3d8d:pshader.obj
 0003:00045160       ??_C@_0P@KAOPNNML@PSRGBInputs?$FL2?$FN?$AA@ 00516240     d3d8d:pshader.obj
 0003:00045174       ??_C@_0P@KCKJGDJC@PSRGBInputs?$FL1?$FN?$AA@ 00516254     d3d8d:pshader.obj
 0003:00045188       ??_C@_0P@KDGLAJKF@PSRGBInputs?$FL0?$FN?$AA@ 00516268     d3d8d:pshader.obj
 0003:0004519c       ??_C@_0BB@LFLMIKGB@PSAlphaInputs?$FL7?$FN?$AA@ 0051627c     d3d8d:pshader.obj
 0003:000451b0       ??_C@_0BB@LEHOOAFG@PSAlphaInputs?$FL6?$FN?$AA@ 00516290     d3d8d:pshader.obj
 0003:000451c4       ??_C@_0BB@LGDIFOAP@PSAlphaInputs?$FL5?$FN?$AA@ 005162a4     d3d8d:pshader.obj
 0003:000451d8       ??_C@_0BB@LHPKDEDI@PSAlphaInputs?$FL4?$FN?$AA@ 005162b8     d3d8d:pshader.obj
 0003:000451ec       ??_C@_0BB@LCLFCCLN@PSAlphaInputs?$FL3?$FN?$AA@ 005162cc     d3d8d:pshader.obj
 0003:00045200       ??_C@_0BB@LDHHEIIK@PSAlphaInputs?$FL2?$FN?$AA@ 005162e0     d3d8d:pshader.obj
 0003:00045214       ??_C@_0BB@LBDBPGND@PSAlphaInputs?$FL1?$FN?$AA@ 005162f4     d3d8d:pshader.obj
 0003:00045228       ??_C@_0BB@LAPDJMOE@PSAlphaInputs?$FL0?$FN?$AA@ 00516308     d3d8d:pshader.obj
 0003:0004523c       ??_C@_0CP@OPOPOMI@Invalid?5pixel?5shader?5object?5?$CIalr@ 0051631c     d3d8d:pshader.obj
 0003:00045274       ??_C@_0DE@HMOCCGDM@Can?8t?5delete?5a?5pixel?5shader?5that@ 00516354     d3d8d:pshader.obj
 0003:000452b4       ??_C@_0CC@DDICNKIO@Invalid?5pixel?5shader?5handle?5valu@ 00516394     d3d8d:pshader.obj
 0003:000452e0       ??_C@_0EA@JJMFKHGJ@D3DDevice_SetUserPixelShader?5?9?5I@ 005163c0     d3d8d:pshader.obj
 0003:0004532c       ??_C@_0CE@IKMHMGFJ@Pixel?5shader?5handle?5pointer?5is?5N@ 0051640c     d3d8d:pshader.obj
 0003:00045358       ??_C@_0DH@NDBFEDFN@Too?5many?5constants?5specified?5in?5@ 00516438     d3d8d:pshader.obj
 0003:0004539c       ??_C@_0DI@DACHOIOH@Invalid?5constant?5data?5pointer?5in@ 0051647c     d3d8d:pshader.obj
 0003:000453e0       ??_C@_0CI@COCHLMNC@Invalid?5pixel?5shader?5definition?5@ 005164c0     d3d8d:pshader.obj
 0003:00045410       ??_C@_0EC@NFDPBIGH@Attempt?5to?5set?5pixel?5shader?5cons@ 005164f0     d3d8d:pshader.obj
 0003:00045460       ??_C@_0DH@NCDLGEIC@Too?5many?5constants?5specified?5in?5@ 00516540     d3d8d:pshader.obj
 0003:000454a4       ??_C@_0DI@DBAJMPDI@Invalid?5constant?5data?5pointer?5in@ 00516584     d3d8d:pshader.obj
 0003:000454e8       ??_C@_08LPCDBLNN@D3DFixup?$AA@ 005165c8     d3d8d:resource.obj
 0003:000454f4       ??_C@_0L@BGLDBADN@D3DSurface?$AA@ 005165d4     d3d8d:resource.obj
 0003:00045504       ??_C@_0L@CIMGLOB@D3DTexture?$AA@ 005165e4     d3d8d:resource.obj
 0003:00045514       ??_C@_0L@LHPKEGA@D3DPalette?$AA@ 005165f4     d3d8d:resource.obj
 0003:00045524       ??_C@_0O@IOCIOEPF@D3DPushBuffer?$AA@ 00516604     d3d8d:resource.obj
 0003:00045534       ??_C@_0P@PFMGCGA@D3DIndexBuffer?$AA@ 00516614     d3d8d:resource.obj
 0003:00045548       ??_C@_0BA@JGKGAOJA@D3DVertexBuffer?$AA@ 00516628     d3d8d:resource.obj
 0003:000455b4       ??_C@_0CI@EMFLNAIP@not?5derived?5from?5the?5IUnknown?5in@ 00516694     d3d8d:resource.obj
 0003:000455e4       ??_C@_0DH@EFGOHII@Possible?5attempt?5to?5use?5D3DSPD_I@ 005166c4     d3d8d:resource.obj
 0003:00045628       ??_C@_0FC@JGPLNNH@DestroyResource?5?9?5The?5reference?5@ 00516708     d3d8d:resource.obj
 0003:00045690       ??_C@_0FM@JKGEMPII@Validate?3?5The?5?$CFs?5?8?$CFs?8?5structure?5@ 00516770     d3d8d:resource.obj
 0003:00045700       ??_C@_0BA@IHPCNGOC@user?9Registered?$AA@ 005167e0     d3d8d:resource.obj
 0003:00045714       ??_C@_0M@JAAAGMMB@D3D?9created?$AA@ 005167f4     d3d8d:resource.obj
 0003:00045728       ??_C@_0OL@KHOPNLIH@?6Validate?3?5The?5user?9Registered?5?8@ 00516808     d3d8d:resource.obj
 0003:00045844       ??_C@_0DP@CBEBDECE@Validate?3?5Invalid?5?8Format?8?5field@ 00516924     d3d8d:resource.obj
 0003:00045890       ??_C@_0DO@BAPKGMCK@Validate?3?5Invalid?5?8Format?8?5field@ 00516970     d3d8d:resource.obj
 0003:000458e0       ??_C@_0EO@MECDGBKI@Validate?3?5Invalid?5?8Format?8?5field@ 005169c0     d3d8d:resource.obj
 0003:00045940       ??_C@_0DC@MOCIPOJE@Validate?3?5Invalid?5?8Size?8?5field?5?$CI@ 00516a20     d3d8d:resource.obj
 0003:0004597c       ??_C@_0DF@CCFCCDNF@Validate?3?5Invalid?5?8Format?8?5field@ 00516a5c     d3d8d:resource.obj
 0003:000459bc       ??_C@_0DM@GHEJOIOO@Validate?3?5Invalid?5?8Common?8?5field@ 00516a9c     d3d8d:resource.obj
 0003:00045a04       ??_C@_0DA@IDCJKANA@Validate?3?5Invalid?5?8Data?8?5field?5?$CI@ 00516ae4     d3d8d:resource.obj
 0003:00045a40       ??_C@_0CM@LCFBCANH@Validate?3?5Invalid?5?8Data?8?5field?5?$CI@ 00516b20     d3d8d:resource.obj
 0003:00045a74       ??_C@_0DB@KGLAFNFF@Validate?3?5Invalid?5?8Lock?8?5field?5?$CI@ 00516b54     d3d8d:resource.obj
 0003:00045ab0       ??_C@_0DI@DJACLJMG@Validate?3?5Invalid?5?8Common?8?5field@ 00516b90     d3d8d:resource.obj
 0003:00045af8       ??_C@_0FG@PEJDFABB@Validate?3?5Invalid?5?8Parent?8?5field@ 00516bd8     d3d8d:resource.obj
 0003:00045b60       ??_C@_0DN@PPIGBLBP@Validate?3?5Invalid?5?8Common?8?5field@ 00516c40     d3d8d:resource.obj
 0003:00045bac       ??_C@_0CC@MKOLAKO@Validate?3?5NULL?5resource?5pointer?4@ 00516c8c     d3d8d:resource.obj
 0003:00045bd8       ??_C@_0EE@GBCCIJLF@?$CIpResource?9?$DOCommon?5?$CG?5D3DCOMMON_T@ 00516cb8     d3d8d:resource.obj
 0003:00045c30       ??_C@_0ED@EDFPOPAK@D3DResource_AddRef?5overflow?5?9?5wa@ 00516d10     d3d8d:resource.obj
 0003:00045c80       ??_C@_0EF@NCNJGGFE@D3DResource_Release?5underflow?5?9?5@ 00516d60     d3d8d:resource.obj
 0003:00045cd4       ??_C@_0CE@DAPOCMLH@D3DResource_GetType?5?9?5unknown?5ty@ 00516db4     d3d8d:resource.obj
 0003:00045d00       ??_C@_0EL@DKLIGAMF@D3DResource_Register?5?9?5The?5objec@ 00516de0     d3d8d:resource.obj
 0003:00045d60       ??_C@_0EN@HOPMMMMA@D3DResource_Register?5?9?5D3DResour@ 00516e40     d3d8d:resource.obj
 0003:00045dbc       ??_C@_0DC@DOFDNLM@D3DResource_Register?5?9?5Lock?5fiel@ 00516e9c     d3d8d:resource.obj
 0003:00045df8       ??_C@_0CP@PIIMCIIO@D3DResource_Register?5?9?5Do?5not?5re@ 00516ed8     d3d8d:resource.obj
 0003:00045e30       ??_C@_0DG@NIJLIHNB@D3DResource_Register?5?9?5Do?5not?5re@ 00516f10     d3d8d:resource.obj
 0003:00045e70       ??_C@_0DP@PBBFBAHL@D3DResource_Register?5?9?5Do?5not?5re@ 00516f50     d3d8d:resource.obj
 0003:00045ebc       ??_C@_0DC@CLDHLALM@Invalid?5SizeOfData?5for?5IUnknown?5@ 00516f9c     d3d8d:resource.obj
 0003:00045ef8       ??_C@_0CA@LKLBDBBE@Invalid?5flags?5to?5SetPrivateData?$AA@ 00516fd8     d3d8d:resource.obj
 0003:00045f20       ??_C@_0L@HDAAHHIH@Usage?5?$DN?$DN?50?$AA@ 00517000     d3d8d:surface.obj
 0003:00045f30       ??_C@_0BN@LDFCBFCL@Invalid?5render?5target?5format?$AA@ 00517010     d3d8d:surface.obj
 0003:00045f54       ?g_MinFilter@D3D@@3QAY02$$CBKA 00517034     d3d8d:precomp.obj
 0003:00045f70       ?g_Pgraph@@3QBUPgraphEncoding@@B 00517050     d3d8d:precomp.obj
 0003:000476c4       ?g_Dimension@@3QBKB        005187a4     d3d8d:precomp.obj
 0003:000476d0       ?g_Dma@@3QBKB              005187b0     d3d8d:precomp.obj
 0003:000476e0       ?g_Format@@3QBKB           005187c0     d3d8d:precomp.obj
 0003:0004772c       ?g_SwathWidth@@3QBKB       0051880c     d3d8d:precomp.obj
 0003:00047754       ?g_TexGen@@3QBKB           00518834     d3d8d:precomp.obj
 0003:00047770       ?g_Face@@3QBKB             00518850     d3d8d:precomp.obj
 0003:0004777c       ?g_Cull@@3QBKB             0051885c     d3d8d:precomp.obj
 0003:00047790       ?g_FogMode@@3QBKB          00518870     d3d8d:precomp.obj
 0003:000477b8       ?g_FaceMode@@3QBKB         00518898     d3d8d:precomp.obj
 0003:000477c8       ?g_ShadeMode@@3QBKB        005188a8     d3d8d:precomp.obj
 0003:000477d4       ?g_StencilOperation@@3QBKB 005188b4     d3d8d:precomp.obj
 0003:00047800       ?g_BlendEquation@@3QBKB    005188e0     d3d8d:precomp.obj
 0003:00047828       ?g_BlendFactor@@3QBKB      00518908     d3d8d:precomp.obj
 0003:00047874       ?g_ComparisonFunction@@3QBKB 00518954     d3d8d:precomp.obj
 0003:000478a0       ?g_LogicOp@@3QBKB          00518980     d3d8d:precomp.obj
 0003:000478ec       ?g_DebugRegister@@3QBKB    005189cc     d3d8d:precomp.obj
 0003:00047920       ?g_Kelvin@@3QBU_FieldDescription@@B 00518a00     d3d8d:precomp.obj
 0003:0004d4a0       ??_C@_0BB@MJHELBHI@NV097_GET_REPORT?$AA@ 0051e580     d3d8d:precomp.obj
 0003:0004d4b4       ??_C@_0CD@MDGHHGAI@NV097_SET_ZPASS_PIXEL_COUNT_ENAB@ 0051e594     d3d8d:precomp.obj
 0003:0004d4e0       ??_C@_0BJ@KCFONLFE@NV097_CLEAR_REPORT_VALUE?$AA@ 0051e5c0     d3d8d:precomp.obj
 0003:0004d500       ??_C@_0CB@OOAFJOA@NV097_SET_BACK_MATERIAL_EMISSION@ 0051e5e0     d3d8d:precomp.obj
 0003:0004d528       ??_C@_0CD@MPEPHGJM@NV097_SET_BACK_SCENE_AMBIENT_COL@ 0051e608     d3d8d:precomp.obj
 0003:0004d554       ??_C@_0BM@GBFPEFKI@NV097_SET_TWO_SIDE_LIGHT_EN?$AA@ 0051e634     d3d8d:precomp.obj
 0003:0004d578       ??_C@_0BP@JHANHE@NV097_LAUNCH_TRANSFORM_PROGRAM?$AA@ 0051e658     d3d8d:precomp.obj
 0003:0004d5a0       ??_C@_0BJ@IEGPGNNA@NV097_SET_TRANSFORM_DATA?$AA@ 0051e680     d3d8d:precomp.obj
 0003:0004d5c0       ??_C@_0BN@NIFIKAJJ@NV097_SET_TRANSFORM_CONSTANT?$AA@ 0051e6a0     d3d8d:precomp.obj
 0003:0004d5e4       ??_C@_0N@ECIKCLFO@CONST_LD_PTR?$AA@ 0051e6c4     d3d8d:precomp.obj
 0003:0004d5f4       ??_C@_0CC@PMNCEGIM@NV097_SET_TRANSFORM_CONSTANT_LOA@ 0051e6d4     d3d8d:precomp.obj
 0003:0004d61c       ??_C@_0BM@JNMKPDHL@NV097_SET_TRANSFORM_PROGRAM?$AA@ 0051e6fc     d3d8d:precomp.obj
 0003:0004d640       ??_C@_0CC@ICBJCFJE@NV097_SET_TRANSFORM_PROGRAM_STAR@ 0051e720     d3d8d:precomp.obj
 0003:0004d668       ??_C@_0M@EENDGNIF@PROG_LD_PTR?$AA@ 0051e748     d3d8d:precomp.obj
 0003:0004d678       ??_C@_0CB@EOHKFKB@NV097_SET_TRANSFORM_PROGRAM_LOAD@ 0051e758     d3d8d:precomp.obj
 0003:0004d6a0       ??_C@_0CJ@IOMABCND@NV097_SET_TRANSFORM_PROGRAM_CXT_@ 0051e780     d3d8d:precomp.obj
 0003:0004d6d4       ??_C@_0L@ICLIPPDK@RANGE_MODE?$AA@ 0051e7b4     d3d8d:precomp.obj
 0003:0004d6e4       ??_C@_04KAFEECCN@MODE?$AA@ 0051e7c4     d3d8d:precomp.obj
 0003:0004d6ec       ??_C@_0CD@DIOFKAMI@NV097_SET_TRANSFORM_EXECUTION_MO@ 0051e7cc     d3d8d:precomp.obj
 0003:0004d718       ??_C@_0O@JLOLCGL@CD_DOT_ENABLE?$AA@ 0051e7f8     d3d8d:precomp.obj
 0003:0004d728       ??_C@_0O@EIDFKJBL@AB_DOT_ENABLE?$AA@ 0051e808     d3d8d:precomp.obj
 0003:0004d738       ??_C@_0P@FNJPJAOE@BLUETOALPHA_CD?$AA@ 0051e818     d3d8d:precomp.obj
 0003:0004d74c       ??_C@_0P@IEBODAM@BLUETOALPHA_AB?$AA@ 0051e82c     d3d8d:precomp.obj
 0003:0004d760       ??_C@_0BN@DOBPBEMD@NV097_SET_COMBINER_COLOR_OCW?$AA@ 0051e840     d3d8d:precomp.obj
 0003:0004d784       ??_C@_07LJBODBPP@FACTOR1?$AA@ 0051e864     d3d8d:precomp.obj
 0003:0004d790       ??_C@_07KAAFAALO@FACTOR0?$AA@ 0051e870     d3d8d:precomp.obj
 0003:0004d79c       ??_C@_0L@EDHPILII@MUX_SELECT?$AA@ 0051e87c     d3d8d:precomp.obj
 0003:0004d7ac       ??_C@_0BA@KKKIFKCN@ITERATION_COUNT?$AA@ 0051e88c     d3d8d:precomp.obj
 0003:0004d7c0       ??_C@_0BL@FALLIJBC@NV097_SET_COMBINER_CONTROL?$AA@ 0051e8a0     d3d8d:precomp.obj
 0003:0004d7e0       ??_C@_0BO@GFOCKLNH@NV097_SET_SPECULAR_FOG_FACTOR?$AA@ 0051e8c0     d3d8d:precomp.obj
 0003:0004d804       ??_C@_0CD@LJMHBMJH@NV097_SET_SHADER_OTHER_STAGE_INP@ 0051e8e4     d3d8d:precomp.obj
 0003:0004d830       ??_C@_08MFKJKKCJ@STAGE3_Q?$AA@ 0051e910     d3d8d:precomp.obj
 0003:0004d83c       ??_C@_08OOIEPJOK@STAGE3_R?$AA@ 0051e91c     d3d8d:precomp.obj
 0003:0004d848       ??_C@_08LINOFOGM@STAGE3_T?$AA@ 0051e928     d3d8d:precomp.obj
 0003:0004d854       ??_C@_08PHJPMIKL@STAGE3_S?$AA@ 0051e934     d3d8d:precomp.obj
 0003:0004d860       ??_C@_08HNBFMNEM@STAGE2_Q?$AA@ 0051e940     d3d8d:precomp.obj
 0003:0004d86c       ??_C@_08FGDIJOIP@STAGE2_R?$AA@ 0051e94c     d3d8d:precomp.obj
 0003:0004d878       ??_C@_08GCDJAJ@STAGE2_T?$AA@ 0051e958     d3d8d:precomp.obj
 0003:0004d884       ??_C@_08EPCDKPMO@STAGE2_S?$AA@ 0051e964     d3d8d:precomp.obj
 0003:0004d890       ??_C@_08GPKAGCKC@STAGE1_Q?$AA@ 0051e970     d3d8d:precomp.obj
 0003:0004d89c       ??_C@_08EEINDBGB@STAGE1_R?$AA@ 0051e97c     d3d8d:precomp.obj
 0003:0004d8a8       ??_C@_08BCNHJGOH@STAGE1_T?$AA@ 0051e988     d3d8d:precomp.obj
 0003:0004d8b4       ??_C@_08FNJGAACA@STAGE1_S?$AA@ 0051e994     d3d8d:precomp.obj
 0003:0004d8c0       ??_C@_08NHBMAFMH@STAGE0_Q?$AA@ 0051e9a0     d3d8d:precomp.obj
 0003:0004d8cc       ??_C@_08PMDBFGAE@STAGE0_R?$AA@ 0051e9ac     d3d8d:precomp.obj
 0003:0004d8d8       ??_C@_08KKGLPBIC@STAGE0_T?$AA@ 0051e9b8     d3d8d:precomp.obj
 0003:0004d8e4       ??_C@_08OFCKGHEF@STAGE0_S?$AA@ 0051e9c4     d3d8d:precomp.obj
 0003:0004d8f0       ??_C@_0CB@MONMCLMG@NV097_SET_SHADER_CLIP_PLANE_MODE@ 0051e9d0     d3d8d:precomp.obj
 0003:0004d918       ??_C@_0BJ@HEIBDKPA@NV097_SET_DOT_RGBMAPPING?$AA@ 0051e9f8     d3d8d:precomp.obj
 0003:0004d938       ??_C@_0BF@LJODBMMP@NV097_SET_EYE_VECTOR?$AA@ 0051ea18     d3d8d:precomp.obj
 0003:0004d954       ??_C@_06GNLKCCM@STAGE3?$AA@ 0051ea34     d3d8d:precomp.obj
 0003:0004d95c       ??_C@_06BPMAJDGN@STAGE2?$AA@ 0051ea3c     d3d8d:precomp.obj
 0003:0004d964       ??_C@_06DEONMAKO@STAGE1?$AA@ 0051ea44     d3d8d:precomp.obj
 0003:0004d96c       ??_C@_06CNPGPBOP@STAGE0?$AA@ 0051ea4c     d3d8d:precomp.obj
 0003:0004d974       ??_C@_0BP@OAKALPGI@NV097_SET_SHADER_STAGE_PROGRAM?$AA@ 0051ea54     d3d8d:precomp.obj
 0003:0004d99c       ??_C@_0BM@OMCPMIDJ@NV097_SET_SHADOW_DEPTH_FUNC?$AA@ 0051ea7c     d3d8d:precomp.obj
 0003:0004d9c0       ??_C@_0CC@ECHGEIMM@NV097_SET_SHADOW_ZSLOPE_THRESHOL@ 0051eaa0     d3d8d:precomp.obj
 0003:0004d9e8       ??_C@_0BJ@ILFKLEHH@NV097_SET_END_TRANSITION?$AA@ 0051eac8     d3d8d:precomp.obj
 0003:0004da08       ??_C@_0BB@KPBFMOBB@OUTSIDE_SEGMENTS?$AA@ 0051eae8     d3d8d:precomp.obj
 0003:0004da1c       ??_C@_0BA@HDONCNNH@INSIDE_SEGMENTS?$AA@ 0051eafc     d3d8d:precomp.obj
 0003:0004da30       ??_C@_0BM@EAGOKBMN@NV097_SET_BEGIN_TRANSITION2?$AA@ 0051eb10     d3d8d:precomp.obj
 0003:0004da54       ??_C@_0BM@GLEDPCAO@NV097_SET_BEGIN_TRANSITION1?$AA@ 0051eb34     d3d8d:precomp.obj
 0003:0004da78       ??_C@_0BM@HCFIMDEP@NV097_SET_BEGIN_TRANSITION0?$AA@ 0051eb58     d3d8d:precomp.obj
 0003:0004da9c       ??_C@_0BN@GCINPNHL@NV097_SET_CURVE_COEFFICIENTS?$AA@ 0051eb7c     d3d8d:precomp.obj
 0003:0004dac0       ??_C@_03LLENEDKC@CMD?$AA@  0051eba0     d3d8d:precomp.obj
 0003:0004dac4       ??_C@_0BK@FFMPELDA@NV097_SET_BEGIN_END_CURVE?$AA@ 0051eba4     d3d8d:precomp.obj
 0003:0004dae4       ??_C@_0O@KJFNIJBE@NARROW_SWATCH?$AA@ 0051ebc4     d3d8d:precomp.obj
 0003:0004daf4       ??_C@_0N@EBHLLNHN@SHORT_SWATCH?$AA@ 0051ebd4     d3d8d:precomp.obj
 0003:0004db04       ??_C@_0P@DDDALMBE@SKIP_FIRST_COL?$AA@ 0051ebe4     d3d8d:precomp.obj
 0003:0004db18       ??_C@_0P@HCKDEHHE@SKIP_FIRST_ROW?$AA@ 0051ebf8     d3d8d:precomp.obj
 0003:0004db2c       ??_C@_09PCOJJAOI@NEW_SWATH?$AA@ 0051ec0c     d3d8d:precomp.obj
 0003:0004db38       ??_C@_0L@HPDEFOMB@SWATCH_CMD?$AA@ 0051ec18     d3d8d:precomp.obj
 0003:0004db48       ??_C@_0BL@LNPOFOEE@NV097_SET_BEGIN_END_SWATCH?$AA@ 0051ec28     d3d8d:precomp.obj
 0003:0004db68       ??_C@_0BE@LMJJNAEB@NV097_SET_END_PATCH?$AA@ 0051ec48     d3d8d:precomp.obj
 0003:0004db80       ??_C@_0L@KMKAMMKM@NUM_COEFFS?$AA@ 0051ec60     d3d8d:precomp.obj
 0003:0004db90       ??_C@_0M@BNNFHBDB@TESSELATION?$AA@ 0051ec70     d3d8d:precomp.obj
 0003:0004dba0       ??_C@_09MCMHJBE@PRIMITIVE?$AA@ 0051ec80     d3d8d:precomp.obj
 0003:0004dbac       ??_C@_0BK@GKELJGNM@NORMAL_GUARD_CURVE_DEGREE?$AA@ 0051ec8c     d3d8d:precomp.obj
 0003:0004dbcc       ??_C@_0BM@EHDNFGJL@POSITION_GUARD_CURVE_DEGREE?$AA@ 0051ecac     d3d8d:precomp.obj
 0003:0004dbf0       ??_C@_08DHCCKBIC@COL_TRNS?$AA@ 0051ecd0     d3d8d:precomp.obj
 0003:0004dbfc       ??_C@_08OJEADPIE@ROW_TRNS?$AA@ 0051ecdc     d3d8d:precomp.obj
 0003:0004dc08       ??_C@_0BH@NEOHDHLG@NV097_SET_BEGIN_PATCH3?$AA@ 0051ece8     d3d8d:precomp.obj
 0003:0004dc24       ??_C@_0L@FAKBHDC@PATCH_TYPE?$AA@ 0051ed04     d3d8d:precomp.obj
 0003:0004dc34       ??_C@_0BG@DHFJECPL@PARTIAL_SWATCH_HEIGHT?$AA@ 0051ed14     d3d8d:precomp.obj
 0003:0004dc50       ??_C@_0BF@DGAFAGLN@PARTIAL_SWATCH_WIDTH?$AA@ 0051ed30     d3d8d:precomp.obj
 0003:0004dc6c       ??_C@_0M@JICIPDJH@SWATCH_SIZE?$AA@ 0051ed4c     d3d8d:precomp.obj
 0003:0004dc7c       ??_C@_0M@NJJAFBNM@SWATCH_COLS?$AA@ 0051ed5c     d3d8d:precomp.obj
 0003:0004dc8c       ??_C@_0M@JEGDKDHP@SWATCH_ROWS?$AA@ 0051ed6c     d3d8d:precomp.obj
 0003:0004dc9c       ??_C@_0BH@MNPMAGPH@NV097_SET_BEGIN_PATCH2?$AA@ 0051ed7c     d3d8d:precomp.obj
 0003:0004dcb8       ??_C@_0P@FFAHNDLP@PARAM15_DEGREE?$AA@ 0051ed98     d3d8d:precomp.obj
 0003:0004dccc       ??_C@_0P@ECHMMHPM@PARAM14_DEGREE?$AA@ 0051edac     d3d8d:precomp.obj
 0003:0004dce0       ??_C@_0P@CGBNKKDF@PARAM13_DEGREE?$AA@ 0051edc0     d3d8d:precomp.obj
 0003:0004dcf4       ??_C@_0P@DBGGLOHG@PARAM12_DEGREE?$AA@ 0051edd4     d3d8d:precomp.obj
 0003:0004dd08       ??_C@_0P@IOLICLD@PARAM11_DEGREE?$AA@ 0051ede8     d3d8d:precomp.obj
 0003:0004dd1c       ??_C@_0P@BPJAJGPA@PARAM10_DEGREE?$AA@ 0051edfc     d3d8d:precomp.obj
 0003:0004dd30       ??_C@_0O@FEFLGBGK@PARAM9_DEGREE?$AA@ 0051ee10     d3d8d:precomp.obj
 0003:0004dd40       ??_C@_0O@EDCAHFCJ@PARAM8_DEGREE?$AA@ 0051ee20     d3d8d:precomp.obj
 0003:0004dd50       ??_C@_0BH@OGNBFFDE@NV097_SET_BEGIN_PATCH1?$AA@ 0051ee30     d3d8d:precomp.obj
 0003:0004dd6c       ??_C@_0O@JMJJLKPI@PARAM7_DEGREE?$AA@ 0051ee4c     d3d8d:precomp.obj
 0003:0004dd7c       ??_C@_0O@ILOCKOLL@PARAM6_DEGREE?$AA@ 0051ee5c     d3d8d:precomp.obj
 0003:0004dd8c       ??_C@_0O@LCGPJCHO@PARAM5_DEGREE?$AA@ 0051ee6c     d3d8d:precomp.obj
 0003:0004dd9c       ??_C@_0O@KFBEIGDN@PARAM4_DEGREE?$AA@ 0051ee7c     d3d8d:precomp.obj
 0003:0004ddac       ??_C@_0O@MBHFOLPE@PARAM3_DEGREE?$AA@ 0051ee8c     d3d8d:precomp.obj
 0003:0004ddbc       ??_C@_0O@NGAOPPLH@PARAM2_DEGREE?$AA@ 0051ee9c     d3d8d:precomp.obj
 0003:0004ddcc       ??_C@_0O@OPIDMDHC@PARAM1_DEGREE?$AA@ 0051eeac     d3d8d:precomp.obj
 0003:0004dddc       ??_C@_0BA@NMNKOPEO@POSITION_DEGREE?$AA@ 0051eebc     d3d8d:precomp.obj
 0003:0004ddf0       ??_C@_0BH@PPMKGEHF@NV097_SET_BEGIN_PATCH0?$AA@ 0051eed0     d3d8d:precomp.obj
 0003:0004de0c       ??_C@_0BO@MOBPGGMH@NV097_SET_CLEAR_RECT_VERTICAL?$AA@ 0051eeec     d3d8d:precomp.obj
 0003:0004de30       ??_C@_0CA@DHOLFJHC@NV097_SET_CLEAR_RECT_HORIZONTAL?$AA@ 0051ef10     d3d8d:precomp.obj
 0003:0004de58       ??_C@_01FHEEJDEE@A?$AA@    0051ef38     d3d8d:precomp.obj
 0003:0004de5c       ??_C@_01HMGJMAIH@B?$AA@    0051ef3c     d3d8d:precomp.obj
 0003:0004de60       ??_C@_01BBODEMC@G?$AA@     0051ef40     d3d8d:precomp.obj
 0003:0004de64       ??_C@_01DGKLNCNG@R?$AA@    0051ef44     d3d8d:precomp.obj
 0003:0004de68       ??_C@_07IEJOCFHF@STENCIL?$AA@ 0051ef48     d3d8d:precomp.obj
 0003:0004de74       ??_C@_01POHCFINO@Z?$AA@    0051ef54     d3d8d:precomp.obj
 0003:0004de78       ??_C@_0BE@LHMFKHLP@NV097_CLEAR_SURFACE?$AA@ 0051ef58     d3d8d:precomp.obj
 0003:0004de90       ??_C@_0BM@CMIAFBIA@NV097_SET_COLOR_CLEAR_VALUE?$AA@ 0051ef70     d3d8d:precomp.obj
 0003:0004deb4       ??_C@_0BP@EGFHCDGD@NV097_SET_ZSTENCIL_CLEAR_VALUE?$AA@ 0051ef94     d3d8d:precomp.obj
 0003:0004dedc       ??_C@_0O@JBCBGEFJ@ANTI_ALIASING?$AA@ 0051efbc     d3d8d:precomp.obj
 0003:0004deec       ??_C@_0BJ@OCAFFBJF@NV097_SET_SURFACE_FORMAT?$AA@ 0051efcc     d3d8d:precomp.obj
 0003:0004df0c       ??_C@_0BD@EFGOIHHM@OCCLUDE_STENCIL_EN?$AA@ 0051efec     d3d8d:precomp.obj
 0003:0004df24       ??_C@_0M@DABDIPCE@OCCLUDE_ZEN?$AA@ 0051f004     d3d8d:precomp.obj
 0003:0004df34       ??_C@_0BO@LJIADFCM@NV097_SET_OCCLUDE_ZSTENCIL_EN?$AA@ 0051f014     d3d8d:precomp.obj
 0003:0004df58       ??_C@_0BO@BNICDBHI@NV097_SET_COMPRESS_ZBUFFER_EN?$AA@ 0051f038     d3d8d:precomp.obj
 0003:0004df7c       ??_C@_0M@KKHKCIPM@SAMPLE_MASK?$AA@ 0051f05c     d3d8d:precomp.obj
 0003:0004df8c       ??_C@_0N@LCGPBJJK@ALPHA_TO_ONE?$AA@ 0051f06c     d3d8d:precomp.obj
 0003:0004df9c       ??_C@_0BC@JJECAKHD@ALPHA_TO_COVERAGE?$AA@ 0051f07c     d3d8d:precomp.obj
 0003:0004dfb4       ??_C@_0CA@EIDLLFEA@NV097_SET_ANTI_ALIASING_CONTROL?$AA@ 0051f094     d3d8d:precomp.obj
 0003:0004dfdc       ??_C@_0O@GBENCCGD@CULL_IGNORE_W?$AA@ 0051f0bc     d3d8d:precomp.obj
 0003:0004dfec       ??_C@_09MJACPDII@ZCLAMP_EN?$AA@ 0051f0cc     d3d8d:precomp.obj
 0003:0004dff8       ??_C@_0BB@LFCKHBHD@CULL_NEAR_FAR_EN?$AA@ 0051f0d8     d3d8d:precomp.obj
 0003:0004e00c       ??_C@_0BL@MFPCANCD@NV097_SET_ZMIN_MAX_CONTROL?$AA@ 0051f0ec     d3d8d:precomp.obj
 0003:0004e02c       ??_C@_0CF@NCGGEPGN@NV097_TEXTURE_READ_SEMAPHORE_REL@ 0051f10c     d3d8d:precomp.obj
 0003:0004e058       ??_C@_0CH@LJBPPGLK@NV097_BACK_END_WRITE_SEMAPHORE_R@ 0051f138     d3d8d:precomp.obj
 0003:0004e088       ??_C@_0BL@CCIBAOCA@NV097_SET_SEMAPHORE_OFFSET?$AA@ 0051f168     d3d8d:precomp.obj
 0003:0004e0a8       ??_C@_0BH@LNEKBOMK@NV097_UNPARK_ATTRIBUTE?$AA@ 0051f188     d3d8d:precomp.obj
 0003:0004e0c4       ??_C@_0BF@JDJJIFHO@NV097_PARK_ATTRIBUTE?$AA@ 0051f1a4     d3d8d:precomp.obj
 0003:0004e0e0       ??_C@_0CG@IPGPEHHF@NV097_SET_TEXTURE_SET_BUMP_ENV_O@ 0051f1c0     d3d8d:precomp.obj
 0003:0004e110       ??_C@_0CF@FAIGIOFF@NV097_SET_TEXTURE_SET_BUMP_ENV_S@ 0051f1f0     d3d8d:precomp.obj
 0003:0004e13c       ??_C@_0CF@HKDMGPMD@NV097_SET_TEXTURE_SET_BUMP_ENV_M@ 0051f21c     d3d8d:precomp.obj
 0003:0004e168       ??_C@_0CF@GDCHFOIC@NV097_SET_TEXTURE_SET_BUMP_ENV_M@ 0051f248     d3d8d:precomp.obj
 0003:0004e194       ??_C@_0CF@GCOFDELF@NV097_SET_TEXTURE_SET_BUMP_ENV_M@ 0051f274     d3d8d:precomp.obj
 0003:0004e1c0       ??_C@_0CF@HLPOAFPE@NV097_SET_TEXTURE_SET_BUMP_ENV_M@ 0051f2a0     d3d8d:precomp.obj
 0003:0004e1ec       ??_C@_0BP@CFGBKACF@NV097_SET_TEXTURE_BORDER_COLOR?$AA@ 0051f2cc     d3d8d:precomp.obj
 0003:0004e214       ??_C@_06MLIGBJO@LENGTH?$AA@ 0051f2f4     d3d8d:precomp.obj
 0003:0004e21c       ??_C@_0BK@FGJIHGBE@NV097_SET_TEXTURE_PALETTE?$AA@ 0051f2fc     d3d8d:precomp.obj
 0003:0004e23c       ??_C@_0BN@JJBMBLPL@NV097_SET_TEXTURE_IMAGE_RECT?$AA@ 0051f31c     d3d8d:precomp.obj
 0003:0004e260       ??_C@_07LIFDCDPF@BSIGNED?$AA@ 0051f340     d3d8d:precomp.obj
 0003:0004e26c       ??_C@_07PALDCNJB@GSIGNED?$AA@ 0051f34c     d3d8d:precomp.obj
 0003:0004e278       ??_C@_07MEOIBCNO@RSIGNED?$AA@ 0051f358     d3d8d:precomp.obj
 0003:0004e284       ??_C@_07DGNMCEBG@ASIGNED?$AA@ 0051f364     d3d8d:precomp.obj
 0003:0004e290       ??_C@_03HJKFJODG@MAG?$AA@  0051f370     d3d8d:precomp.obj
 0003:0004e294       ??_C@_03KGHEHEMH@MIN?$AA@  0051f374     d3d8d:precomp.obj
 0003:0004e298       ??_C@_0BD@IMOIILLF@CONVOLUTION_KERNEL?$AA@ 0051f378     d3d8d:precomp.obj
 0003:0004e2b0       ??_C@_0BA@GPFCJDMJ@MIPMAP_LOD_BIAS?$AA@ 0051f390     d3d8d:precomp.obj
 0003:0004e2c4       ??_C@_0BJ@GGECPHII@NV097_SET_TEXTURE_FILTER?$AA@ 0051f3a4     d3d8d:precomp.obj
 0003:0004e2e4       ??_C@_0M@BMCJOLDA@IMAGE_PITCH?$AA@ 0051f3c4     d3d8d:precomp.obj
 0003:0004e2f4       ??_C@_0BL@EIKPJJJ@NV097_SET_TEXTURE_CONTROL1?$AA@ 0051f3d4     d3d8d:precomp.obj
 0003:0004e314       ??_C@_0BE@BKGAOHDP@COLOR_KEY_OPERATION?$AA@ 0051f3f4     d3d8d:precomp.obj
 0003:0004e32c       ??_C@_0BD@GBDMNPNH@IMAGE_FIELD_ENABLE?$AA@ 0051f40c     d3d8d:precomp.obj
 0003:0004e344       ??_C@_0O@FNHLNCOL@LOG_MAX_ANISO?$AA@ 0051f424     d3d8d:precomp.obj
 0003:0004e354       ??_C@_0O@GBFEIDAI@MAX_LOD_CLAMP?$AA@ 0051f434     d3d8d:precomp.obj
 0003:0004e364       ??_C@_0O@NIHCBIHJ@MIN_LOD_CLAMP?$AA@ 0051f444     d3d8d:precomp.obj
 0003:0004e374       ??_C@_06OBPCDPOI@ENABLE?$AA@ 0051f454     d3d8d:precomp.obj
 0003:0004e37c       ??_C@_0BL@BNJBMINI@NV097_SET_TEXTURE_CONTROL0?$AA@ 0051f45c     d3d8d:precomp.obj
 0003:0004e39c       ??_C@_09ENBAOKD@CYLWRAP_Q?$AA@ 0051f47c     d3d8d:precomp.obj
 0003:0004e3a8       ??_C@_09BNMKDPOC@CYLWRAP_P?$AA@ 0051f488     d3d8d:precomp.obj
 0003:0004e3b4       ??_C@_01EJNLAFE@P?$AA@     0051f494     d3d8d:precomp.obj
 0003:0004e3b8       ??_C@_09ELJAJIGE@CYLWRAP_V?$AA@ 0051f498     d3d8d:precomp.obj
 0003:0004e3c4       ??_C@_09GALNMLKH@CYLWRAP_U?$AA@ 0051f4a4     d3d8d:precomp.obj
 0003:0004e3d0       ??_C@_01HJOKEEBB@U?$AA@    0051f4b0     d3d8d:precomp.obj
 0003:0004e3d4       ??_C@_0BK@HLFADCFB@NV097_SET_TEXTURE_ADDRESS?$AA@ 0051f4b4     d3d8d:precomp.obj
 0003:0004e3f4       ??_C@_0M@DMMMKPIL@BASE_SIZE_P?$AA@ 0051f4d4     d3d8d:precomp.obj
 0003:0004e404       ??_C@_0M@GKJGAIAN@BASE_SIZE_V?$AA@ 0051f4e4     d3d8d:precomp.obj
 0003:0004e414       ??_C@_0M@EBLLFLMO@BASE_SIZE_U?$AA@ 0051f4f4     d3d8d:precomp.obj
 0003:0004e424       ??_C@_0O@GDCFDEDC@MIPMAP_LEVELS?$AA@ 0051f504     d3d8d:precomp.obj
 0003:0004e434       ??_C@_0P@CKFHKEFO@DIMENSIONALITY?$AA@ 0051f514     d3d8d:precomp.obj
 0003:0004e448       ??_C@_0O@IIJIFPKC@BORDER_SOURCE?$AA@ 0051f528     d3d8d:precomp.obj
 0003:0004e458       ??_C@_0P@DEICCLOP@CUBEMAP_ENABLE?$AA@ 0051f538     d3d8d:precomp.obj
 0003:0004e46c       ??_C@_0BJ@BDIJCKDJ@NV097_SET_TEXTURE_FORMAT?$AA@ 0051f54c     d3d8d:precomp.obj
 0003:0004e48c       ??_C@_0BJ@IDLBIHBA@NV097_SET_TEXTURE_OFFSET?$AA@ 0051f56c     d3d8d:precomp.obj
 0003:0004e4ac       ??_C@_0BD@FHINDLMF@NV097_INLINE_ARRAY?$AA@ 0051f58c     d3d8d:precomp.obj
 0003:0004e4c4       ??_C@_0BK@EIJPIAJD@NV097_INLINE_VERTEX_REUSE?$AA@ 0051f5a4     d3d8d:precomp.obj
 0003:0004e4e4       ??_C@_0M@PBFEJEFH@START_INDEX?$AA@ 0051f5c4     d3d8d:precomp.obj
 0003:0004e4f4       ??_C@_05EFFCCOAM@COUNT?$AA@ 0051f5d4     d3d8d:precomp.obj
 0003:0004e4fc       ??_C@_0BC@LFALMAPM@NV097_DRAW_ARRAYS?$AA@ 0051f5dc     d3d8d:precomp.obj
 0003:0004e514       ??_C@_0BG@GJOAHDKK@NV097_ARRAY_ELEMENT32?$AA@ 0051f5f4     d3d8d:precomp.obj
 0003:0004e530       ??_C@_07JLEKJAEL@VERTEX1?$AA@ 0051f610     d3d8d:precomp.obj
 0003:0004e53c       ??_C@_07ICFBKBAK@VERTEX0?$AA@ 0051f61c     d3d8d:precomp.obj
 0003:0004e548       ??_C@_0BG@OAIGCMA@NV097_ARRAY_ELEMENT16?$AA@ 0051f628     d3d8d:precomp.obj
 0003:0004e564       ??_C@_02MBMDLBEE@OP?$AA@   0051f644     d3d8d:precomp.obj
 0003:0004e568       ??_C@_0BE@PMFFFNFP@NV097_SET_BEGIN_END?$AA@ 0051f648     d3d8d:precomp.obj
 0003:0004e580       ??_C@_0BD@OFCABPDA@NV097_SET_LOGIC_OP?$AA@ 0051f660     d3d8d:precomp.obj
 0003:0004e598       ??_C@_0BK@HFOEHFBB@NV097_SET_LOGIC_OP_ENABLE?$AA@ 0051f678     d3d8d:precomp.obj
 0003:0004e5b8       ??_C@_04EMFHLKGI@SIZE?$AA@ 0051f698     d3d8d:precomp.obj
 0003:0004e5c0       ??_C@_06LJODIMAK@STRIDE?$AA@ 0051f6a0     d3d8d:precomp.obj
 0003:0004e5c8       ??_C@_0CD@LKNKPGHA@NV097_SET_VERTEX_DATA_ARRAY_FORM@ 0051f6a8     d3d8d:precomp.obj
 0003:0004e5f4       ??_C@_06KPFMBGLO@OFFSET?$AA@ 0051f6d4     d3d8d:precomp.obj
 0003:0004e5fc       ??_C@_0M@PAOHEAMP@CONTEXT_DMA?$AA@ 0051f6dc     d3d8d:precomp.obj
 0003:0004e60c       ??_C@_0CD@CKOCFLFJ@NV097_SET_VERTEX_DATA_ARRAY_OFFS@ 0051f6ec     d3d8d:precomp.obj
 0003:0004e638       ??_C@_0O@KKDKIJLC@NV097_TL_SYNC?$AA@ 0051f718     d3d8d:precomp.obj
 0003:0004e648       ??_C@_0N@LBIJJCBL@NV097_TL_NOP?$AA@ 0051f728     d3d8d:precomp.obj
 0003:0004e658       ??_C@_0BN@KACPMCDH@NV097_INVALIDATE_VERTEX_FILE?$AA@ 0051f738     d3d8d:precomp.obj
 0003:0004e67c       ??_C@_0CD@KDHFMNFG@NV097_INVALIDATE_VERTEX_CACHE_FI@ 0051f75c     d3d8d:precomp.obj
 0003:0004e6a8       ??_C@_0BL@OJAHJCDF@NV097_SET_LINEAR_FOG_CONST?$AA@ 0051f788     d3d8d:precomp.obj
 0003:0004e6c8       ??_C@_0BI@PKPCLBEP@NV097_SET_EYE_DIRECTION?$AA@ 0051f7a8     d3d8d:precomp.obj
 0003:0004e6e4       ??_C@_0BH@HCDHNELD@NV097_SET_TLCONST_ZERO?$AA@ 0051f7c4     d3d8d:precomp.obj
 0003:0004e700       ??_C@_0CB@BBCJMAOI@NV097_SET_TRANSFORM_FIXED_CONST3@ 0051f7e0     d3d8d:precomp.obj
 0003:0004e728       ??_C@_0CB@IDCPBKJ@NV097_SET_TRANSFORM_FIXED_CONST2@ 0051f808     d3d8d:precomp.obj
 0003:0004e750       ??_C@_0CB@CDBPKCGK@NV097_SET_TRANSFORM_FIXED_CONST1@ 0051f830     d3d8d:precomp.obj
 0003:0004e778       ??_C@_0CB@DKAEJDCL@NV097_SET_TRANSFORM_FIXED_CONST0@ 0051f858     d3d8d:precomp.obj
 0003:0004e7a0       ??_C@_0BE@DGFBEHKI@NV097_SET_EDGE_FLAG?$AA@ 0051f880     d3d8d:precomp.obj
 0003:0004e7b8       ??_C@_0BD@NEKNEBAP@NV097_SET_WEIGHT4F?$AA@ 0051f898     d3d8d:precomp.obj
 0003:0004e7d0       ??_C@_0BD@NBOCFHIK@NV097_SET_WEIGHT3F?$AA@ 0051f8b0     d3d8d:precomp.obj
 0003:0004e7e8       ??_C@_0BD@NACADNLN@NV097_SET_WEIGHT2F?$AA@ 0051f8c8     d3d8d:precomp.obj
 0003:0004e800       ??_C@_0BD@NCGGIDOE@NV097_SET_WEIGHT1F?$AA@ 0051f8e0     d3d8d:precomp.obj
 0003:0004e818       ??_C@_0BA@FFCKOPAJ@NV097_SET_FOG1F?$AA@ 0051f8f8     d3d8d:precomp.obj
 0003:0004e82c       ??_C@_0BH@EPHAPCGO@NV097_SET_TEXCOORD3_4S?$AA@ 0051f90c     d3d8d:precomp.obj
 0003:0004e848       ??_C@_0BH@HIMFBEHK@NV097_SET_TEXCOORD3_4F?$AA@ 0051f928     d3d8d:precomp.obj
 0003:0004e864       ??_C@_0BH@ELPNIONM@NV097_SET_TEXCOORD3_2S?$AA@ 0051f944     d3d8d:precomp.obj
 0003:0004e880       ??_C@_0BH@EBCIEBHI@NV097_SET_TEXCOORD2_2F?$AA@ 0051f960     d3d8d:precomp.obj
 0003:0004e89c       ??_C@_0BH@HCBANLNO@NV097_SET_TEXCOORD2_4S?$AA@ 0051f97c     d3d8d:precomp.obj
 0003:0004e8b8       ??_C@_0BH@EFKFDNMK@NV097_SET_TEXCOORD2_4F?$AA@ 0051f998     d3d8d:precomp.obj
 0003:0004e8d4       ??_C@_0BH@HGJNKHGM@NV097_SET_TEXCOORD2_2S?$AA@ 0051f9b4     d3d8d:precomp.obj
 0003:0004e8f0       ??_C@_0BH@GIIDLKI@NV097_SET_TEXCOORD1_2F?$AA@ 0051f9d0     d3d8d:precomp.obj
 0003:0004e90c       ??_C@_0BH@DFLAKBAO@NV097_SET_TEXCOORD1_4S?$AA@ 0051f9ec     d3d8d:precomp.obj
 0003:0004e928       ??_C@_0BH@CAFEHBK@NV097_SET_TEXCOORD1_4F?$AA@ 0051fa08     d3d8d:precomp.obj
 0003:0004e944       ??_C@_0BH@DBDNNNLM@NV097_SET_TEXCOORD1_2S?$AA@ 0051fa24     d3d8d:precomp.obj
 0003:0004e960       ??_C@_0BH@INAIILO@NV097_SET_TEXCOORD0_4S?$AA@ 0051fa40     d3d8d:precomp.obj
 0003:0004e97c       ??_C@_0BH@DPGFGOKK@NV097_SET_TEXCOORD0_4F?$AA@ 0051fa5c     d3d8d:precomp.obj
 0003:0004e998       ??_C@_0BH@MFNPEAM@NV097_SET_TEXCOORD0_2S?$AA@ 0051fa78     d3d8d:precomp.obj
 0003:0004e9b4       ??_C@_0BH@DLOIBCBI@NV097_SET_TEXCOORD0_2F?$AA@ 0051fa94     d3d8d:precomp.obj
 0003:0004e9d0       ??_C@_0BM@HKGECKDH@NV097_SET_SPECULAR_COLOR4UB?$AA@ 0051fab0     d3d8d:precomp.obj
 0003:0004e9f4       ??_C@_0BL@PCACOICA@NV097_SET_SPECULAR_COLOR3F?$AA@ 0051fad4     d3d8d:precomp.obj
 0003:0004ea14       ??_C@_0BL@PHENPOKF@NV097_SET_SPECULAR_COLOR4F?$AA@ 0051faf4     d3d8d:precomp.obj
 0003:0004ea34       ??_C@_0BL@FEMEPGJO@NV097_SET_DIFFUSE_COLOR4UB?$AA@ 0051fb14     d3d8d:precomp.obj
 0003:0004ea54       ??_C@_0BK@OGNDMAFN@NV097_SET_DIFFUSE_COLOR3F?$AA@ 0051fb34     d3d8d:precomp.obj
 0003:0004ea74       ??_C@_0BK@ODJMNGNI@NV097_SET_DIFFUSE_COLOR4F?$AA@ 0051fb54     d3d8d:precomp.obj
 0003:0004ea94       ??_C@_0BD@CLALKPCP@NV097_SET_NORMAL3S?$AA@ 0051fb74     d3d8d:precomp.obj
 0003:0004eaac       ??_C@_0BD@BMLOEJDL@NV097_SET_NORMAL3F?$AA@ 0051fb8c     d3d8d:precomp.obj
 0003:0004eac4       ??_C@_0BD@KGLOHAFA@NV097_SET_VERTEX4S?$AA@ 0051fba4     d3d8d:precomp.obj
 0003:0004eadc       ??_C@_0BD@JBALJGEE@NV097_SET_VERTEX4F?$AA@ 0051fbbc     d3d8d:precomp.obj
 0003:0004eaf4       ??_C@_0BD@JEEEIAMB@NV097_SET_VERTEX3F?$AA@ 0051fbd4     d3d8d:precomp.obj
 0003:0004eb0c       ??_C@_0CC@BGBINHFE@NV097_SET_LIGHT_LOCAL_ATTENUATIO@ 0051fbec     d3d8d:precomp.obj
 0003:0004eb34       ??_C@_0BP@NCMIFCPI@NV097_SET_LIGHT_LOCAL_POSITION?$AA@ 0051fc14     d3d8d:precomp.obj
 0003:0004eb5c       ??_C@_0BP@FGBHCHDA@NV097_SET_LIGHT_SPOT_DIRECTION?$AA@ 0051fc3c     d3d8d:precomp.obj
 0003:0004eb84       ??_C@_0BN@EDFOJIMA@NV097_SET_LIGHT_SPOT_FALLOFF?$AA@ 0051fc64     d3d8d:precomp.obj
 0003:0004eba8       ??_C@_0CD@KIOOCNHK@NV097_SET_LIGHT_INFINITE_DIRECTI@ 0051fc88     d3d8d:precomp.obj
 0003:0004ebd4       ??_C@_0CF@ONHKBOFK@NV097_SET_LIGHT_INFINITE_HALF_VE@ 0051fcb4     d3d8d:precomp.obj
 0003:0004ec00       ??_C@_0BM@OFLAHKFM@NV097_SET_LIGHT_LOCAL_RANGE?$AA@ 0051fce0     d3d8d:precomp.obj
 0003:0004ec24       ??_C@_0BP@FLFPDHHB@NV097_SET_LIGHT_SPECULAR_COLOR?$AA@ 0051fd04     d3d8d:precomp.obj
 0003:0004ec4c       ??_C@_0BO@PKEHKIJL@NV097_SET_LIGHT_DIFFUSE_COLOR?$AA@ 0051fd2c     d3d8d:precomp.obj
 0003:0004ec70       ??_C@_0BO@OEJDHGKC@NV097_SET_LIGHT_AMBIENT_COLOR?$AA@ 0051fd50     d3d8d:precomp.obj
 0003:0004ec94       ??_C@_0CE@CAMOCDGM@NV097_SET_BACK_LIGHT_SPECULAR_CO@ 0051fd74     d3d8d:precomp.obj
 0003:0004ecc0       ??_C@_0CD@NKHIBLFB@NV097_SET_BACK_LIGHT_DIFFUSE_COL@ 0051fda0     d3d8d:precomp.obj
 0003:0004ecec       ??_C@_0CD@MEKMMFGI@NV097_SET_BACK_LIGHT_AMBIENT_COL@ 0051fdcc     d3d8d:precomp.obj
 0003:0004ed18       ??_C@_0BH@OHDLBIJP@NV097_SET_EYE_POSITION?$AA@ 0051fdf8     d3d8d:precomp.obj
 0003:0004ed34       ??_C@_0BH@CFLAKALB@NV097_SET_POINT_PARAMS?$AA@ 0051fe14     d3d8d:precomp.obj
 0003:0004ed50       ??_C@_0BK@POGHMCFD@NV097_SET_VIEWPORT_OFFSET?$AA@ 0051fe30     d3d8d:precomp.obj
 0003:0004ed70       ??_C@_0BJ@OJIGCBBB@NV097_SET_VIEWPORT_SCALE?$AA@ 0051fe50     d3d8d:precomp.obj
 0003:0004ed90       ??_C@_0BO@OPHAMFFG@NV097_SET_SCENE_AMBIENT_COLOR?$AA@ 0051fe70     d3d8d:precomp.obj
 0003:0004edb4       ??_C@_0BP@FBKJPACA@NV097_SET_BACK_SPECULAR_PARAMS?$AA@ 0051fe94     d3d8d:precomp.obj
 0003:0004eddc       ??_C@_0BK@NOODLMOP@NV097_SET_SPECULAR_PARAMS?$AA@ 0051febc     d3d8d:precomp.obj
 0003:0004edfc       ??_C@_0BE@OMHLPGOA@NV097_SET_FOG_PLANE?$AA@ 0051fedc     d3d8d:precomp.obj
 0003:0004ee14       ??_C@_0BF@PMNOCIHL@NV097_SET_FOG_PARAMS?$AA@ 0051fef4     d3d8d:precomp.obj
 0003:0004ee30       ??_C@_0BJ@IOLEHMLG@NV097_SET_TEXGEN_PLANE_Q?$AA@ 0051ff10     d3d8d:precomp.obj
 0003:0004ee50       ??_C@_0BJ@KFJJCPHF@NV097_SET_TEXGEN_PLANE_R?$AA@ 0051ff30     d3d8d:precomp.obj
 0003:0004ee70       ??_C@_0BJ@PDMDIIPD@NV097_SET_TEXGEN_PLANE_T?$AA@ 0051ff50     d3d8d:precomp.obj
 0003:0004ee90       ??_C@_0BJ@LMICBODE@NV097_SET_TEXGEN_PLANE_S?$AA@ 0051ff70     d3d8d:precomp.obj
 0003:0004eeb0       ??_C@_0BK@FOGPDBNM@NV097_SET_TEXTURE_MATRIX3?$AA@ 0051ff90     d3d8d:precomp.obj
 0003:0004eed0       ??_C@_0BK@EHHEAAJN@NV097_SET_TEXTURE_MATRIX2?$AA@ 0051ffb0     d3d8d:precomp.obj
 0003:0004eef0       ??_C@_0BK@GMFJFDFO@NV097_SET_TEXTURE_MATRIX1?$AA@ 0051ffd0     d3d8d:precomp.obj
 0003:0004ef10       ??_C@_0BK@HFECGCBP@NV097_SET_TEXTURE_MATRIX0?$AA@ 0051fff0     d3d8d:precomp.obj
 0003:0004ef30       ??_C@_0BL@LMCBEEAM@NV097_SET_COMPOSITE_MATRIX?$AA@ 00520010     d3d8d:precomp.obj
 0003:0004ef50       ??_C@_0CF@PEHKIBHG@NV097_SET_INVERSE_MODEL_VIEW_MAT@ 00520030     d3d8d:precomp.obj
 0003:0004ef7c       ??_C@_0CF@ONGBLADH@NV097_SET_INVERSE_MODEL_VIEW_MAT@ 0052005c     d3d8d:precomp.obj
 0003:0004efa8       ??_C@_0CF@MGEMODPE@NV097_SET_INVERSE_MODEL_VIEW_MAT@ 00520088     d3d8d:precomp.obj
 0003:0004efd4       ??_C@_0CF@NPFHNCLF@NV097_SET_INVERSE_MODEL_VIEW_MAT@ 005200b4     d3d8d:precomp.obj
 0003:0004f000       ??_C@_0BN@MCFJIAKH@NV097_SET_MODEL_VIEW_MATRIX3?$AA@ 005200e0     d3d8d:precomp.obj
 0003:0004f024       ??_C@_0BN@NLECLBOG@NV097_SET_MODEL_VIEW_MATRIX2?$AA@ 00520104     d3d8d:precomp.obj
 0003:0004f048       ??_C@_0BN@PAGPOCCF@NV097_SET_MODEL_VIEW_MATRIX1?$AA@ 00520128     d3d8d:precomp.obj
 0003:0004f06c       ??_C@_0BN@OJHENDGE@NV097_SET_MODEL_VIEW_MATRIX0?$AA@ 0052014c     d3d8d:precomp.obj
 0003:0004f090       ??_C@_0BM@JMIKDKAL@NV097_SET_PROJECTION_MATRIX?$AA@ 00520170     d3d8d:precomp.obj
 0003:0004f0b4       ??_C@_0BI@BBLODPHA@NV097_SET_FLAT_SHADE_OP?$AA@ 00520194     d3d8d:precomp.obj
 0003:0004f0d0       ??_C@_0BG@HAALKMBJ@NV097_SET_SWATH_WIDTH?$AA@ 005201b0     d3d8d:precomp.obj
 0003:0004f0ec       ??_C@_0BF@PCPIIKFB@NV097_SET_POINT_SIZE?$AA@ 005201cc     d3d8d:precomp.obj
 0003:0004f108       ??_C@_0CA@PIPPADBA@NV097_SET_TEXTURE_MATRIX_ENABLE?$AA@ 005201e8     d3d8d:precomp.obj
 0003:0004f130       ??_C@_0BM@NCFKHAPD@NV097_SET_TEXGEN_VIEW_MODEL?$AA@ 00520210     d3d8d:precomp.obj
 0003:0004f154       ??_C@_0BD@KKLMDJKN@NV097_SET_TEXGEN_Q?$AA@ 00520234     d3d8d:precomp.obj
 0003:0004f16c       ??_C@_0BD@IBJBGKGO@NV097_SET_TEXGEN_R?$AA@ 0052024c     d3d8d:precomp.obj
 0003:0004f184       ??_C@_0BD@NHMLMNOI@NV097_SET_TEXGEN_T?$AA@ 00520264     d3d8d:precomp.obj
 0003:0004f19c       ??_C@_0BD@JIIKFLCP@NV097_SET_TEXGEN_S?$AA@ 0052027c     d3d8d:precomp.obj
 0003:0004f1b4       ??_C@_0BK@FHCBPEDE@NV097_SET_VERTEX_DATA4S_M?$AA@ 00520294     d3d8d:precomp.obj
 0003:0004f1d4       ??_C@_0BJ@LKMNDMPH@NV097_SET_VERTEX_DATA4UB?$AA@ 005202b4     d3d8d:precomp.obj
 0003:0004f1f4       ??_C@_0BI@NHAPAJHM@NV097_SET_VERTEX_DATA2S?$AA@ 005202d4     d3d8d:precomp.obj
 0003:0004f210       ??_C@_0BK@DAOGFDJJ@NV097_SET_VERTEX_DATA4F_M?$AA@ 005202f0     d3d8d:precomp.obj
 0003:0004f230       ??_C@_0BK@LPKGKGDJ@NV097_SET_VERTEX_DATA2F_M?$AA@ 00520310     d3d8d:precomp.obj
 0003:0004f250       ??_C@_06IGKOLGPL@LIGHT7?$AA@ 00520330     d3d8d:precomp.obj
 0003:0004f258       ??_C@_06JPLFIHLK@LIGHT6?$AA@ 00520338     d3d8d:precomp.obj
 0003:0004f260       ??_C@_06LEJINEHJ@LIGHT5?$AA@ 00520340     d3d8d:precomp.obj
 0003:0004f268       ??_C@_06KNIDOFDI@LIGHT4?$AA@ 00520348     d3d8d:precomp.obj
 0003:0004f270       ??_C@_06OCMCHDPP@LIGHT3?$AA@ 00520350     d3d8d:precomp.obj
 0003:0004f278       ??_C@_06PLNJECLO@LIGHT2?$AA@ 00520358     d3d8d:precomp.obj
 0003:0004f280       ??_C@_06NAPEBBHN@LIGHT1?$AA@ 00520360     d3d8d:precomp.obj
 0003:0004f288       ??_C@_06MJOPCADM@LIGHT0?$AA@ 00520368     d3d8d:precomp.obj
 0003:0004f290       ??_C@_0BM@ODOAHINO@NV097_SET_LIGHT_ENABLE_MASK?$AA@ 00520370     d3d8d:precomp.obj
 0003:0004f2b4       ??_C@_0BK@DCPMCAAP@NV097_SET_SPECULAR_ENABLE?$AA@ 00520394     d3d8d:precomp.obj
 0003:0004f2d4       ??_C@_0BO@MOMGMOLJ@NV097_SET_BACK_MATERIAL_ALPHA?$AA@ 005203b4     d3d8d:precomp.obj
 0003:0004f2f8       ??_C@_0BJ@OBBEPOGF@NV097_SET_MATERIAL_ALPHA?$AA@ 005203d8     d3d8d:precomp.obj
 0003:0004f318       ??_C@_0BM@DNOIBAJA@NV097_SET_MATERIAL_EMISSION?$AA@ 005203f8     d3d8d:precomp.obj
 0003:0004f33c       ??_C@_0BP@LLIEMBPI@NV097_SET_NORMALIZATION_ENABLE?$AA@ 0052041c     d3d8d:precomp.obj
 0003:0004f364       ??_C@_0BF@GLLCFPOJ@NV097_SET_FRONT_FACE?$AA@ 00520444     d3d8d:precomp.obj
 0003:0004f380       ??_C@_0BE@ILNOFGGJ@NV097_SET_CULL_FACE?$AA@ 00520460     d3d8d:precomp.obj
 0003:0004f398       ??_C@_0BD@FNLHLNJJ@NV097_SET_CLIP_MAX?$AA@ 00520478     d3d8d:precomp.obj
 0003:0004f3b0       ??_C@_0BD@EPDMFJPG@NV097_SET_CLIP_MIN?$AA@ 00520490     d3d8d:precomp.obj
 0003:0004f3c8       ??_C@_0BM@JGNBIEEN@NV097_SET_BACK_POLYGON_MODE?$AA@ 005204a8     d3d8d:precomp.obj
 0003:0004f3ec       ??_C@_0BN@JJHACMMJ@NV097_SET_FRONT_POLYGON_MODE?$AA@ 005204cc     d3d8d:precomp.obj
 0003:0004f410       ??_C@_0BO@IPPLBMAB@NV097_SET_POLYGON_OFFSET_BIAS?$AA@ 005204f0     d3d8d:precomp.obj
 0003:0004f434       ??_C@_0CG@CGJPAEAJ@NV097_SET_POLYGON_OFFSET_SCALE_F@ 00520514     d3d8d:precomp.obj
 0003:0004f464       ??_C@_0BF@OLFPAPKL@NV097_SET_LINE_WIDTH?$AA@ 00520544     d3d8d:precomp.obj
 0003:0004f480       ??_C@_0BF@IOHECGMG@NV097_SET_SHADE_MODE?$AA@ 00520560     d3d8d:precomp.obj
 0003:0004f49c       ??_C@_0BL@BADJMALL@NV097_SET_STENCIL_OP_ZPASS?$AA@ 0052057c     d3d8d:precomp.obj
 0003:0004f4bc       ??_C@_0BL@CDHCIKKB@NV097_SET_STENCIL_OP_ZFAIL?$AA@ 0052059c     d3d8d:precomp.obj
 0003:0004f4dc       ??_C@_0BK@JPCEPEIL@NV097_SET_STENCIL_OP_FAIL?$AA@ 005205bc     d3d8d:precomp.obj
 0003:0004f4fc       ??_C@_0BM@HFENIDOH@NV097_SET_STENCIL_FUNC_MASK?$AA@ 005205dc     d3d8d:precomp.obj
 0003:0004f520       ??_C@_0BL@POOIOKNL@NV097_SET_STENCIL_FUNC_REF?$AA@ 00520600     d3d8d:precomp.obj
 0003:0004f540       ??_C@_0BH@GKCMIIN@NV097_SET_STENCIL_FUNC?$AA@ 00520620     d3d8d:precomp.obj
 0003:0004f55c       ??_C@_0BH@HCCOIDHP@NV097_SET_STENCIL_MASK?$AA@ 0052063c     d3d8d:precomp.obj
 0003:0004f578       ??_C@_0BF@DNKFJFKP@NV097_SET_DEPTH_MASK?$AA@ 00520658     d3d8d:precomp.obj
 0003:0004f594       ??_C@_0BF@KLDHEPHN@NV097_SET_COLOR_MASK?$AA@ 00520674     d3d8d:precomp.obj
 0003:0004f5b0       ??_C@_0BF@EJCJNOFN@NV097_SET_DEPTH_FUNC?$AA@ 00520690     d3d8d:precomp.obj
 0003:0004f5cc       ??_C@_0BJ@JHOCINHB@NV097_SET_BLEND_EQUATION?$AA@ 005206ac     d3d8d:precomp.obj
 0003:0004f5ec       ??_C@_0BG@HPCGBIFH@NV097_SET_BLEND_COLOR?$AA@ 005206cc     d3d8d:precomp.obj
 0003:0004f608       ??_C@_0BN@NKEKCPON@NV097_SET_BLEND_FUNC_DFACTOR?$AA@ 005206e8     d3d8d:precomp.obj
 0003:0004f62c       ??_C@_0BN@KMDEBHNP@NV097_SET_BLEND_FUNC_SFACTOR?$AA@ 0052070c     d3d8d:precomp.obj
 0003:0004f650       ??_C@_0BE@GJDDDDBB@NV097_SET_ALPHA_REF?$AA@ 00520730     d3d8d:precomp.obj
 0003:0004f668       ??_C@_0BF@HKOHDIGC@NV097_SET_ALPHA_FUNC?$AA@ 00520748     d3d8d:precomp.obj
 0003:0004f684       ??_C@_0CC@DBAOAKIM@NV097_SET_POLY_OFFSET_FILL_ENABL@ 00520764     d3d8d:precomp.obj
 0003:0004f6ac       ??_C@_0CC@HDGPIEIL@NV097_SET_POLY_OFFSET_LINE_ENABL@ 0052078c     d3d8d:precomp.obj
 0003:0004f6d4       ??_C@_0CD@NDJNLJKE@NV097_SET_POLY_OFFSET_POINT_ENAB@ 005207b4     d3d8d:precomp.obj
 0003:0004f700       ??_C@_0BO@GALFOIIK@NV097_SET_STENCIL_TEST_ENABLE?$AA@ 005207e0     d3d8d:precomp.obj
 0003:0004f724       ??_C@_0BE@IFENABII@NV097_SET_SKIN_MODE?$AA@ 00520804     d3d8d:precomp.obj
 0003:0004f73c       ??_C@_0BK@LEAGEONA@NV097_SET_STIPPLE_PATTERN?$AA@ 0052081c     d3d8d:precomp.obj
 0003:0004f75c       ??_C@_0BK@FPEGBPDP@NV097_SET_STIPPLE_CONTROL?$AA@ 0052083c     d3d8d:precomp.obj
 0003:0004f77c       ??_C@_0BN@LJJCBBNA@NV097_SET_POLY_SMOOTH_ENABLE?$AA@ 0052085c     d3d8d:precomp.obj
 0003:0004f7a0       ??_C@_0BN@NBFMPLKJ@NV097_SET_LINE_SMOOTH_ENABLE?$AA@ 00520880     d3d8d:precomp.obj
 0003:0004f7c4       ??_C@_0BO@MEGGNBFL@NV097_SET_POINT_SMOOTH_ENABLE?$AA@ 005208a4     d3d8d:precomp.obj
 0003:0004f7e8       ??_C@_0BO@BHFCPMOB@NV097_SET_POINT_PARAMS_ENABLE?$AA@ 005208c8     d3d8d:precomp.obj
 0003:0004f80c       ??_C@_0BK@JDCIDGBL@NV097_SET_LIGHTING_ENABLE?$AA@ 005208ec     d3d8d:precomp.obj
 0003:0004f82c       ??_C@_0BI@LLPFMPME@NV097_SET_DITHER_ENABLE?$AA@ 0052090c     d3d8d:precomp.obj
 0003:0004f848       ??_C@_0BM@BLLIMDKB@NV097_SET_DEPTH_TEST_ENABLE?$AA@ 00520928     d3d8d:precomp.obj
 0003:0004f86c       ??_C@_0BL@MHADOMNN@NV097_SET_CULL_FACE_ENABLE?$AA@ 0052094c     d3d8d:precomp.obj
 0003:0004f88c       ??_C@_0BH@MMLACNIG@NV097_SET_BLEND_ENABLE?$AA@ 0052096c     d3d8d:precomp.obj
 0003:0004f8a8       ??_C@_0BM@DBDFOPHA@NV097_SET_ALPHA_TEST_ENABLE?$AA@ 00520988     d3d8d:precomp.obj
 0003:0004f8cc       ??_C@_04GGJKBFBD@YMAX?$AA@ 005209ac     d3d8d:precomp.obj
 0003:0004f8d4       ??_C@_04HEBBPBHM@YMIN?$AA@ 005209b4     d3d8d:precomp.obj
 0003:0004f8dc       ??_C@_0BP@BKEICPMO@NV097_SET_WINDOW_CLIP_VERTICAL?$AA@ 005209bc     d3d8d:precomp.obj
 0003:0004f904       ??_C@_04FLPKDMKD@XMAX?$AA@ 005209e4     d3d8d:precomp.obj
 0003:0004f90c       ??_C@_04EJHBNIMM@XMIN?$AA@ 005209ec     d3d8d:precomp.obj
 0003:0004f914       ??_C@_0CB@OJCJMPFI@NV097_SET_WINDOW_CLIP_HORIZONTAL@ 005209f4     d3d8d:precomp.obj
 0003:0004f93c       ??_C@_0BL@HHIFIGMC@NV097_SET_WINDOW_CLIP_TYPE?$AA@ 00520a1c     d3d8d:precomp.obj
 0003:0004f95c       ??_C@_0BK@INKHNKII@NV097_SET_COLOR_KEY_COLOR?$AA@ 00520a3c     d3d8d:precomp.obj
 0003:0004f97c       ??_C@_0BE@NILCMKHJ@NV097_SET_FOG_COLOR?$AA@ 00520a5c     d3d8d:precomp.obj
 0003:0004f994       ??_C@_0BF@BAMBLEJL@NV097_SET_FOG_ENABLE?$AA@ 00520a74     d3d8d:precomp.obj
 0003:0004f9b0       ??_C@_0BH@MMGFDGHB@NV097_SET_FOG_GEN_MODE?$AA@ 00520a90     d3d8d:precomp.obj
 0003:0004f9cc       ??_C@_0BD@HBEIJECD@NV097_SET_FOG_MODE?$AA@ 00520aac     d3d8d:precomp.obj
 0003:0004f9e4       ??_C@_0BD@OJPDDNDK@BACK_DIFF_MATERIAL?$AA@ 00520ac4     d3d8d:precomp.obj
 0003:0004f9fc       ??_C@_0BG@IFHMIJDJ@BACK_AMBIENT_MATERIAL?$AA@ 00520adc     d3d8d:precomp.obj
 0003:0004fa18       ??_C@_0BH@MGCBLMMA@BACK_EMISSIVE_MATERIAL?$AA@ 00520af8     d3d8d:precomp.obj
 0003:0004fa34       ??_C@_0BC@KPNANEGM@SPECULAR_MATERIAL?$AA@ 00520b14     d3d8d:precomp.obj
 0003:0004fa4c       ??_C@_0O@COELGFFC@DIFF_MATERIAL?$AA@ 00520b2c     d3d8d:precomp.obj
 0003:0004fa5c       ??_C@_0BB@HEGAPPIE@AMBIENT_MATERIAL?$AA@ 00520b3c     d3d8d:precomp.obj
 0003:0004fa70       ??_C@_0BC@HDAAGPIH@EMISSIVE_MATERIAL?$AA@ 00520b50     d3d8d:precomp.obj
 0003:0004fa88       ??_C@_0BJ@EFGGFLPE@NV097_SET_COLOR_MATERIAL?$AA@ 00520b68     d3d8d:precomp.obj
 0003:0004faa8       ??_C@_0BF@KBJHEEOL@SEPARATE_SPECULAR_EN?$AA@ 00520b88     d3d8d:precomp.obj
 0003:0004fac4       ??_C@_04DBLJIBJJ@SOUT?$AA@ 00520ba4     d3d8d:precomp.obj
 0003:0004facc       ??_C@_08LPKAMOBG@LOCALEYE?$AA@ 00520bac     d3d8d:precomp.obj
 0003:0004fad8       ??_C@_0BI@GOPANCCI@NV097_SET_LIGHT_CONTROL?$AA@ 00520bb8     d3d8d:precomp.obj
 0003:0004faf4       ??_C@_0BF@BAHICDJE@STENCIL_WRITE_ENABLE?$AA@ 00520bd4     d3d8d:precomp.obj
 0003:0004fb10       ??_C@_08CPHLFKMF@Z_FORMAT?$AA@ 00520bf0     d3d8d:precomp.obj
 0003:0004fb1c       ??_C@_0BF@OADKEIJL@Z_PERSPECTIVE_ENABLE?$AA@ 00520bfc     d3d8d:precomp.obj
 0003:0004fb38       ??_C@_0BD@MOCHDPFB@TEXTUREPERSPECTIVE?$AA@ 00520c18     d3d8d:precomp.obj
 0003:0004fb50       ??_C@_0BD@IMOBKENL@PREMULTIPLIEDALPHA?$AA@ 00520c30     d3d8d:precomp.obj
 0003:0004fb68       ??_C@_0BE@CFDFCCMG@COLOR_SPACE_CONVERT?$AA@ 00520c48     d3d8d:precomp.obj
 0003:0004fb80       ??_C@_0BD@HKGLLICE@NV097_SET_CONTROL0?$AA@ 00520c60     d3d8d:precomp.obj
 0003:0004fb98       ??_C@_0BI@OMGDELEN@SPECULAR_ADD_INVERT_R12?$AA@ 00520c78     d3d8d:precomp.obj
 0003:0004fbb4       ??_C@_0BH@KMACPPEF@SPECULAR_ADD_INVERT_R5?$AA@ 00520c94     d3d8d:precomp.obj
 0003:0004fbd0       ??_C@_0P@EBKKDIK@SPECULAR_CLAMP?$AA@ 00520cb0     d3d8d:precomp.obj
 0003:0004fbe4       ??_C@_08KNBFCACN@G_SOURCE?$AA@ 00520cc4     d3d8d:precomp.obj
 0003:0004fbf0       ??_C@_07GJPJLDCD@G_ALPHA?$AA@ 00520cd0     d3d8d:precomp.obj
 0003:0004fbfc       ??_C@_09CHCKACEG@G_INVERSE?$AA@ 00520cdc     d3d8d:precomp.obj
 0003:0004fc08       ??_C@_08LKGODEGO@F_SOURCE?$AA@ 00520ce8     d3d8d:precomp.obj
 0003:0004fc14       ??_C@_07KFFDLDLN@F_ALPHA?$AA@ 00520cf4     d3d8d:precomp.obj
 0003:0004fc20       ??_C@_09MIOIGJHI@F_INVERSE?$AA@ 00520d00     d3d8d:precomp.obj
 0003:0004fc2c       ??_C@_08IDODAIKL@E_SOURCE?$AA@ 00520d0c     d3d8d:precomp.obj
 0003:0004fc38       ??_C@_07CLNMLEFO@E_ALPHA?$AA@ 00520d18     d3d8d:precomp.obj
 0003:0004fc44       ??_C@_09CDNPNCHL@E_INVERSE?$AA@ 00520d24     d3d8d:precomp.obj
 0003:0004fc50       ??_C@_0CE@EAHKDCDN@NV097_SET_COMBINER_SPECULAR_FOG_@ 00520d30     d3d8d:precomp.obj
 0003:0004fc7c       ??_C@_09MMBNLJEF@D_INVERSE?$AA@ 00520d5c     d3d8d:precomp.obj
 0003:0004fc88       ??_C@_09COMBKCDM@C_INVERSE?$AA@ 00520d68     d3d8d:precomp.obj
 0003:0004fc94       ??_C@_09MBADMJAC@B_INVERSE?$AA@ 00520d74     d3d8d:precomp.obj
 0003:0004fca0       ??_C@_09CKDEHCAB@A_INVERSE?$AA@ 00520d80     d3d8d:precomp.obj
 0003:0004fcac       ??_C@_0CE@FJGBADHM@NV097_SET_COMBINER_SPECULAR_FOG_@ 00520d8c     d3d8d:precomp.obj
 0003:0004fcd8       ??_C@_06JNKBJING@CD_DST?$AA@ 00520db8     d3d8d:precomp.obj
 0003:0004fce0       ??_C@_06NMGHGKOC@AB_DST?$AA@ 00520dc0     d3d8d:precomp.obj
 0003:0004fce8       ??_C@_07JNEHJENI@SUM_DST?$AA@ 00520dc8     d3d8d:precomp.obj
 0003:0004fcf4       ??_C@_0L@BAHEEKJK@MUX_ENABLE?$AA@ 00520dd4     d3d8d:precomp.obj
 0003:0004fd04       ??_C@_09COBGLBMG@OPERATION?$AA@ 00520de4     d3d8d:precomp.obj
 0003:0004fd10       ??_C@_0BN@GIJGJCOE@NV097_SET_COMBINER_ALPHA_OCW?$AA@ 00520df0     d3d8d:precomp.obj
 0003:0004fd34       ??_C@_0BL@NIOGFHCP@NV097_SET_COMBINER_FACTOR1?$AA@ 00520e14     d3d8d:precomp.obj
 0003:0004fd54       ??_C@_05ELNMJPED@ALPHA?$AA@ 00520e34     d3d8d:precomp.obj
 0003:0004fd5c       ??_C@_03FNPLCCOA@RED?$AA@  00520e3c     d3d8d:precomp.obj
 0003:0004fd60       ??_C@_05KKNCHNIM@GREEN?$AA@ 00520e40     d3d8d:precomp.obj
 0003:0004fd68       ??_C@_04CNFFLDFF@BLUE?$AA@ 00520e48     d3d8d:precomp.obj
 0003:0004fd70       ??_C@_0BL@MBPNGGGO@NV097_SET_COMBINER_FACTOR0?$AA@ 00520e50     d3d8d:precomp.obj
 0003:0004fd90       ??_C@_0BN@BLHEELBP@NV097_SET_COMBINER_COLOR_ICW?$AA@ 00520e70     d3d8d:precomp.obj
 0003:0004fdb4       ??_C@_08JEJIBMOI@D_SOURCE?$AA@ 00520e94     d3d8d:precomp.obj
 0003:0004fdc0       ??_C@_07OHHGLEMA@D_ALPHA?$AA@ 00520ea0     d3d8d:precomp.obj
 0003:0004fdcc       ??_C@_05MCCKHEHP@D_MAP?$AA@ 00520eac     d3d8d:precomp.obj
 0003:0004fdd4       ??_C@_08PAPJHBCB@C_SOURCE?$AA@ 00520eb4     d3d8d:precomp.obj
 0003:0004fde0       ??_C@_07ONLDLNNJ@C_ALPHA?$AA@ 00520ec0     d3d8d:precomp.obj
 0003:0004fdec       ??_C@_05NPCPEEMH@C_MAP?$AA@ 00520ecc     d3d8d:precomp.obj
 0003:0004fdf4       ??_C@_08OHICGFGC@B_SOURCE?$AA@ 00520ed4     d3d8d:precomp.obj
 0003:0004fe00       ??_C@_07CBBJLNEH@B_ALPHA?$AA@ 00520ee0     d3d8d:precomp.obj
 0003:0004fe0c       ??_C@_05BEHDJHGC@B_MAP?$AA@ 00520eec     d3d8d:precomp.obj
 0003:0004fe14       ??_C@_08NOAPFJKH@A_SOURCE?$AA@ 00520ef4     d3d8d:precomp.obj
 0003:0004fe20       ??_C@_07KPJGLKKE@A_ALPHA?$AA@ 00520f00     d3d8d:precomp.obj
 0003:0004fe2c       ??_C@_05JCOHOFMM@A_MAP?$AA@ 00520f0c     d3d8d:precomp.obj
 0003:0004fe34       ??_C@_0BN@ENPNMNDI@NV097_SET_COMBINER_ALPHA_ICW?$AA@ 00520f14     d3d8d:precomp.obj
 0003:0004fe58       ??_C@_0BO@HDCHDAAK@NV097_SET_SURFACE_ZETA_OFFSET?$AA@ 00520f38     d3d8d:precomp.obj
 0003:0004fe7c       ??_C@_0BP@DFNCENEJ@NV097_SET_SURFACE_COLOR_OFFSET?$AA@ 00520f5c     d3d8d:precomp.obj
 0003:0004fea4       ??_C@_04GFGDIPKP@ZETA?$AA@ 00520f84     d3d8d:precomp.obj
 0003:0004feac       ??_C@_05DPNLPLKI@COLOR?$AA@ 00520f8c     d3d8d:precomp.obj
 0003:0004feb4       ??_C@_0BI@HFNFMJJN@NV097_SET_SURFACE_PITCH?$AA@ 00520f94     d3d8d:precomp.obj
 0003:0004fed0       ??_C@_06LJJMJONE@HEIGHT?$AA@ 00520fb0     d3d8d:precomp.obj
 0003:0004fed8       ??_C@_01NFFPALBN@Y?$AA@    00520fb8     d3d8d:precomp.obj
 0003:0004fedc       ??_C@_0CA@ELFKILKJ@NV097_SET_SURFACE_CLIP_VERTICAL?$AA@ 00520fbc     d3d8d:precomp.obj
 0003:0004ff04       ??_C@_05ENDGNACA@WIDTH?$AA@ 00520fe4     d3d8d:precomp.obj
 0003:0004ff0c       ??_C@_01MMEEDKFM@X?$AA@    00520fec     d3d8d:precomp.obj
 0003:0004ff10       ??_C@_0CC@BCCOAENL@NV097_SET_SURFACE_CLIP_HORIZONTA@ 00520ff0     d3d8d:precomp.obj
 0003:0004ff38       ??_C@_0BN@PBCDOEKM@NV097_SET_CONTEXT_DMA_REPORT?$AA@ 00521018     d3d8d:precomp.obj
 0003:0004ff5c       ??_C@_0CA@NJMNAFIL@NV097_SET_CONTEXT_DMA_SEMAPHORE?$AA@ 0052103c     d3d8d:precomp.obj
 0003:0004ff84       ??_C@_0BP@DLAOCGPK@NV097_SET_CONTEXT_DMA_VERTEX_B?$AA@ 00521064     d3d8d:precomp.obj
 0003:0004ffac       ??_C@_0BP@BACDHFDJ@NV097_SET_CONTEXT_DMA_VERTEX_A?$AA@ 0052108c     d3d8d:precomp.obj
 0003:0004ffd4       ??_C@_0BL@EICGHCIL@NV097_SET_CONTEXT_DMA_ZETA?$AA@ 005210b4     d3d8d:precomp.obj
 0003:0004fff4       ??_C@_0BM@DPFFKIE@NV097_SET_CONTEXT_DMA_COLOR?$AA@ 005210d4     d3d8d:precomp.obj
 0003:00050018       ??_C@_0BM@PAIJOOFG@NV097_SET_CONTEXT_DMA_STATE?$AA@ 005210f8     d3d8d:precomp.obj
 0003:0005003c       ??_C@_0BI@BAALFGGH@NV097_SET_CONTEXT_DMA_B?$AA@ 0052111c     d3d8d:precomp.obj
 0003:00050058       ??_C@_0BI@DLCGAFKE@NV097_SET_CONTEXT_DMA_A?$AA@ 00521138     d3d8d:precomp.obj
 0003:00050074       ??_C@_0BP@IMCDLBLI@NV097_SET_CONTEXT_DMA_NOTIFIES?$AA@ 00521154     d3d8d:precomp.obj
 0003:0005009c       ??_C@_0BB@EFOELFGO@NV097_FLIP_STALL?$AA@ 0052117c     d3d8d:precomp.obj
 0003:000500b0       ??_C@_0BL@PLLKFIGN@NV097_FLIP_INCREMENT_WRITE?$AA@ 00521190     d3d8d:precomp.obj
 0003:000500d0       ??_C@_0BG@DKHMBOF@NV097_SET_FLIP_MODULO?$AA@ 005211b0     d3d8d:precomp.obj
 0003:000500ec       ??_C@_0BF@OPBHMOOO@NV097_SET_FLIP_WRITE?$AA@ 005211cc     d3d8d:precomp.obj
 0003:00050108       ??_C@_0BE@IFJHNCOD@NV097_SET_FLIP_READ?$AA@ 005211e8     d3d8d:precomp.obj
 0003:00050120       ??_C@_0BB@KNNEBDDK@NV097_PM_TRIGGER?$AA@ 00521200     d3d8d:precomp.obj
 0003:00050134       ??_C@_0BE@EMDOAHMO@NV097_WAIT_FOR_IDLE?$AA@ 00521214     d3d8d:precomp.obj
 0003:0005014c       ??_C@_08JHHIJFJE@GETSTATE?$AA@ 0052122c     d3d8d:precomp.obj
 0003:00050158       ??_C@_0BA@HPBOPOPE@NV097_GET_STATE?$AA@ 00521238     d3d8d:precomp.obj
 0003:0005016c       ??_C@_01FCMHBHNC@V?$AA@    0052124c     d3d8d:precomp.obj
 0003:00050170       ??_C@_0BJ@KODGDHHD@NV097_SET_WARNING_ENABLE?$AA@ 00521250     d3d8d:precomp.obj
 0003:00050190       ??_C@_04KDPJLEDB@TYPE?$AA@ 00521270     d3d8d:precomp.obj
 0003:00050198       ??_C@_0N@MAKHKKFL@NV097_NOTIFY?$AA@ 00521278     d3d8d:precomp.obj
 0003:000501a8       ??_C@_04PCJGBDOP@Zero?$AA@ 00521288     d3d8d:precomp.obj
 0003:000501b0       ??_C@_0BD@IJMBNHPO@NV097_NO_OPERATION?$AA@ 00521290     d3d8d:precomp.obj
 0003:000501c8       ??_C@_0BL@NCCLNEAK@?$CIValue?5?$CG?5?$CIValue?5?9?51?$CJ?$CJ?5?$DN?$DN?50?$AA@ 005212a8     d3d8d:pixeljar.obj
 0003:000501e8       ??_C@_05LPIJGKJ@Value?$AA@ 005212c8     d3d8d:pixeljar.obj
 0003:000501f0       ??_C@_0BD@BHHJDIED@Unexpected?5format?6?$AA@ 005212d0     d3d8d:pixeljar.obj
 0003:00050208       ??_C@_0DN@OEHIDMDD@PixelJar?3?3GetDepthBufferScale?5?9?5@ 005212e8     d3d8d:pixeljar.obj
 0003:00050254       ??_C@_0DA@PGOIGIJI@IsValidDepthBufferD3DFORMAT?$CIGetF@ 00521334     d3d8d:pixeljar.obj
 0003:00050290       ??_C@_0CK@FCJONCHH@PixelJar?3?3GetSize?5?9?5invalid?5mipm@ 00521370     d3d8d:pixeljar.obj
 0003:000502c4       ??_C@_0DD@DBBKOJDP@PixelJar?3?3Get2DSurfaceDesc?5?9?5inv@ 005213a4     d3d8d:pixeljar.obj
 0003:00050304       ??_C@_0DD@LMJCBENN@PixelJar?3?3Get3DSurfaceDesc?5?9?5inv@ 005213e4     d3d8d:pixeljar.obj
 0003:00050344       ??_C@_0CG@LEMEJEHP@PixelJar?3?3LockSurface?5?9?5invalid?5@ 00521424     d3d8d:pixeljar.obj
 0003:00050374       ??_C@_0CO@GECHDOGM@PixelJar?3?3LockSurface?5?9?5invalid?5@ 00521454     d3d8d:pixeljar.obj
 0003:000503ac       ??_C@_0DG@BFHOFLKH@PixelJar?3?3Lock2DSurface?5?9?5Lock?5r@ 0052148c     d3d8d:pixeljar.obj
 0003:000503f0       ??_C@_0FE@BENNHOGA@PixelJar?3?3Lock2DSurface?5?9?5Lock?5r@ 005214d0     d3d8d:pixeljar.obj
 0003:00050458       ??_C@_0EO@CLKCOMBB@PixelJar?3?3Lock3DSurface?5?9?5lock?5b@ 00521538     d3d8d:pixeljar.obj
 0003:000504b8       ??_C@_0HF@LGLNDKAD@PixelJar?3?3EncodeFormat?5?9?5The?5sur@ 00521598     d3d8d:pixeljar.obj
 0003:00050548       ??_C@_0EL@NMLIBBOD@?$CI?$CI?$CKpSize?5?$CG?5D3DSIZE_HEIGHT_MASK?$CJ?5@ 00521628     d3d8d:pixeljar.obj
 0003:000505a4       ??_C@_0CP@EHBDBAGE@?$CI?$CKpSize?5?$CG?5D3DSIZE_WIDTH_MASK?$CJ?5?$CL?5@ 00521684     d3d8d:pixeljar.obj
 0003:000505e0       ??_C@_0EO@JKLIIGDI@PixelJar?3?3EncodeFormat?5?9?5too?5man@ 005216c0     d3d8d:pixeljar.obj
 0003:00050640       ??_C@_0EF@PLCLFDFM@PixelJar?3?3EncodeFormat?5?9?5Cube?5ma@ 00521720     d3d8d:pixeljar.obj
 0003:00050698       ??_C@_0EG@FLICAEDJ@PixelJar?3?3EncodeFormat?5?9?5Depth?5f@ 00521778     d3d8d:pixeljar.obj
 0003:000506f0       ??_C@_0FJ@LIHMNNAK@PixelJar?3?3EncodeFormat?5?9?5Texture@ 005217d0     d3d8d:pixeljar.obj
 0003:00050760       ??_C@_0FE@CLFEGID@PixelJar?3?3EncodeFormat?5?9?5Each?5di@ 00521840     d3d8d:pixeljar.obj
 0003:000507c8       ??_C@_0EF@FCLEABHL@PixelJar?3?3EncodeFormat?5?9?5Volume?5@ 005218a8     d3d8d:pixeljar.obj
 0003:00050820       ??_C@_0EA@GDJMLFKD@PixelJar?3?3EncodeFormat?5?9?5Volume?5@ 00521900     d3d8d:pixeljar.obj
 0003:00050870       ??_C@_0FE@BLHFEIKP@PixelJar?3?3EncodeFormat?5?9?5Volume?5@ 00521950     d3d8d:pixeljar.obj
 0003:000508d8       ??_C@_0FF@GOCEMAOM@PixelJar?3?3EncodeFormat?5?9?5Volume?5@ 005219b8     d3d8d:pixeljar.obj
 0003:00050940       ??_C@_0FE@MCGMJMEJ@PixelJar?3?3EncodeFormat?5?9?5Volume?5@ 00521a20     d3d8d:pixeljar.obj
 0003:000509a8       ??_C@_0FJ@NJNIHJKE@PixelJar?3?3EncodeFormat?5?9?5Non?5swi@ 00521a88     d3d8d:pixeljar.obj
 0003:00050a18       ??_C@_0FI@PJFHOBMK@PixelJar?3?3EncodeFormat?5?9?5Non?5swi@ 00521af8     d3d8d:pixeljar.obj
 0003:00050a88       ??_C@_0EP@HDIMJODC@PixelJar?3?3EncodeFormat?5?9?5Texture@ 00521b68     d3d8d:pixeljar.obj
 0003:00050ae8       ??_C@_0EO@CKMNPJIE@PixelJar?3?3EncodeFormat?5?9?5Texture@ 00521bc8     d3d8d:pixeljar.obj
 0003:00050b48       ??_C@_0FO@FKMLMKIF@PixelJar?3?3EncodeFormat?5?9?5Non?5swi@ 00521c28     d3d8d:pixeljar.obj
 0003:00050bb8       ??_C@_0CJ@JIGNJCPH@PixelJar?3?3EncodeFormat?5?9?5Invalid@ 00521c98     d3d8d:pixeljar.obj
 0003:00050bf0       ??_C@_0EK@DECBCNDG@PixelJar?3?3EncodeFormat?5?9?5All?5tex@ 00521cd0     d3d8d:pixeljar.obj
 0003:00051920       ??_C@_09NJHEAKNJ@RESULTARG?$AA@ 00522a00     d3d8d:stats.obj
 0003:0005192c       ??_C@_09BNGJABHD@ALPHAARG0?$AA@ 00522a0c     d3d8d:stats.obj
 0003:00051938       ??_C@_09ELOAIHFE@COLORARG0?$AA@ 00522a18     d3d8d:stats.obj
 0003:00051944       ??_C@_08FOGBOEJL@ADDRESSW?$AA@ 00522a24     d3d8d:stats.obj
 0003:00051950       ??_C@_0BG@ONDPMHDF@TEXTURETRANSFORMFLAGS?$AA@ 00522a30     d3d8d:stats.obj
 0003:0005196c       ??_C@_0P@LKPKGDAC@BUMPENVLOFFSET?$AA@ 00522a4c     d3d8d:stats.obj
 0003:00051980       ??_C@_0O@HAAKADHN@BUMPENVLSCALE?$AA@ 00522a60     d3d8d:stats.obj
 0003:00051990       ??_C@_0O@BPHLIGBH@MAXANISOTROPY?$AA@ 00522a70     d3d8d:stats.obj
 0003:000519a0       ??_C@_0M@IBELFJEO@MAXMIPLEVEL?$AA@ 00522a80     d3d8d:stats.obj
 0003:000519b0       ??_C@_0O@LMMLNGGL@MIPMAPLODBIAS?$AA@ 00522a90     d3d8d:stats.obj
 0003:000519c0       ??_C@_09HIBKBLKE@MIPFILTER?$AA@ 00522aa0     d3d8d:stats.obj
 0003:000519cc       ??_C@_09BBCLDILN@MINFILTER?$AA@ 00522aac     d3d8d:stats.obj
 0003:000519d8       ??_C@_09LFLMIBIO@MAGFILTER?$AA@ 00522ab8     d3d8d:stats.obj
 0003:000519e4       ??_C@_0M@IHIMGIEL@BORDERCOLOR?$AA@ 00522ac4     d3d8d:stats.obj
 0003:000519f4       ??_C@_08EHHKNFNK@ADDRESSV?$AA@ 00522ad4     d3d8d:stats.obj
 0003:00051a00       ??_C@_08GMFHIGBJ@ADDRESSU?$AA@ 00522ae0     d3d8d:stats.obj
 0003:00051a0c       ??_C@_0O@NDJAGMKB@TEXCOORDINDEX?$AA@ 00522aec     d3d8d:stats.obj
 0003:00051a1c       ??_C@_0N@LEJDFAJA@BUMPENVMAT11?$AA@ 00522afc     d3d8d:stats.obj
 0003:00051a2c       ??_C@_0N@KNIIGBNB@BUMPENVMAT10?$AA@ 00522b0c     d3d8d:stats.obj
 0003:00051a3c       ??_C@_0N@LFFBDKKH@BUMPENVMAT01?$AA@ 00522b1c     d3d8d:stats.obj
 0003:00051a4c       ??_C@_0N@KMEKALOG@BUMPENVMAT00?$AA@ 00522b2c     d3d8d:stats.obj
 0003:00051a5c       ??_C@_09CPFPGDPB@ALPHAARG2?$AA@ 00522b3c     d3d8d:stats.obj
 0003:00051a68       ??_C@_09EHCDADC@ALPHAARG1?$AA@ 00522b48     d3d8d:stats.obj
 0003:00051a74       ??_C@_07HKJJEOGG@ALPHAOP?$AA@ 00522b54     d3d8d:stats.obj
 0003:00051a80       ??_C@_09HJNGOFNG@COLORARG2?$AA@ 00522b60     d3d8d:stats.obj
 0003:00051a8c       ??_C@_09FCPLLGBF@COLORARG1?$AA@ 00522b6c     d3d8d:stats.obj
 0003:00051a98       ??_C@_07INMMLFAH@COLOROP?$AA@ 00522b78     d3d8d:stats.obj
 0003:00051aa4       ??_C@_07BPJDNPDP@BLENDOP?$AA@ 00522b84     d3d8d:stats.obj
 0003:00051ab0       ??_C@_0BB@KOJBIKMA@COLORWRITEENABLE?$AA@ 00522b90     d3d8d:stats.obj
 0003:00051ac4       ??_C@_0O@HPIDPBID@POINTSIZE_MAX?$AA@ 00522ba4     d3d8d:stats.obj
 0003:00051ad4       ??_C@_0O@JNNNMPPB@PATCHSEGMENTS?$AA@ 00522bb4     d3d8d:stats.obj
 0003:00051ae4       ??_C@_0P@FDMCFNLL@PATCHEDGESTYLE?$AA@ 00522bc4     d3d8d:stats.obj
 0003:00051af8       ??_C@_0BA@EOIGANJC@MULTISAMPLEMASK?$AA@ 00522bd8     d3d8d:stats.obj
 0003:00051b0c       ??_C@_0BF@NFOEAMCN@MULTISAMPLEANTIALIAS?$AA@ 00522bec     d3d8d:stats.obj
 0003:00051b28       ??_C@_0N@FOANIMIK@POINTSCALE_C?$AA@ 00522c08     d3d8d:stats.obj
 0003:00051b38       ??_C@_0N@EHBGLNML@POINTSCALE_B?$AA@ 00522c18     d3d8d:stats.obj
 0003:00051b48       ??_C@_0N@GMDLOOAI@POINTSCALE_A?$AA@ 00522c28     d3d8d:stats.obj
 0003:00051b58       ??_C@_0BB@IMIGEIPA@POINTSCALEENABLE?$AA@ 00522c38     d3d8d:stats.obj
 0003:00051b6c       ??_C@_0BC@HKMABPOH@POINTSPRITEENABLE?$AA@ 00522c4c     d3d8d:stats.obj
 0003:00051b84       ??_C@_0O@GNAIBFOM@POINTSIZE_MIN?$AA@ 00522c64     d3d8d:stats.obj
 0003:00051b94       ??_C@_09GEDJPCJO@POINTSIZE?$AA@ 00522c74     d3d8d:stats.obj
 0003:00051ba0       ??_C@_0M@IOCDMCGM@VERTEXBLEND?$AA@ 00522c80     d3d8d:stats.obj
 0003:00051bb0       ??_C@_0BH@OFPGONAA@EMISSIVEMATERIALSOURCE?$AA@ 00522c90     d3d8d:stats.obj
 0003:00051bcc       ??_C@_0BG@BIIACLJD@AMBIENTMATERIALSOURCE?$AA@ 00522cac     d3d8d:stats.obj
 0003:00051be8       ??_C@_0BH@NAIFGNHG@SPECULARMATERIALSOURCE?$AA@ 00522cc8     d3d8d:stats.obj
 0003:00051c04       ??_C@_0BG@CPIBGMAH@DIFFUSEMATERIALSOURCE?$AA@ 00522ce4     d3d8d:stats.obj
 0003:00051c20       ??_C@_0BB@DMDBLADF@NORMALIZENORMALS?$AA@ 00522d00     d3d8d:stats.obj
 0003:00051c34       ??_C@_0M@GGOCEFHL@LOCALVIEWER?$AA@ 00522d14     d3d8d:stats.obj
 0003:00051c44       ??_C@_0M@JNGLFIB@COLORVERTEX?$AA@ 00522d24     d3d8d:stats.obj
 0003:00051c54       ??_C@_07EFFMPHJG@AMBIENT?$AA@ 00522d34     d3d8d:stats.obj
 0003:00051c60       ??_C@_08JLJGAGMG@LIGHTING?$AA@ 00522d40     d3d8d:stats.obj
 0003:00051c6c       ??_C@_05KGBKIOGA@WRAP3?$AA@ 00522d4c     d3d8d:stats.obj
 0003:00051c74       ??_C@_05LPABLPCB@WRAP2?$AA@ 00522d54     d3d8d:stats.obj
 0003:00051c7c       ??_C@_05JECMOMOC@WRAP1?$AA@ 00522d5c     d3d8d:stats.obj
 0003:00051c84       ??_C@_05INDHNNKD@WRAP0?$AA@ 00522d64     d3d8d:stats.obj
 0003:00051c8c       ??_C@_0O@GLBNFMOK@TEXTUREFACTOR?$AA@ 00522d6c     d3d8d:stats.obj
 0003:00051c9c       ??_C@_0BB@HGHJGPPM@STENCILWRITEMASK?$AA@ 00522d7c     d3d8d:stats.obj
 0003:00051cb0       ??_C@_0M@JJMMJBIP@STENCILMASK?$AA@ 00522d90     d3d8d:stats.obj
 0003:00051cc0       ??_C@_0L@BMAIKEBK@STENCILREF?$AA@ 00522da0     d3d8d:stats.obj
 0003:00051cd0       ??_C@_0M@ONEANKHN@STENCILFUNC?$AA@ 00522db0     d3d8d:stats.obj
 0003:00051ce0       ??_C@_0M@IDKHFKOF@STENCILPASS?$AA@ 00522dc0     d3d8d:stats.obj
 0003:00051cf0       ??_C@_0N@HEDFPHGA@STENCILZFAIL?$AA@ 00522dd0     d3d8d:stats.obj
 0003:00051d00       ??_C@_0M@LAOMBAPP@STENCILFAIL?$AA@ 00522de0     d3d8d:stats.obj
 0003:00051d10       ??_C@_0O@GKAMAGKE@STENCILENABLE?$AA@ 00522df0     d3d8d:stats.obj
 0003:00051d20       ??_C@_0P@EELMKGFJ@RANGEFOGENABLE?$AA@ 00522e00     d3d8d:stats.obj
 0003:00051d34       ??_C@_05MHMJIADD@ZBIAS?$AA@ 00522e14     d3d8d:stats.obj
 0003:00051d3c       ??_C@_0O@ENIMOEIA@EDGEANTIALIAS?$AA@ 00522e1c     d3d8d:stats.obj
 0003:00051d4c       ??_C@_0L@GIBCJAFE@FOGDENSITY?$AA@ 00522e2c     d3d8d:stats.obj
 0003:00051d5c       ??_C@_06BDEONOOG@FOGEND?$AA@ 00522e3c     d3d8d:stats.obj
 0003:00051d64       ??_C@_08BAKBEEOO@FOGSTART?$AA@ 00522e44     d3d8d:stats.obj
 0003:00051d70       ??_C@_0N@HHOOJBN@FOGTABLEMODE?$AA@ 00522e50     d3d8d:stats.obj
 0003:00051d80       ??_C@_08LEIJKPJO@FOGCOLOR?$AA@ 00522e60     d3d8d:stats.obj
 0003:00051d8c       ??_C@_0P@KHHIJEKI@SPECULARENABLE?$AA@ 00522e6c     d3d8d:stats.obj
 0003:00051da0       ??_C@_09COMDPICF@FOGENABLE?$AA@ 00522e80     d3d8d:stats.obj
 0003:00051dac       ??_C@_0BB@LJLBKFFE@ALPHABLENDENABLE?$AA@ 00522e8c     d3d8d:stats.obj
 0003:00051dc0       ??_C@_0N@GFBIILEJ@DITHERENABLE?$AA@ 00522ea0     d3d8d:stats.obj
 0003:00051dd0       ??_C@_09DJFNPEGA@ALPHAFUNC?$AA@ 00522eb0     d3d8d:stats.obj
 0003:00051ddc       ??_C@_08LKBGFLHJ@ALPHAREF?$AA@ 00522ebc     d3d8d:stats.obj
 0003:00051de8       ??_C@_05GJBIJLLI@ZFUNC?$AA@ 00522ec8     d3d8d:stats.obj
 0003:00051df0       ??_C@_08IBJHLGOE@CULLMODE?$AA@ 00522ed0     d3d8d:stats.obj
 0003:00051dfc       ??_C@_09IOFKNDHB@DESTBLEND?$AA@ 00522edc     d3d8d:stats.obj
 0003:00051e08       ??_C@_08KNIBJBFG@SRCBLEND?$AA@ 00522ee8     d3d8d:stats.obj
 0003:00051e14       ??_C@_0BA@NODJIODI@ALPHATESTENABLE?$AA@ 00522ef4     d3d8d:stats.obj
 0003:00051e28       ??_C@_0N@EGCNALM@ZWRITEENABLE?$AA@ 00522f08     d3d8d:stats.obj
 0003:00051e38       ??_C@_09LIHDEJNE@SHADEMODE?$AA@ 00522f18     d3d8d:stats.obj
 0003:00051e44       ??_C@_08OABENHMP@FILLMODE?$AA@ 00522f24     d3d8d:stats.obj
 0003:00051e50       ??_C@_07NNFKNAPB@ZENABLE?$AA@ 00522f30     d3d8d:stats.obj
 0003:00051e5c       ??_C@_0P@CKFOMMB@D3DFIXUP_RESET?$AA@ 00522f3c     d3d8d:stats.obj
 0003:00051e70       ??_C@_0BC@BLJPNOIF@D3DFIXUP_GETSPACE?$AA@ 00522f50     d3d8d:stats.obj
 0003:00051e88       ??_C@_0BB@PDPFLIEI@D3DFIXUP_GETSIZE?$AA@ 00522f68     d3d8d:stats.obj
 0003:00051e9c       ??_C@_0BF@DOLFDKNM@D3DPUSHBUFFER_VERIFY?$AA@ 00522f7c     d3d8d:stats.obj
 0003:00051eb8       ??_C@_0CD@MGIIDEOK@D3DPUSHBUFFER_SETVERTEXSHADERINP@ 00522f98     d3d8d:stats.obj
 0003:00051ee4       ??_C@_0CG@MDHLCEBJ@D3DPUSHBUFFER_SETVERTEXSHADERCON@ 00522fc4     d3d8d:stats.obj
 0003:00051f14       ??_C@_0CG@MJDOKEKM@D3DPUSHBUFFER_SETVERTEXBLENDMODE@ 00522ff4     d3d8d:stats.obj
 0003:00051f44       ??_C@_0BJ@NBJMMODO@D3DPUSHBUFFER_SETTEXTURE?$AA@ 00523024     d3d8d:stats.obj
 0003:00051f64       ??_C@_0BO@GAFKFNDD@D3DPUSHBUFFER_SETRENDERTARGET?$AA@ 00523044     d3d8d:stats.obj
 0003:00051f88       ??_C@_0BJ@NIGPABLP@D3DPUSHBUFFER_SETPALETTE?$AA@ 00523068     d3d8d:stats.obj
 0003:00051fa8       ??_C@_0BL@IBBFHIGH@D3DPUSHBUFFER_SETMODELVIEW?$AA@ 00523088     d3d8d:stats.obj
 0003:00051fc8       ??_C@_0BM@MLFLHIDC@D3DPUSHBUFFER_RUNPUSHBUFFER?$AA@ 005230a8     d3d8d:stats.obj
 0003:00051fec       ??_C@_0BD@BAACLFJP@D3DPUSHBUFFER_JUMP?$AA@ 005230cc     d3d8d:stats.obj
 0003:00052004       ??_C@_0CA@DCECJFNO@D3DPUSHBUFFER_ENDVISIBILITYTEST?$AA@ 005230e4     d3d8d:stats.obj
 0003:0005202c       ??_C@_0BH@DMNOFFGM@D3DPUSHBUFFER_ENDFIXUP?$AA@ 0052310c     d3d8d:stats.obj
 0003:00052048       ??_C@_0BJ@KPCMMDBF@D3DPUSHBUFFER_BEGINFIXUP?$AA@ 00523128     d3d8d:stats.obj
 0003:00052068       ??_C@_0BA@EAFFGDHJ@D3DPALETTE_LOCK?$AA@ 00523148     d3d8d:stats.obj
 0003:0005207c       ??_C@_0BD@LDJBGEGJ@D3DPALETTE_GETSIZE?$AA@ 0052315c     d3d8d:stats.obj
 0003:00052094       ??_C@_0BE@MKPAHHEF@D3DSURFACE_LOCKRECT?$AA@ 00523174     d3d8d:stats.obj
 0003:000520ac       ??_C@_0BD@JGEPAMBC@D3DSURFACE_GETDESC?$AA@ 0052318c     d3d8d:stats.obj
 0003:000520c4       ??_C@_0BI@CKOODHGE@D3DSURFACE_GETCONTAINER?$AA@ 005231a4     d3d8d:stats.obj
 0003:000520e0       ??_C@_0BC@BLMEPDDF@D3DVOLUME_LOCKBOX?$AA@ 005231c0     d3d8d:stats.obj
 0003:000520f8       ??_C@_0BC@FPIALMOI@D3DVOLUME_GETDESC?$AA@ 005231d8     d3d8d:stats.obj
 0003:00052110       ??_C@_0BH@LFNDIMHI@D3DVOLUME_GETCONTAINER?$AA@ 005231f0     d3d8d:stats.obj
 0003:0005212c       ??_C@_0BH@GDOCMOJO@D3DINDEXBUFFER_GETDESC?$AA@ 0052320c     d3d8d:stats.obj
 0003:00052148       ??_C@_0BF@LLHCKPGB@D3DVERTEXBUFFER_LOCK?$AA@ 00523228     d3d8d:stats.obj
 0003:00052164       ??_C@_0BI@KCHMNDFA@D3DVERTEXBUFFER_GETDESC?$AA@ 00523244     d3d8d:stats.obj
 0003:00052180       ??_C@_0BI@KHMPDNPJ@D3DVOLUMETEXURE_LOCKBOX?$AA@ 00523260     d3d8d:stats.obj
 0003:0005219c       ??_C@_0BP@PMMOJLPJ@D3DVOLUMETEXURE_GETVOLUMELEVEL?$AA@ 0052327c     d3d8d:stats.obj
 0003:000521c4       ??_C@_0BN@JJCONOIJ@D3DVOLUMETEXURE_GETLEVELDESC?$AA@ 005232a4     d3d8d:stats.obj
 0003:000521e8       ??_C@_0BI@EFOGCDAP@D3DCUBETEXTURE_LOCKRECT?$AA@ 005232c8     d3d8d:stats.obj
 0003:00052204       ??_C@_0BM@GMCOCHM@D3DCUBETEXTURE_GETLEVELDESC?$AA@ 005232e4     d3d8d:stats.obj
 0003:00052228       ??_C@_0CB@ENNAFLLC@D3DCUBETEXTURE_GETCUBEMAPSURFACE@ 00523308     d3d8d:stats.obj
 0003:00052250       ??_C@_0BE@PJFNNJI@D3DTEXTURE_LOCKRECT?$AA@ 00523330     d3d8d:stats.obj
 0003:00052268       ??_C@_0BL@INNFFDDD@D3DTEXTURE_GETSURFACELEVEL?$AA@ 00523348     d3d8d:stats.obj
 0003:00052288       ??_C@_0BI@LBEOHAA@D3DTEXTURE_GETLEVELDESC?$AA@ 00523368     d3d8d:stats.obj
 0003:000522a4       ??_C@_0BN@EHJNFCCL@D3DBASETEXTURE_GETLEVELCOUNT?$AA@ 00523384     d3d8d:stats.obj
 0003:000522c8       ??_C@_0BL@KLNGOLKD@D3DRESOURCE_SETPRIVATEDATA?$AA@ 005233a8     d3d8d:stats.obj
 0003:000522e8       ??_C@_0BE@JJJNBDOE@D3DRESOURCE_RELEASE?$AA@ 005233c8     d3d8d:stats.obj
 0003:00052300       ??_C@_0BF@NNEBOMHO@D3DRESOURCE_REGISTER?$AA@ 005233e0     d3d8d:stats.obj
 0003:0005231c       ??_C@_0BD@CIMGLEME@D3DRESOURCE_ISBUSY?$AA@ 005233fc     d3d8d:stats.obj
 0003:00052334       ??_C@_0BE@IICINDEG@D3DRESOURCE_GETTYPE?$AA@ 00523414     d3d8d:stats.obj
 0003:0005234c       ??_C@_0BL@GFMIBBIP@D3DRESOURCE_GETPRIVATEDATA?$AA@ 0052342c     d3d8d:stats.obj
 0003:0005236c       ??_C@_0BG@JAHHHPCK@D3DRESOURCE_GETDEVICE?$AA@ 0052344c     d3d8d:stats.obj
 0003:00052388       ??_C@_0BM@EDBCPLOI@D3DRESOURCE_FREEPRIVATEDATA?$AA@ 00523468     d3d8d:stats.obj
 0003:000523ac       ??_C@_0BO@HCLADHMB@D3DRESOURCE_BLOCKUNTILNOTBUSY?$AA@ 0052348c     d3d8d:stats.obj
 0003:000523d0       ??_C@_0BD@MCJMNEMF@D3DRESOURCE_ADDREF?$AA@ 005234b0     d3d8d:stats.obj
 0003:000523e8       ??_C@_0BL@NEAKECMN@D3DDEVICE_SETTIMERCALLBACK?$AA@ 005234c8     d3d8d:stats.obj
 0003:00052408       ??_C@_0BK@BEPJEJDH@D3DDEVICE_GETPUSHDISTANCE?$AA@ 005234e8     d3d8d:stats.obj
 0003:00052428       ??_C@_0BK@GNJOELHJ@D3DDEVICE_SETWAITCALLBACK?$AA@ 00523508     d3d8d:stats.obj
 0003:00052448       ??_C@_0BF@MOKDEPCJ@D3DDEVICE_GETSTIPPLE?$AA@ 00523528     d3d8d:stats.obj
 0003:00052464       ??_C@_0BF@NAIMPIGA@D3DDEVICE_SETSTIPPLE?$AA@ 00523544     d3d8d:stats.obj
 0003:00052480       ??_C@_0BP@CDEDLCGA@D3DDEVICE_SETSOFTDISPLAYFILTER?$AA@ 00523560     d3d8d:stats.obj
 0003:000524a8       ??_C@_0BL@EMBIBPNI@D3DDEVICE_SETFLICKERFILTER?$AA@ 00523588     d3d8d:stats.obj
 0003:000524c8       ??_C@_0BL@JKIEKLHF@D3DDEVICE_GETOVERSCANCOLOR?$AA@ 005235a8     d3d8d:stats.obj
 0003:000524e8       ??_C@_0BL@PONNBFMH@D3DDEVICE_SETOVERSCANCOLOR?$AA@ 005235c8     d3d8d:stats.obj
 0003:00052508       ??_C@_0BI@MFIHLIFL@D3DDEVICE_UPDATEOVERLAY?$AA@ 005235e8     d3d8d:stats.obj
 0003:00052524       ??_C@_0BI@KHOMPGLO@D3DDEVICE_SWITCHTEXTURE?$AA@ 00523604     d3d8d:stats.obj
 0003:00052540       ??_C@_0BC@PIJKAHCL@D3DDEVICE_SUSPEND?$AA@ 00523620     d3d8d:stats.obj
 0003:00052558       ??_C@_0BG@OPOFFEJC@D3DDEVICE_SETVIEWPORT?$AA@ 00523638     d3d8d:stats.obj
 0003:00052574       ??_C@_0CD@BODFOKJO@D3DDEVICE_SETVERTICALBLANKCALLBA@ 00523654     d3d8d:stats.obj
 0003:000525a0       ??_C@_0BP@JPBKFHOH@D3DDEVICE_SETVERTEXSHADERINPUT?$AA@ 00523680     d3d8d:stats.obj
 0003:000525c8       ??_C@_0CC@JLHCHNBP@D3DDEVICE_SETVERTEXSHADERCONSTAN@ 005236a8     d3d8d:stats.obj
 0003:000525f0       ??_C@_0BK@MLMDEIPP@D3DDEVICE_SETVERTEXSHADER?$AA@ 005236d0     d3d8d:stats.obj
 0003:00052610       ??_C@_0BN@OHEHPMID@D3DDEVICE_SETVERTEXDATACOLOR?$AA@ 005236f0     d3d8d:stats.obj
 0003:00052634       ??_C@_0BL@EBFHLBIH@D3DDEVICE_SETVERTEXDATA4UB?$AA@ 00523714     d3d8d:stats.obj
 0003:00052654       ??_C@_0BK@JNEDGAJB@D3DDEVICE_SETVERTEXDATA4S?$AA@ 00523734     d3d8d:stats.obj
 0003:00052674       ??_C@_0BK@KKPGIGIF@D3DDEVICE_SETVERTEXDATA4F?$AA@ 00523754     d3d8d:stats.obj
 0003:00052694       ??_C@_0BK@JJMOBMCD@D3DDEVICE_SETVERTEXDATA2S?$AA@ 00523774     d3d8d:stats.obj
 0003:000526b4       ??_C@_0BK@KOHLPKDH@D3DDEVICE_SETVERTEXDATA2F?$AA@ 00523794     d3d8d:stats.obj
 0003:000526d4       ??_C@_0CC@JBDHPNKK@D3DDEVICE_SETVERTEXBLENDMODELVIE@ 005237b4     d3d8d:stats.obj
 0003:000526fc       ??_C@_0BH@CKCPBOCN@D3DDEVICE_SETTRANSFORM?$AA@ 005237dc     d3d8d:stats.obj
 0003:00052718       ??_C@_0BC@CHIIFHAK@D3DDEVICE_SETTILE?$AA@ 005237f8     d3d8d:stats.obj
 0003:00052730       ??_C@_0CI@IABDEICE@D3DDEVICE_SETTEXTURESTATE_TEXCOO@ 00523810     d3d8d:stats.obj
 0003:00052760       ??_C@_0CJ@JGIAFJPA@D3DDEVICE_SETTEXTURESTATE_PARAME@ 00523840     d3d8d:stats.obj
 0003:00052794       ??_C@_0CI@ONMLCNOH@D3DDEVICE_SETTEXTURESTATE_COLORK@ 00523874     d3d8d:stats.obj
 0003:000527c4       ??_C@_0CC@PAPCLHEG@D3DDEVICE_SETTEXTURESTATE_BUMPEN@ 005238a4     d3d8d:stats.obj
 0003:000527ec       ??_C@_0CG@IFMGHDKE@D3DDEVICE_SETTEXTURESTATE_BORDER@ 005238cc     d3d8d:stats.obj
 0003:0005281c       ??_C@_0CI@ICMHPFOM@D3DDEVICE_SETTEXTURESTAGESTATENO@ 005238fc     d3d8d:stats.obj
 0003:0005284c       ??_C@_0BF@HIMGPLF@D3DDEVICE_SETTEXTURE?$AA@ 0052392c     d3d8d:stats.obj
 0003:00052868       ??_C@_0BK@PNCKCIMM@D3DDEVICE_SETSWAPCALLBACK?$AA@ 00523948     d3d8d:stats.obj
 0003:00052888       ??_C@_0BK@BMJDCPHH@D3DDEVICE_SETSTREAMSOURCE?$AA@ 00523968     d3d8d:stats.obj
 0003:000528a8       ??_C@_0CA@NIHKLFC@D3DDEVICE_SETSHADERCONSTANTMODE?$AA@ 00523988     d3d8d:stats.obj
 0003:000528d0       ??_C@_0BP@IMEHPMGL@D3DDEVICE_SETSCREENSPACEOFFSET?$AA@ 005239b0     d3d8d:stats.obj
 0003:000528f8       ??_C@_0BG@GAGCMJGA@D3DDEVICE_SETSCISSORS?$AA@ 005239d8     d3d8d:stats.obj
 0003:00052914       ??_C@_0BK@JIPPGDDJ@D3DDEVICE_SETRENDERTARGET?$AA@ 005239f4     d3d8d:stats.obj
 0003:00052934       ??_C@_0CC@KGCKLDDI@D3DDEVICE_SETRENDERSTATENOTINLIN@ 00523a14     d3d8d:stats.obj
 0003:0005295c       ??_C@_0CF@ILOABJFP@D3DDEVICE_SETRENDERSTATE_SAMPLEA@ 00523a3c     d3d8d:stats.obj
 0003:00052988       ??_C@_0CH@KBHCLBIJ@D3DDEVICE_SETRENDERSTATE_STIPPLE@ 00523a68     d3d8d:stats.obj
 0003:000529b8       ??_C@_0CO@FLPNJOIA@D3DDEVICE_SETRENDERSTATE_PRESENT@ 00523a98     d3d8d:stats.obj
 0003:000529f0       ??_C@_0CB@EEKONPMH@D3DDEVICE_SETRENDERSTATE_ZENABLE@ 00523ad0     d3d8d:stats.obj
 0003:00052a18       ??_C@_0BP@PLLMPJCJ@D3DDEVICE_SETRENDERSTATE_ZBIAS?$AA@ 00523af8     d3d8d:stats.obj
 0003:00052a40       ??_C@_0CD@GIDKMOAK@D3DDEVICE_SETRENDERSTATE_YUVENAB@ 00523b20     d3d8d:stats.obj
 0003:00052a6c       ??_C@_0CF@KJDMCNHF@D3DDEVICE_SETRENDERSTATE_VERTEXB@ 00523b4c     d3d8d:stats.obj
 0003:00052a98       ??_C@_0CK@GKLGKJCK@D3DDEVICE_SETRENDERSTATE_TWOSIDE@ 00523b78     d3d8d:stats.obj
 0003:00052acc       ??_C@_0CH@MAKICNAE@D3DDEVICE_SETRENDERSTATE_TEXTURE@ 00523bac     d3d8d:stats.obj
 0003:00052afc       ??_C@_0CF@JHPDPPOG@D3DDEVICE_SETRENDERSTATE_STENCIL@ 00523bdc     d3d8d:stats.obj
 0003:00052b28       ??_C@_0CH@MBLJHHEK@D3DDEVICE_SETRENDERSTATE_STENCIL@ 00523c08     d3d8d:stats.obj
 0003:00052b58       ??_C@_0CL@PABCPPNJ@D3DDEVICE_SETRENDERSTATE_STENCIL@ 00523c38     d3d8d:stats.obj
 0003:00052b8c       ??_C@_0CA@DKEHFILC@D3DDEVICE_SETRENDERSTATE_SIMPLE?$AA@ 00523c6c     d3d8d:stats.obj
 0003:00052bb4       ??_C@_0CE@KICBAJOK@D3DDEVICE_SETRENDERSTATE_SHADOWF@ 00523c94     d3d8d:stats.obj
 0003:00052be0       ??_C@_0CC@PPFIKIAC@D3DDEVICE_SETRENDERSTATE_ROPZREA@ 00523cc0     d3d8d:stats.obj
 0003:00052c08       ??_C@_0CL@KEHFFNII@D3DDEVICE_SETRENDERSTATE_ROPZCMP@ 00523ce8     d3d8d:stats.obj
 0003:00052c3c       ??_C@_0CI@KJGPJJG@D3DDEVICE_SETRENDERSTATE_PSTEXTU@ 00523d1c     d3d8d:stats.obj
 0003:00052c6c       ??_C@_0CI@EMBINHHF@D3DDEVICE_SETRENDERSTATE_PARAMET@ 00523d4c     d3d8d:stats.obj
 0003:00052c9c       ??_C@_0CN@IMPNHIAF@D3DDEVICE_SETRENDERSTATE_OCCLUSI@ 00523d7c     d3d8d:stats.obj
 0003:00052cd4       ??_C@_0CK@BCGCECIA@D3DDEVICE_SETRENDERSTATE_NORMALI@ 00523db4     d3d8d:stats.obj
 0003:00052d08       ??_C@_0DF@GOMDBAJI@D3DDEVICE_SETRENDERSTATE_MULTISA@ 00523de8     d3d8d:stats.obj
 0003:00052d48       ??_C@_0CJ@MOEMNGKH@D3DDEVICE_SETRENDERSTATE_MULTISA@ 00523e28     d3d8d:stats.obj
 0003:00052d7c       ??_C@_0CJ@KJHJDJOP@D3DDEVICE_SETRENDERSTATE_MULTISA@ 00523e5c     d3d8d:stats.obj
 0003:00052db0       ??_C@_0CO@EEIBGGD@D3DDEVICE_SETRENDERSTATE_MULTISA@ 00523e90     d3d8d:stats.obj
 0003:00052de8       ??_C@_0CB@MADKJNAE@D3DDEVICE_SETRENDERSTATE_LOGICOP@ 00523ec8     d3d8d:stats.obj
 0003:00052e10       ??_C@_0CD@NKEONEJG@D3DDEVICE_SETRENDERSTATE_LINEWID@ 00523ef0     d3d8d:stats.obj
 0003:00052e3c       ??_C@_0CD@LCIJBCGC@D3DDEVICE_SETRENDERSTATE_FRONTFA@ 00523f1c     d3d8d:stats.obj
 0003:00052e68       ??_C@_0CC@HLKKMOAI@D3DDEVICE_SETRENDERSTATE_FOGCOLO@ 00523f48     d3d8d:stats.obj
 0003:00052e90       ??_C@_0CC@CPDHLGFJ@D3DDEVICE_SETRENDERSTATE_FILLMOD@ 00523f70     d3d8d:stats.obj
 0003:00052eb8       ??_C@_0CH@OGDJJFGO@D3DDEVICE_SETRENDERSTATE_EDGEANT@ 00523f98     d3d8d:stats.obj
 0003:00052ee8       ??_C@_0CJ@PMCCGJMN@D3DDEVICE_SETRENDERSTATE_DXT1NOI@ 00523fc8     d3d8d:stats.obj
 0003:00052f1c       ??_C@_0CP@DFHAGOMB@D3DDEVICE_SETRENDERSTATE_DONOTCU@ 00523ffc     d3d8d:stats.obj
 0003:00052f54       ??_C@_0CC@EOLENHHC@D3DDEVICE_SETRENDERSTATE_CULLMOD@ 00524034     d3d8d:stats.obj
 0003:00052f7c       ??_C@_0CG@DCMCGOAK@D3DDEVICE_SETRENDERSTATE_BACKFIL@ 0052405c     d3d8d:stats.obj
 0003:00052fac       ??_C@_0CA@JICDLHHJ@D3DDEVICE_SETPIXELSHADERPROGRAM?$AA@ 0052408c     d3d8d:stats.obj
 0003:00052fd4       ??_C@_0CB@DGFDCIPB@D3DDEVICE_SETPIXELSHADERCONSTANT@ 005240b4     d3d8d:stats.obj
 0003:00052ffc       ??_C@_0BJ@CEPGHDNP@D3DDEVICE_SETPIXELSHADER?$AA@ 005240dc     d3d8d:stats.obj
 0003:0005301c       ??_C@_0BF@OHPKADE@D3DDEVICE_SETPALETTE?$AA@ 005240fc     d3d8d:stats.obj
 0003:00053038       ??_C@_0BH@PILDHMIJ@D3DDEVICE_SETMODELVIEW?$AA@ 00524118     d3d8d:stats.obj
 0003:00053054       ??_C@_0BG@FOPCCOKN@D3DDEVICE_SETMATERIAL?$AA@ 00524134     d3d8d:stats.obj
 0003:00053070       ??_C@_0BD@OHJGNLN@D3DDEVICE_SETLIGHT?$AA@ 00524150     d3d8d:stats.obj
 0003:00053088       ??_C@_0BF@HONCIGAH@D3DDEVICE_SETINDICES?$AA@ 00524168     d3d8d:stats.obj
 0003:000530a4       ??_C@_0BH@MGALDIBA@D3DDEVICE_SETGAMMARAMP?$AA@ 00524184     d3d8d:stats.obj
 0003:000530c0       ??_C@_0BN@GJNJGKHG@D3DDEVICE_SETDEPTHCLIPPLANES?$AA@ 005241a0     d3d8d:stats.obj
 0003:000530e4       ??_C@_0BK@KCNBHJGG@D3DDEVICE_SETBACKMATERIAL?$AA@ 005241c4     d3d8d:stats.obj
 0003:00053104       ??_C@_0BN@DNNBOGBO@D3DDEVICE_SETBACKBUFFERSCALE?$AA@ 005241e4     d3d8d:stats.obj
 0003:00053128       ??_C@_0BB@HMOGFEML@D3DDEVICE_SENDCC?$AA@ 00524208     d3d8d:stats.obj
 0003:0005313c       ??_C@_0BN@EBFKHJFA@D3DDEVICE_SELECTVERTEXSHADER?$AA@ 0052421c     d3d8d:stats.obj
 0003:00053160       ??_C@_0BP@PMABMAKB@D3DDEVICE_RUNVERTEXSTATESHADER?$AA@ 00524240     d3d8d:stats.obj
 0003:00053188       ??_C@_0BI@IMJABBEJ@D3DDEVICE_RUNPUSHBUFFER?$AA@ 00524268     d3d8d:stats.obj
 0003:000531a4       ??_C@_0BB@PGIALGDK@D3DDEVICE_RESUME?$AA@ 00524284     d3d8d:stats.obj
 0003:000531b8       ??_C@_0BA@LIAANOKC@D3DDEVICE_RESET?$AA@ 00524298     d3d8d:stats.obj
 0003:000531cc       ??_C@_0CD@PEPPEGLA@D3DDEVICE_READVERTEXSHADERCONSTA@ 005242ac     d3d8d:stats.obj
 0003:000531f8       ??_C@_0BL@FKKFFKLK@D3DDEVICE_PRIMEVERTEXCACHE?$AA@ 005242d8     d3d8d:stats.obj
 0003:00053218       ??_C@_0BC@GLFPLHEB@D3DDEVICE_PRESENT?$AA@ 005242f8     d3d8d:stats.obj
 0003:00053230       ??_C@_0BJ@KEDIHEOJ@D3DDEVICE_PERSISTDISPLAY?$AA@ 00524310     d3d8d:stats.obj
 0003:00053250       ??_C@_0O@PMJMKAIJ@D3DDEVICE_NOP?$AA@ 00524330     d3d8d:stats.obj
 0003:00053260       ??_C@_0BM@CHLAECPP@D3DDEVICE_MULTIPLYTRANSFORM?$AA@ 00524340     d3d8d:stats.obj
 0003:00053284       ??_C@_0CC@BDMGNANJ@D3DDEVICE_LOADVERTEXSHADERPROGRA@ 00524364     d3d8d:stats.obj
 0003:000532ac       ??_C@_0BL@KIPEJAM@D3DDEVICE_LOADVERTEXSHADER?$AA@ 0052438c     d3d8d:stats.obj
 0003:000532cc       ??_C@_0BG@BKAEKLPM@D3DDEVICE_LIGHTENABLE?$AA@ 005243ac     d3d8d:stats.obj
 0003:000532e8       ??_C@_0BJ@CMALIOBB@D3DDEVICE_KICKPUSHBUFFER?$AA@ 005243c8     d3d8d:stats.obj
 0003:00053308       ??_C@_0BJ@NHFHDAGI@D3DDEVICE_ISFENCEPENDING?$AA@ 005243e8     d3d8d:stats.obj
 0003:00053328       ??_C@_0BB@OLJJPCJN@D3DDEVICE_ISBUSY?$AA@ 00524408     d3d8d:stats.obj
 0003:0005333c       ??_C@_0BG@CLAJENHP@D3DDEVICE_INSERTFENCE?$AA@ 0052441c     d3d8d:stats.obj
 0003:00053358       ??_C@_0BJ@DLGLAIPM@D3DDEVICE_INSERTCALLBACK?$AA@ 00524438     d3d8d:stats.obj
 0003:00053378       ??_C@_0CC@LGFBBEBK@D3DDEVICE_GETVISIBILITYTESTRESUL@ 00524458     d3d8d:stats.obj
 0003:000533a0       ??_C@_0CE@EIBBMLME@D3DDEVICE_GETVIEWPORTOFFSETANDSC@ 00524480     d3d8d:stats.obj
 0003:000533cc       ??_C@_0BG@OAPLICBB@D3DDEVICE_GETVIEWPORT?$AA@ 005244ac     d3d8d:stats.obj
 0003:000533e8       ??_C@_0BO@HIOCLJJD@D3DDEVICE_GETVERTEXSHADERTYPE?$AA@ 005244c8     d3d8d:stats.obj
 0003:0005340c       ??_C@_0BO@JHEMLHMK@D3DDEVICE_GETVERTEXSHADERSIZE?$AA@ 005244ec     d3d8d:stats.obj
 0003:00053430       ??_C@_0BP@MGAHEBLA@D3DDEVICE_GETVERTEXSHADERINPUT?$AA@ 00524510     d3d8d:stats.obj
 0003:00053458       ??_C@_0CC@FNHOEOEJ@D3DDEVICE_GETVERTEXSHADERFUNCTIO@ 00524538     d3d8d:stats.obj
 0003:00053480       ??_C@_0CF@HMHODAHO@D3DDEVICE_GETVERTEXSHADERDECLARA@ 00524560     d3d8d:stats.obj
 0003:000534ac       ??_C@_0CC@INBPJMHN@D3DDEVICE_GETVERTEXSHADERCONSTAN@ 0052458c     d3d8d:stats.obj
 0003:000534d4       ??_C@_0BK@PJNFDKOG@D3DDEVICE_GETVERTEXSHADER?$AA@ 005245b4     d3d8d:stats.obj
 0003:000534f4       ??_C@_0CC@IHFKBMMI@D3DDEVICE_GETVERTEXBLENDMODELVIE@ 005245d4     d3d8d:stats.obj
 0003:0005351c       ??_C@_0BH@FOJBNCGB@D3DDEVICE_GETTRANSFORM?$AA@ 005245fc     d3d8d:stats.obj
 0003:00053538       ??_C@_0CB@BDDPAKH@D3DDEVICE_GETTILECOMPRESSIONTAGS@ 00524618     d3d8d:stats.obj
 0003:00053560       ??_C@_0BC@NPHJGINL@D3DDEVICE_GETTILE?$AA@ 00524640     d3d8d:stats.obj
 0003:00053578       ??_C@_0BP@FMJALMBL@D3DDEVICE_GETTEXTURESTAGESTATE?$AA@ 00524658     d3d8d:stats.obj
 0003:000535a0       ??_C@_0BF@BJKDNIPM@D3DDEVICE_GETTEXTURE?$AA@ 00524680     d3d8d:stats.obj
 0003:000535bc       ??_C@_0BK@COIFFNGO@D3DDEVICE_GETSTREAMSOURCE?$AA@ 0052469c     d3d8d:stats.obj
 0003:000535dc       ??_C@_0CA@PINBHCBD@D3DDEVICE_GETSHADERCONSTANTMODE?$AA@ 005246bc     d3d8d:stats.obj
 0003:00053604       ??_C@_0BP@NFFKOKDM@D3DDEVICE_GETSCREENSPACEOFFSET?$AA@ 005246e4     d3d8d:stats.obj
 0003:0005362c       ??_C@_0BG@GPHMBPOD@D3DDEVICE_GETSCISSORS?$AA@ 0052470c     d3d8d:stats.obj
 0003:00053648       ??_C@_0BK@KKOJBBCA@D3DDEVICE_GETRENDERTARGET?$AA@ 00524728     d3d8d:stats.obj
 0003:00053668       ??_C@_0BJ@GGJCCHJB@D3DDEVICE_GETRENDERSTATE?$AA@ 00524748     d3d8d:stats.obj
 0003:00053688       ??_C@_0BK@ELBEKPEJ@D3DDEVICE_GETRASTERSTATUS?$AA@ 00524768     d3d8d:stats.obj
 0003:000536a8       ??_C@_0BO@JFPAJEO@D3DDEVICE_GETPUSHBUFFEROFFSET?$AA@ 00524788     d3d8d:stats.obj
 0003:000536cc       ??_C@_0CG@LPDDCDBJ@D3DDEVICE_GETPROJECTIONVIEWPORTM@ 005247ac     d3d8d:stats.obj
 0003:000536fc       ??_C@_0CB@OHBMNNBK@D3DDEVICE_GETPIXELSHADERFUNCTION@ 005247dc     d3d8d:stats.obj
 0003:00053724       ??_C@_0CB@DHHNAPCO@D3DDEVICE_GETPIXELSHADERCONSTANT@ 00524804     d3d8d:stats.obj
 0003:0005374c       ??_C@_0BJ@OKOIIJPD@D3DDEVICE_GETPIXELSHADER?$AA@ 0052482c     d3d8d:stats.obj
 0003:0005376c       ??_C@_0BF@BAFABHHN@D3DDEVICE_GETPALETTE?$AA@ 0052484c     d3d8d:stats.obj
 0003:00053788       ??_C@_0CB@KCEEJIME@D3DDEVICE_GETOVERLAYUPDATESTATUS@ 00524868     d3d8d:stats.obj
 0003:000537b0       ??_C@_0BH@IMANLAMF@D3DDEVICE_GETMODELVIEW?$AA@ 00524890     d3d8d:stats.obj
 0003:000537cc       ??_C@_0BG@FBOMPICO@D3DDEVICE_GETMATERIAL?$AA@ 005248ac     d3d8d:stats.obj
 0003:000537e8       ??_C@_0BJ@JGCAJEAO@D3DDEVICE_GETLIGHTENABLE?$AA@ 005248c8     d3d8d:stats.obj
 0003:00053808       ??_C@_0BD@PPFFHOMA@D3DDEVICE_GETLIGHT?$AA@ 005248e8     d3d8d:stats.obj
 0003:00053820       ??_C@_0BF@GAPNDBEO@D3DDEVICE_GETINDICES?$AA@ 00524900     d3d8d:stats.obj
 0003:0005383c       ??_C@_0BH@LCLFPEFM@D3DDEVICE_GETGAMMARAMP?$AA@ 0052491c     d3d8d:stats.obj
 0003:00053858       ??_C@_0BJ@NFDKHLMB@D3DDEVICE_GETDISPLAYMODE?$AA@ 00524938     d3d8d:stats.obj
 0003:00053878       ??_C@_0CA@NJDKENIF@D3DDEVICE_GETDISPLAYFIELDSTATUS?$AA@ 00524958     d3d8d:stats.obj
 0003:000538a0       ??_C@_0BG@CNCFGHLM@D3DDEVICE_GETDIRECT3D?$AA@ 00524980     d3d8d:stats.obj
 0003:000538bc       ??_C@_0BI@HAHFHNED@D3DDEVICE_GETDEVICECAPS?$AA@ 0052499c     d3d8d:stats.obj
 0003:000538d8       ??_C@_0CB@GADDPEOP@D3DDEVICE_GETDEPTHSTENCILSURFACE@ 005249b8     d3d8d:stats.obj
 0003:00053900       ??_C@_0BN@JDPDFMJO@D3DDEVICE_GETDEPTHCLIPPLANES?$AA@ 005249e0     d3d8d:stats.obj
 0003:00053924       ??_C@_0CA@FIDFOPFG@D3DDEVICE_GETCREATIONPARAMETERS?$AA@ 00524a04     d3d8d:stats.obj
 0003:0005394c       ??_C@_0BG@IFGAKMFD@D3DDEVICE_GETCCSTATUS?$AA@ 00524a2c     d3d8d:stats.obj
 0003:00053968       ??_C@_0BK@JAMHALHP@D3DDEVICE_GETBACKMATERIAL?$AA@ 00524a48     d3d8d:stats.obj
 0003:00053988       ??_C@_0BN@MHPLNAPG@D3DDEVICE_GETBACKBUFFERSCALE?$AA@ 00524a68     d3d8d:stats.obj
 0003:000539ac       ??_C@_0BI@MGDJPJAF@D3DDEVICE_GETBACKBUFFER?$AA@ 00524a8c     d3d8d:stats.obj
 0003:000539c8       ??_C@_0BL@MHPHIDMD@D3DDEVICE_FLUSHVERTEXCACHE?$AA@ 00524aa8     d3d8d:stats.obj
 0003:000539e8       ??_C@_0BM@JMMJIFK@D3DDEVICE_ENDVISIBILITYTEST?$AA@ 00524ac8     d3d8d:stats.obj
 0003:00053a0c       ??_C@_0BI@JKFFLLHN@D3DDEVICE_ENDSTATEBLOCK?$AA@ 00524aec     d3d8d:stats.obj
 0003:00053a28       ??_C@_0BI@DGBGHGPN@D3DDEVICE_ENDPUSHBUFFER?$AA@ 00524b08     d3d8d:stats.obj
 0003:00053a44       ??_C@_0BC@NBBGONCA@D3DDEVICE_ENDPUSH?$AA@ 00524b24     d3d8d:stats.obj
 0003:00053a5c       ??_C@_0O@EPBJKOK@D3DDEVICE_END?$AA@ 00524b3c     d3d8d:stats.obj
 0003:00053a6c       ??_C@_0BI@NIOMPOFA@D3DDEVICE_ENABLEOVERLAY?$AA@ 00524b4c     d3d8d:stats.obj
 0003:00053a88       ??_C@_0BD@OIBKLEIF@D3DDEVICE_ENABLECC?$AA@ 00524b68     d3d8d:stats.obj
 0003:00053aa0       ??_C@_0BJ@BCMMINEE@D3DDEVICE_DRAWVERTICESUP?$AA@ 00524b80     d3d8d:stats.obj
 0003:00053ac0       ??_C@_0BH@MODOFCOB@D3DDEVICE_DRAWVERTICES?$AA@ 00524ba0     d3d8d:stats.obj
 0003:00053adc       ??_C@_0BH@DIPLFLLI@D3DDEVICE_DRAWTRIPATCH?$AA@ 00524bbc     d3d8d:stats.obj
 0003:00053af8       ??_C@_0BI@PMADCLMH@D3DDEVICE_DRAWRECTPATCH?$AA@ 00524bd8     d3d8d:stats.obj
 0003:00053b14       ??_C@_0CA@EJEAALLP@D3DDEVICE_DRAWINDEXEDVERTICESUP?$AA@ 00524bf4     d3d8d:stats.obj
 0003:00053b3c       ??_C@_0BO@IODKNLFC@D3DDEVICE_DRAWINDEXEDVERTICES?$AA@ 00524c1c     d3d8d:stats.obj
 0003:00053b60       ??_C@_0BN@DMPIIEFO@D3DDEVICE_DELETEVERTEXSHADER?$AA@ 00524c40     d3d8d:stats.obj
 0003:00053b84       ??_C@_0BL@MHDFBNIE@D3DDEVICE_DELETESTATEBLOCK?$AA@ 00524c64     d3d8d:stats.obj
 0003:00053ba4       ??_C@_0BM@HNGNIPEL@D3DDEVICE_DELETEPIXELSHADER?$AA@ 00524c84     d3d8d:stats.obj
 0003:00053bc8       ??_C@_0BG@ONOBABLN@D3DDEVICE_DELETEPATCH?$AA@ 00524ca8     d3d8d:stats.obj
 0003:00053be4       ??_C@_0BO@BNEAIPIG@D3DDEVICE_CREATEVOLUMETEXTURE?$AA@ 00524cc4     d3d8d:stats.obj
 0003:00053c08       ??_C@_0BN@MMMJBDD@D3DDEVICE_CREATEVERTEXSHADER?$AA@ 00524ce8     d3d8d:stats.obj
 0003:00053c2c       ??_C@_0BN@GKAEADJH@D3DDEVICE_CREATEVERTEXBUFFER?$AA@ 00524d0c     d3d8d:stats.obj
 0003:00053c50       ??_C@_0BI@DCOHCBAP@D3DDEVICE_CREATETEXTURE?$AA@ 00524d30     d3d8d:stats.obj
 0003:00053c6c       ??_C@_0BL@JDKHDPFA@D3DDEVICE_CREATESTATEBLOCK?$AA@ 00524d4c     d3d8d:stats.obj
 0003:00053c8c       ??_C@_0BN@FPPALKPF@D3DDEVICE_CREATERENDERTARGET?$AA@ 00524d6c     d3d8d:stats.obj
 0003:00053cb0       ??_C@_0BL@DPOEPCNA@D3DDEVICE_CREATEPUSHBUFFER?$AA@ 00524d90     d3d8d:stats.obj
 0003:00053cd0       ??_C@_0BM@PMIHALKE@D3DDEVICE_CREATEPIXELSHADER?$AA@ 00524db0     d3d8d:stats.obj
 0003:00053cf4       ??_C@_0BI@DLBEOOIO@D3DDEVICE_CREATEPALETTE?$AA@ 00524dd4     d3d8d:stats.obj
 0003:00053d10       ??_C@_0BM@OHKGAFFJ@D3DDEVICE_CREATEINDEXBUFFER?$AA@ 00524df0     d3d8d:stats.obj
 0003:00053d34       ??_C@_0BN@HKDNNAJE@D3DDEVICE_CREATEIMAGESURFACE?$AA@ 00524e14     d3d8d:stats.obj
 0003:00053d58       ??_C@_0BG@IKNEBBNI@D3DDEVICE_CREATEFIXUP?$AA@ 00524e38     d3d8d:stats.obj
 0003:00053d74       ??_C@_0CE@DGFLCKEG@D3DDEVICE_CREATEDEPTHSTENCILSURF@ 00524e54     d3d8d:stats.obj
 0003:00053da0       ??_C@_0BM@OHKIOLBP@D3DDEVICE_CREATECUBETEXTURE?$AA@ 00524e80     d3d8d:stats.obj
 0003:00053dc4       ??_C@_0BE@ODLECIBH@D3DDEVICE_COPYRECTS?$AA@ 00524ea4     d3d8d:stats.obj
 0003:00053ddc       ??_C@_0BA@FJLLGKPE@D3DDEVICE_CLEAR?$AA@ 00524ebc     d3d8d:stats.obj
 0003:00053df0       ??_C@_0BM@CCEJMLNC@D3DDEVICE_CAPTURESTATEBLOCK?$AA@ 00524ed0     d3d8d:stats.obj
 0003:00053e14       ??_C@_0CC@FPJJEION@D3DDEVICE_BLOCKUNTILVERTICALBLAN@ 00524ef4     d3d8d:stats.obj
 0003:00053e3c       ??_C@_0BJ@LNPFBNDB@D3DDEVICE_BLOCKUNTILIDLE?$AA@ 00524f1c     d3d8d:stats.obj
 0003:00053e5c       ??_C@_0BH@PKGBKJDH@D3DDEVICE_BLOCKONFENCE?$AA@ 00524f3c     d3d8d:stats.obj
 0003:00053e78       ??_C@_0BO@MOOAAIEH@D3DDEVICE_BEGINVISIBILITYTEST?$AA@ 00524f58     d3d8d:stats.obj
 0003:00053e9c       ??_C@_0BK@KFPOKOKN@D3DDEVICE_BEGINSTATEBLOCK?$AA@ 00524f7c     d3d8d:stats.obj
 0003:00053ebc       ??_C@_0BK@JLNGDCN@D3DDEVICE_BEGINPUSHBUFFER?$AA@ 00524f9c     d3d8d:stats.obj
 0003:00053edc       ??_C@_0BE@INOHGCAF@D3DDEVICE_BEGINPUSH?$AA@ 00524fbc     d3d8d:stats.obj
 0003:00053ef4       ??_C@_0BA@NNJKBPEO@D3DDEVICE_BEGIN?$AA@ 00524fd4     d3d8d:stats.obj
 0003:00053f08       ??_C@_0BK@JNADBKFH@D3DDEVICE_APPLYSTATEBLOCK?$AA@ 00524fe8     d3d8d:stats.obj
 0003:00053f28       ??_C@_0BL@LFEFEFHD@DIRECT3D_SETPUSHBUFFERSIZE?$AA@ 00525008     d3d8d:stats.obj
 0003:00053f48       ??_C@_0BH@OLCFEAMM@DIRECT3D_GETDEVICECAPS?$AA@ 00525028     d3d8d:stats.obj
 0003:00053f64       ??_C@_0BN@OFKIAMLE@DIRECT3D_GETADAPTERMODECOUNT?$AA@ 00525044     d3d8d:stats.obj
 0003:00053f88       ??_C@_0BO@JFBPDNNO@DIRECT3D_GETADAPTERIDENTIFIER?$AA@ 00525068     d3d8d:stats.obj
 0003:00053fac       ??_C@_0BP@BLNODCNK@DIRECT3D_GETADAPTERDISPLAYMODE?$AA@ 0052508c     d3d8d:stats.obj
 0003:00053fd4       ??_C@_0BK@COEJJFPC@DIRECT3D_ENUMADAPTERMODES?$AA@ 005250b4     d3d8d:stats.obj
 0003:00053ff4       ??_C@_0BG@GKLBJAEK@DIRECT3D_CREATEDEVICE?$AA@ 005250d4     d3d8d:stats.obj
 0003:00054010       ??_C@_0BJ@OLBDBKJH@DIRECT3D_CHECKDEVICETYPE?$AA@ 005250f0     d3d8d:stats.obj
 0003:00054030       ??_C@_0CE@NBCHIMIC@DIRECT3D_CHECKDEVICEMULTISAMPLET@ 00525110     d3d8d:stats.obj
 0003:0005405c       ??_C@_0BL@PGFHGGPN@DIRECT3D_CHECKDEVICEFORMAT?$AA@ 0052513c     d3d8d:stats.obj
 0003:0005407c       ??_C@_0CA@JNJFNKFF@DIRECT3D_CHECKDEPTHSTENCILMATCH?$AA@ 0052515c     d3d8d:stats.obj
 0003:000540a4       ??_C@_0BD@KFJNCFKH@SETSTATE_TRANSFORM?$AA@ 00525184     d3d8d:stats.obj
 0003:000540bc       ??_C@_0BA@OEKFAMGG@SETSTATE_LIGHTS?$AA@ 0052519c     d3d8d:stats.obj
 0003:000540d0       ??_C@_0BG@MJBAOMOF@SETSTATE_TEXTRANSFORM?$AA@ 005251b0     d3d8d:stats.obj
 0003:000540ec       ??_C@_0BJ@CEFJOOJG@SETSTATE_SPECFOGCOMBINER?$AA@ 005251cc     d3d8d:stats.obj
 0003:0005410c       ??_C@_0BG@GLOJKGHF@SETSTATE_TEXTURESTATE?$AA@ 005251ec     d3d8d:stats.obj
 0003:00054128       ??_C@_0BD@IEKONAKM@SETSTATE_COMBINERS?$AA@ 00525208     d3d8d:stats.obj
 0003:00054140       ??_C@_0BF@EIDCMHJC@SETSTATE_POINTPARAMS?$AA@ 00525220     d3d8d:stats.obj
 0003:0005415c       ??_C@_0BK@GPMLGPGO@REDUNDANT_SETSTREAMSOURCE?$AA@ 0052523c     d3d8d:stats.obj
 0003:0005417c       ??_C@_0BF@PMFJFHGO@REDUNDANT_SETPALETTE?$AA@ 0052525c     d3d8d:stats.obj
 0003:00054198       ??_C@_0BF@PFKKJIOP@REDUNDANT_SETTEXTURE?$AA@ 00525278     d3d8d:stats.obj
 0003:000541b4       ??_C@_0BH@EJKCDOGK@REDUNDANT_SETTRANSFORM?$AA@ 00525294     d3d8d:stats.obj
 0003:000541d0       ??_C@_0BK@LIJLAIOG@REDUNDANT_SETVERTEXSHADER?$AA@ 005252b0     d3d8d:stats.obj
 0003:000541f0       ??_C@_0BK@ONMOEFCN@REDUNDANT_SETTEXTURESTATE?$AA@ 005252d0     d3d8d:stats.obj
 0003:00054210       ??_C@_0BJ@CMNKEHDK@REDUNDANT_SETRENDERSTATE?$AA@ 005252f0     d3d8d:stats.obj
 0003:00054230       ??_C@_0BE@GPFJPGEF@RUNPUSHBUFFER_BYTES?$AA@ 00525310     d3d8d:stats.obj
 0003:00054248       ??_C@_0BL@GKDEAGGB@PUSHBUFFER_JUMPTOBEGINNING?$AA@ 00525328     d3d8d:stats.obj
 0003:00054268       ??_C@_0BK@DGMLEHC@UNSWIZZLING_TEXTURE_LOCKS?$AA@ 00525348     d3d8d:stats.obj
 0003:00054288       ??_C@_0BH@BIKBMNFD@CPUSPINDURINGWAIT_TIME?$AA@ 00525368     d3d8d:stats.obj
 0003:000542a4       ??_C@_0BN@OCDLODDG@D3DDEVICE_BLOCKONFENCE_WAITS?$AA@ 00525384     d3d8d:stats.obj
 0003:000542c8       ??_C@_0CI@NIELJDND@D3DDEVICE_BLOCKUNTILVERTICALBLAN@ 005253a8     d3d8d:stats.obj
 0003:000542f8       ??_C@_0BP@JGNCEDEJ@D3DDEVICE_BLOCKUNTILIDLE_WAITS?$AA@ 005253d8     d3d8d:stats.obj
 0003:00054320       ??_C@_0O@CLBABCLD@PRESENT_WAITS?$AA@ 00525400     d3d8d:stats.obj
 0003:00054330       ??_C@_0BB@MOGPPBMD@OBJECTLOCK_WAITS?$AA@ 00525410     d3d8d:stats.obj
 0003:00054344       ??_C@_0BB@MJOPNANF@PUSHBUFFER_WAITS?$AA@ 00525424     d3d8d:stats.obj
 0003:00054358       ??_C@_0BE@PJMHHPML@PUSHBUFFER_SEGMENTS?$AA@ 00525438     d3d8d:stats.obj
 0003:00054370       ??_C@_0BF@GDPPMKIO@SETTRANSFORM_TEXTURE?$AA@ 00525450     d3d8d:stats.obj
 0003:0005438c       ??_C@_0BI@CCHDEPBB@SETTRANSFORM_PROJECTION?$AA@ 0052546c     d3d8d:stats.obj
 0003:000543a8       ??_C@_0BC@EGDFJNMC@SETTRANSFORM_VIEW?$AA@ 00525488     d3d8d:stats.obj
 0003:000543c0       ??_C@_0BD@HIJIBJLC@SETTRANSFORM_WORLD?$AA@ 005254a0     d3d8d:stats.obj
 0003:000543d8       ??_C@_08GBBDCBAM@VERTICES?$AA@ 005254b8     d3d8d:stats.obj
 0003:000543e4       ??_C@_0L@EFCDGGAC@swap?5stall?$AA@ 005254c4     d3d8d:stats.obj
 0003:000543f4       ??_C@_07KHALEBB@backend?$AA@ 005254d4     d3d8d:stats.obj
 0003:00054400       ??_C@_08NEIINOAD@frontend?$AA@ 005254e0     d3d8d:stats.obj
 0003:0005440c       ??_C@_03HOPDAKLK@gpu?$AA@  005254ec     d3d8d:stats.obj
 0003:00054410       ??_C@_0CN@EMJDKNKL@?$CBg_PerfCounters?4m_PushBufferEndD@ 005254f0     d3d8d:stats.obj
 0003:00054448       ??_C@_0DE@FHGAGMLD@?$CB?$CIg_pDevice?9?$DOm_StateFlags?5?$CG?5STAT@ 00525528     d3d8d:stats.obj
 0003:00054488       ??_C@_06PEMDLAIA@User10?$AA@ 00525568     d3d8d:stats.obj
 0003:00054490       ??_C@_05PJAFGLLC@User9?$AA@ 00525570     d3d8d:stats.obj
 0003:00054498       ??_C@_05OABOFKPD@User8?$AA@ 00525578     d3d8d:stats.obj
 0003:000544a0       ??_C@_05GHIGEGDM@User7?$AA@ 00525580     d3d8d:stats.obj
 0003:000544a8       ??_C@_05HOJNHHHN@User6?$AA@ 00525588     d3d8d:stats.obj
 0003:000544b0       ??_C@_05FFLACELO@User5?$AA@ 00525590     d3d8d:stats.obj
 0003:000544b8       ??_C@_05EMKLBFPP@User4?$AA@ 00525598     d3d8d:stats.obj
 0003:000544c0       ??_C@_05DOKIDDI@User3?$AA@ 005255a0     d3d8d:stats.obj
 0003:000544c8       ??_C@_05BKPBLCHJ@User2?$AA@ 005255a8     d3d8d:stats.obj
 0003:000544d0       ??_C@_05DBNMOBLK@User1?$AA@ 005255b0     d3d8d:stats.obj
 0003:000544d8       ??_C@_05CIMHNAPL@User0?$AA@ 005255b8     d3d8d:stats.obj
 0003:000544e0       ??_C@_07OPKBAMFL@event20?$AA@ 005255c0     d3d8d:stats.obj
 0003:000544ec       ??_C@_07DMCFAJEL@event19?$AA@ 005255cc     d3d8d:stats.obj
 0003:000544f8       ??_C@_07CFDODIAK@event18?$AA@ 005255d8     d3d8d:stats.obj
 0003:00054504       ??_C@_07KCKGCEMF@event17?$AA@ 005255e4     d3d8d:stats.obj
 0003:00054510       ??_C@_07LLLNBFIE@event16?$AA@ 005255f0     d3d8d:stats.obj
 0003:0005451c       ??_C@_07JAJAEGEH@event15?$AA@ 005255fc     d3d8d:stats.obj
 0003:00054528       ??_C@_07IJILHHAG@event14?$AA@ 00525608     d3d8d:stats.obj
 0003:00054534       ??_C@_0P@IFNJFJMC@ObjectLockWait?$AA@ 00525614     d3d8d:stats.obj
 0003:00054548       ??_C@_0P@NMDIHADG@PushBufferWait?$AA@ 00525628     d3d8d:stats.obj
 0003:0005455c       ??_C@_0N@NMNOCPO@BlockOnFence?$AA@ 0052563c     d3d8d:stats.obj
 0003:0005456c       ??_C@_0P@NDLNDBJC@BlockUntilIdle?$AA@ 0052564c     d3d8d:stats.obj
 0003:00054580       ??_C@_07FHKFELEN@Present?$AA@ 00525660     d3d8d:stats.obj
 0003:0005458c       ??_C@_07IMDOFAFF@Kickoff?$AA@ 0052566c     d3d8d:stats.obj
 0003:00054598       ??_C@_06HLBOAJAH@VBlank?$AA@ 00525678     d3d8d:stats.obj
 0003:000545a0       ??_C@_0O@PPDGOOMA@RunPushBuffer?$AA@ 00525680     d3d8d:stats.obj
 0003:000545b0       ??_C@_08NJGDGLFM@BeginEnd?$AA@ 00525690     d3d8d:stats.obj
 0003:000545bc       ??_C@_0BB@KJBHGFML@DrawIndexedVerts?$AA@ 0052569c     d3d8d:stats.obj
 0003:000545d0       ??_C@_0N@EFLJPMOL@DrawVertices?$AA@ 005256b0     d3d8d:stats.obj
 0003:000545e0       ??_C@_0BD@MFBKIDEK@DrawIndexedVertsUP?$AA@ 005256c0     d3d8d:stats.obj
 0003:000545f8       ??_C@_0P@NJENGAKG@DrawVerticesUP?$AA@ 005256d8     d3d8d:stats.obj
 0003:0005460c       ??_C@_06OENKJGA@Header?$AA@ 005256ec     d3d8d:stats.obj
 0003:00054614       ??_C@_0CN@MFAIGAC@?$CFs?$CF?9?$CKs?5?$CF9I64u?5?$CF9lu?5?$CF9I64u?5?$CF8lu?5?$CF@ 005256f4     d3d8d:stats.obj
 0003:00054660       ??_C@_0BA@FOGOMHOF@?5?5?5?5?$CK?$CK?$CK?5?$CFs?5?$CK?$CK?$CK?6?$AA@ 00525740     d3d8d:stats.obj
 0003:00054674       ??_C@_0DA@GKPJMMFN@Total?5Perf?5Events?3?5?$CFlu?5?5Presents@ 00525754     d3d8d:stats.obj
 0003:000546b0       ??_C@_0FC@IBLHLFPJ@?6Event?5?5?5?5?5?5?5?5?5?5?5?5?5?5?5?5CpuStart?5?5@ 00525790     d3d8d:stats.obj
 0003:00054714       ??_C@_0L@HINCJDMI@?$CF20s?3?5?$CFLu?6?$AA@ 005257f4     d3d8d:stats.obj
 0003:00054724       ??_C@_0O@HCGAGGAP@total?5samples?$AA@ 00525804     d3d8d:stats.obj
 0003:00054734       ??_C@_0BD@LKANBAHL@?$CF20s?3?5?$CFLu?5?$CI?$CFLu?$CF?$CF?$CJ?6?$AA@ 00525814     d3d8d:stats.obj
 0003:0005474c       ??_C@_0BP@NPOABBDJ@?$CD?$CFLu?$CJ?5?$CFs?5?$CFI64u?5cycles?5?$CI?$CFLums?$CJ?6?$AA@ 0052582c     d3d8d:stats.obj
 0003:00054774       ??_C@_0CH@HOLJAEAG@Interrupts?3?5?$CFLu?6Context?5Switches@ 00525854     d3d8d:stats.obj
 0003:000547a4       ??_C@_0BL@MOFOIDFH@Available?5RAM?3?5?$CFLu?5kbytes?6?$AA@ 00525884     d3d8d:stats.obj
 0003:000547c4       ??_C@_0DM@DBJILFIM@RunPushBuffer?5bytes?5traversed?3?5?$CF@ 005258a4     d3d8d:stats.obj
 0003:0005480c       ??_C@_0DE@IICFGBCN@PushBuffer?5writes?3?5?$CFI64u?5bytes?5?$CI@ 005258ec     d3d8d:stats.obj
 0003:0005484c       ??_C@_0DM@JHKNCDDE@?5?9?9?$DO?5Doesn?8t?5include?5vertices?5pr@ 0052592c     d3d8d:stats.obj
 0003:00054894       ??_C@_0DB@KDKNMGMG@Vertices?5processed?3?5?$CFLu?5verts?5?$CI?$CF@ 00525974     d3d8d:stats.obj
 0003:000548d0       ??_C@_0ED@DINHKLGP@?5?9?9?$DO?5D3DPERF_DUMP_FPS_PERFEVENTS@ 005259b0     d3d8d:stats.obj
 0003:00054920       ??_C@_0DG@JMHNIINE@?$CFs?5?$CI?$CFLu?$CJ?3?5?$CFLu?4?$CFLums?5?$CI?$CFLu?4?$CFLums?1w@ 00525a00     d3d8d:stats.obj
 0003:00054984       ??_C@_0DK@MPAMDMOK@Min?1max?5frame?5times?3?5?5frame?5?$CD?$CFLu@ 00525a64     d3d8d:stats.obj
 0003:000549cc       ??_C@_0DL@JCELCDEA@fps?3?5?$CFLu?4?$CFLu?5?$CI?$CFLu?4?$CFLu?5ms?1frame?$CJ?5@ 00525aac     d3d8d:stats.obj
 0003:00054a14       ??_C@_0BG@GFDKCHNP@?6Total?5Cycles?3?5?$CFI64u?6?$AA@ 00525af4     d3d8d:stats.obj
 0003:00054a30       ??_C@_0BK@MMIHDHNG@?6TextureState?5counters?3?6?6?$AA@ 00525b10     d3d8d:stats.obj
 0003:00054a50       ??_C@_0BE@KCNOLBHC@missing?5description?$AA@ 00525b30     d3d8d:stats.obj
 0003:00054a68       ??_C@_0BJ@PGEIBDGH@?6RenderState?5counters?3?6?6?$AA@ 00525b48     d3d8d:stats.obj
 0003:00054a88       ??_C@_0BB@DHNALNHG@?6API?5Counters?3?6?6?$AA@ 00525b68     d3d8d:stats.obj
 0003:00054a9c       ??_C@_0M@NHEDINIE@?$CF10Lu?5?9?5?$CFs?6?$AA@ 00525b7c     d3d8d:stats.obj
 0003:00054aac       ??_C@_0BE@BCDBGCFM@?$CF10Lu?5?9?5?$CFs?5?9?5?$CFI64u?6?$AA@ 00525b8c     d3d8d:stats.obj
 0003:00054ac4       ??_C@_0BI@OGFLFPOI@Performance?5Counters?3?6?6?$AA@ 00525ba4     d3d8d:stats.obj
 0003:00054af0       ??_C@_0BO@NLABBOCC@?$CI?$CISize?$CL3?$CJ?$CG0xfffffffc?$CJ?5?$DN?$DN?5Size?$AA@ 00525bd0     d3d8d:timing.obj
 0003:00054b14       ??_C@_0CF@FABCIBKL@TimingCapture?3?5Couldn?8t?5delete?5f@ 00525bf4     d3d8d:timing.obj
 0003:00054b40       ??_C@_0CJ@CFMKMGIE@TimingCapture?3?5Disk?5error?4?5?5Abor@ 00525c20     d3d8d:timing.obj
 0003:00054b74       ??_C@_09JOIKCMGN@?$CFs?2?$CFs?4tmg?$AA@ 00525c54     d3d8d:timing.obj
 0003:00054bb0       ??_C@_0DD@JPPKDGGJ@Timing?5?5Capture?3?5Could?5not?5alloc@ 00525c90     d3d8d:timing.obj
 0003:00054bf0       ??_C@_0CE@JBIMJEEJ@Could?5not?5allocate?5timing?5buffer@ 00525cd0     d3d8d:timing.obj
 0003:00054c20       ??_C@_0EN@MPFFNIFI@TimingCapture?3?5FileName?5can?8t?5in@ 00525d00     d3d8d:timing.obj
 0003:00054c7c       ??_C@_0CD@DKJFMKOB@TimingCapture?3?5Already?5capturing@ 00525d5c     d3d8d:timing.obj
 0003:00054ca8       ??_C@_0FB@OIALHOLA@Timing?5Capture?3?5User?5Event?5Misma@ 00525d88     d3d8d:timing.obj
 0003:00054d10       ??_C@_0FB@DFHBAJIE@Timing?5Capture?3?5User?5Event?5Misma@ 00525df0     d3d8d:timing.obj
 0003:00054d74       ??_C@_0CF@LOFFPJJL@Timing?5Capture?3?5CPU?5Buffer?5Over?9@ 00525e54     d3d8d:timing.obj
 0003:00054da0       ??_C@_0CF@KMKMPNCA@Timing?5Capture?3?5GPU?5Buffer?5Over?9@ 00525e80     d3d8d:timing.obj
 0003:00054dcc       ??_C@_0DA@KEIJEMLP@Timing?5Capture?3?5Vertical?5Blank?5B@ 00525eac     d3d8d:timing.obj
 0003:00054e08       ??_C@_09LEGDMPHC@depth?5?$DO?50?$AA@ 00525ee8     d3d8d:timing.obj
 0003:00054e14       ??_C@_0DG@GLIJJIDK@D3DPERF_SetMarker?3?5Device?5hasn?8t@ 00525ef4     d3d8d:timing.obj
 0003:00054e54       ??_C@_0DH@ICAGGNCK@D3DPERF_BeginEvent?3?5Device?5hasn?8@ 00525f34     d3d8d:timing.obj
 0003:00054e98       ??_C@_03HIPFDOEB@D3D?$AA@  00525f78     d3d8d:debug.obj
 0003:00054e9c       ??_C@_0CB@MPNLHHBK@D3D__AllocsNoncontiguous?5?$DO?$DN?5size@ 00525f7c     d3d8d:memory.obj
 0003:00054ec4       ??_C@_0BN@DFCDNKKM@MemFree?5?9?5Invalid?5pointer?5?$CFx?$AA@ 00525fa4     d3d8d:memory.obj
 0003:00054ee8       ??_C@_0DJ@MFIMKNEL@D3D_AllocContiguousMemory?5alignm@ 00525fc8     d3d8d:memory.obj
 0003:00054f2c       ??_C@_0DK@JKONBLGE@D3D_AllocContiguousMemory?5alignm@ 0052600c     d3d8d:memory.obj
 0003:00054f78       ??_C@_0JO@DMAGKHGM@Pusher?5?9?5The?5push?5buffer?5allocat@ 00526058     d3d8d:pusher.obj
 0003:00055038       ??_C@_0IO@HIHOLHB@Pusher?5?9?5Nested?5calls?5to?5the?5pus@ 00526118     d3d8d:pusher.obj
 0003:000550e4       ??_C@_0CK@MCPGFLIH@Previous?5BeginState?5never?5had?5an@ 005261c4     d3d8d:pusher.obj
 0003:00055118       ??_C@_0DJ@GDCJOKNO@pPush?5parameter?5not?5within?5range@ 005261f8     d3d8d:pusher.obj
 0003:0005515c       ??_C@_0DA@MAEDDFEJ@EndState?5without?5having?5first?5do@ 0052623c     d3d8d:pusher.obj
 0003:00055198       ??_C@_0BO@PNILCEEC@g_PushIndex?5?$DM?$DN?5g_ReservedSize?$AA@ 00526278     d3d8d:pusher.obj
 0003:000551bc       ??_C@_0CA@CKIGJMAF@g_PushState?5?$DN?$DN?5PUSH_STATE_START?$AA@ 0052629c     d3d8d:pusher.obj
 0003:000551e4       ??_C@_0BF@CPBJDFPD@pPush?5?$DN?$DN?5g_pPushNext?$AA@ 005262c4     d3d8d:pusher.obj
 0003:00055200       ??_C@_0N@HKEOOOIJ@count?5?$DM?52048?$AA@ 005262e0     d3d8d:pusher.obj
 0003:00055210       ??_C@_0EE@LEMNGJKP@?$CIpResource?9?$DOCommon?5?$CG?5D3DCOMMON_T@ 005262f0     d3d8d:pusher.obj
 0003:00055264       ??_C@_0DG@BGJIKCDG@FATAL?3?5Unable?5to?5allocate?5segmen@ 00526344     d3d8d:pusher.obj
 0003:000552a4       ??_C@_0BI@KKGBLDEB@m_PusherSegment?5?$DN?$DN?5NULL?$AA@ 00526384     d3d8d:pusher.obj
 0003:000552c0       ??_C@_0DB@EHKIKKHM@segments?5?$DO?$DN?5m_PushBufferSize?5?1?5m@ 005263a0     d3d8d:pusher.obj
 0003:00055300       ??_C@_0EL@CCJHLPGL@m_PushBufferSize?5?1?5sizeof?$CIFenceE@ 005263e0     d3d8d:pusher.obj
 0003:0005535c       ??_C@_0DE@DCOCPMLL@FATAL?3?5Unable?5to?5allocate?5push?5b@ 0052643c     d3d8d:pusher.obj
 0003:0005539c       ??_C@_0DH@ELMDKKKP@pDevice?9?$DOAge?$CIpFence?9?$DOTime?$CJ?5?$DM?$DN?5pD@ 0052647c     d3d8d:pusher.obj
 0003:000553e0       ??_C@_0CG@CDFIIKAJ@pFence?9?$DOTime?5?$CG?5PUSHER_TIME_VALID@ 005264c0     d3d8d:pusher.obj
 0003:00055410       ??_C@_0BK@NOHAGFLI@pFence?9?$DOpEncoding?5?$CB?$DN?5NULL?$AA@ 005264f0     d3d8d:pusher.obj
 0003:00055430       ??_C@_0CB@PAGAHGHL@TargetTime?5?$CB?$DN?5pDevice?9?$DOm_CpuTime@ 00526510     d3d8d:pusher.obj
 0003:00055458       ??_C@_0CE@LDCNIMHO@TargetTime?5?$CG?5PUSHER_TIME_VALID_F@ 00526538     d3d8d:pusher.obj
 0003:00055484       ??_C@_0BB@FGJFAJMN@previousAge?5?$DM?$DN?52?$AA@ 00526564     d3d8d:pusher.obj
 0003:00055498       ??_C@_0BA@HCFOLNM@segmentAge?5?$DM?$DN?52?$AA@ 00526578     d3d8d:pusher.obj
 0003:000554ac       ??_C@_0DH@JCJMMBFP@?$CIpSegment?5?$DO?$DN?5m_pPushBase?$CJ?5?$CG?$CG?5?$CIpS@ 0052658c     d3d8d:pusher.obj
 0003:000554f0       ??_C@_0CJ@NJGAHMII@GetPushDistance?5?9?5Invalid?5Handle@ 005265d0     d3d8d:pusher.obj
 0003:00055528       ??_C@_0EE@BMMFLGPL@?$CIm_pPut?5?$DM?5m_pPushLimit?$CJ?5?$HM?$HM?5?$CIm_St@ 00526608     d3d8d:pusher.obj
 0003:0005557c       ??_C@_0CA@BJHGAKML@g_PushState?5?$CB?$DN?5PUSH_STATE_START?$AA@ 0052665c     d3d8d:pusher.obj
 0003:000555a4       ??_C@_0BK@CNNEKOMJ@Graphics?5processor?5error?4?$AA@ 00526684     d3d8d:pusher.obj
 0003:000555c4       ??_C@_0DE@LJMIBGAL@Possible?5deadlock?0?5blocked?5for?5m@ 005266a4     d3d8d:pusher.obj
 0003:00055608       ??_C@_0FP@NKAIKJMN@?$CIpDevice?9?$DOm_pPut?5?$DM?5pDevice?9?$DOm_pP@ 005266e8     d3d8d:pusher.obj
 0003:0005567c       ??_C@_0DG@OJGKICGJ@Bad?5EndPush?3?5Expected?5?$CFlx?0?5got?5?$CF@ 0052675c     d3d8d:pusher.obj
 0003:000556c0       ??_C@_0FF@MHFJKMLI@Pusher?5?9?5End?5push?5is?5not?5paired?5@ 005267a0     d3d8d:pusher.obj
 0003:00055728       ??_C@_0BO@PMEDCDKC@time?5?$CG?5PUSHER_TIME_VALID_FLAG?$AA@ 00526808     d3d8d:pusher.obj
 0003:00055750       ??_C@_0EI@GGLKDPDE@D3DDevice_InsertFence?5?9?5can?8t?5In@ 00526830     d3d8d:pusher.obj
 0003:000557a8       ??_C@_0EJ@JKCFODAN@D3DDevice_InsertFence?5?9?5can?8t?5In@ 00526888     d3d8d:pusher.obj
 0003:00055800       ??_C@_0BC@IDLPAGBG@Possible?5deadlock?$AA@ 005268e0     d3d8d:pusher.obj
 0003:00055818       ??_C@_0DP@IGGLDOFI@?$CB?$CIFlags?5?$CG?5D3DWAIT_PUSHBUFFER?$CJ?5?$HM?$HM@ 005268f8     d3d8d:pusher.obj
 0003:00055864       ??_C@_0DE@FCFGEMNL@targetFence?9?$DOTime?5?$DN?$DN?5targetFence@ 00526944     d3d8d:pusher.obj
 0003:000558a8       ??_C@_0GN@GIDMDFOF@targetFence?9?$DOpEncoding?9?$DOm_Semaph@ 00526988     d3d8d:pusher.obj
 0003:0005592c       ??_C@_0BA@MCJGLJHD@Unexpected?5type?$AA@ 00526a0c     d3d8d:pusher.obj
 0003:00055940       ??_C@_0JN@LCHGPGNH@Pusher?5?9?5Attempting?5to?5block?5on?5@ 00526a20     d3d8d:pusher.obj
 0003:00055a00       ??_C@_0JO@NIHIIAA@Pusher?5?9?5Attempting?5to?5block?5whi@ 00526ae0     d3d8d:pusher.obj
 0003:00055ac0       ??_C@_0IN@DAMOELKN@?$CIpDevice?9?$DOGpuTime?$CI?$CJ?5?$CB?$DN?5pDevice?9?$DO@ 00526ba0     d3d8d:pusher.obj
 0003:00055b6c       ??_C@_0BO@BNJLFLKG@Time?5?$CG?5PUSHER_TIME_VALID_FLAG?$AA@ 00526c4c     d3d8d:pusher.obj
 0003:00055b90       ??_C@_0L@DDKPNMFP@Flags?5?$CB?$DN?50?$AA@ 00526c70     d3d8d:pusher.obj
 0003:00055ba0       ??_C@_0HC@DJGHABII@Space?5request?5is?5too?5big?5?9?5can?8t@ 00526c80     d3d8d:pusher.obj
 0003:00055c28       ??_C@_0CI@IMMEDCI@pDevice?9?$DOm_pPut?5?$DM?5pDevice?9?$DOm_pPu@ 00526d08     d3d8d:pusher.obj
 0003:00055c58       ??_C@_0DA@CJOGDLDC@RequestedSpace?5?$DM?$DN?5pDevice?9?$DOm_Pus@ 00526d38     d3d8d:pusher.obj
 0003:00055c94       ??_C@_0CN@BADJEEFD@RequestedSpace?5?$DO?$DN?5pDevice?9?$DOm_Pus@ 00526d74     d3d8d:pusher.obj
 0003:00055ccc       ??_C@_0BP@HCMDMHHN@MinimumSpace?5?$DM?$DN?5RequestedSpace?$AA@ 00526dac     d3d8d:pusher.obj
 0003:00055cf8       ??_C@_0EI@JNCMKHME@pDevice?9?$DOm_pPut?5?$CL?5count?5?$DM?5pDevic@ 00526dd8     d3d8d:pusher.obj
 0003:00055d50       ??_C@_0KH@IHCKNDPD@StartPush?5?9?5an?5individual?5push?5b@ 00526e30     d3d8d:pusher.obj
 0003:00055e18       ??_C@_0CN@CLPDINBO@pDevice?9?$DOm_PusherPendingFixupInt@ 00526ef8     d3d8d:pusher.obj
 0003:00055e50       ??_C@_0DG@IMLHJHGJ@Resource?5has?5an?5invalid?5?8Lock?8?5f@ 00526f30     d3d8d:pusher.obj
 0003:00055e90       ??_C@_0DC@CDBNPOIE@D3DDevice_InsertCallback?5?9?5Inval@ 00526f70     d3d8d:pusher.obj
 0003:00055ecc       ??_C@_0CN@DGCDCJJP@D3DDevice_InsertCallback?5?9?5Callb@ 00526fac     d3d8d:pusher.obj
 0003:00055f04       ??_C@_0CI@KLJLLNDJ@Previous?5BeginPush?5never?5had?5an?5@ 00526fe4     d3d8d:pusher.obj
 0003:00055f38       ??_C@_0GK@NECMKACO@Texture?5stage?5?$CFd?5is?5mapped?5to?5te@ 00527018     d3d8d:pusher.obj
 0003:00055fb8       ??_C@_0DI@BEJHKFDM@pPush?5parameter?5not?5within?5range@ 00527098     d3d8d:pusher.obj
 0003:00056000       ??_C@_0EK@FBOPPFK@End?5of?5buffer?5overwritten?5?$CImore?5@ 005270e0     d3d8d:pusher.obj
 0003:00056058       ??_C@_0CO@BIPEJAMA@EndPush?5without?5having?5first?5don@ 00527138     d3d8d:pusher.obj
 0003:000560a0       ?g_Mar@D3D@@3QBMB          00527180     d3d8d:math.obj
 0003:00056140       ?g_Lar@D3D@@3QBMB          00527220     d3d8d:math.obj
 0003:000561dc       ??_C@_08DKEMNPAF@res?5?$CB?$DN?5v?$AA@ 005272bc     d3d8d:math.obj
 0003:000561e8       ??_C@_0L@LGJGHFGO@invmag?5?$DO?50?$AA@ 005272c8     d3d8d:math.obj
 0003:000561f8       ??_C@_0DH@MAAACIOP@Log?5?9?5fast?5log?5doesn?8t?5handle?5ze@ 005272d8     d3d8d:floatmath.obj
 0003:0005623c       ??_C@_0P@NIMHMNMK@startAddr?5?$CB?$DN?50?$AA@ 0052731c     d3d8d:mpdac.obj
 0003:00056250       ?g_PerfCounter@D3D@@3QBUPERFCOUNTER@1@B 00527330     d3d8d:dxgcreate.obj
 0003:0005627c       ??_C@_0CJ@EFFBKMKO@Direct3D?5non?9contiguous?5memory?5a@ 0052735c     d3d8d:dxgcreate.obj
 0003:000562b0       ??_C@_0CF@KDLLBAOG@Direct3D?5contiguous?5memory?5alloc@ 00527390     d3d8d:dxgcreate.obj
 0003:000562dc       ??_C@_0BN@HADIKKBF@?$CISwPut?9HwGet?$CJ?1PushBufferSize?$AA@ 005273bc     d3d8d:dxgcreate.obj
 0003:00056300       ?g_InitialTextureStates@D3D@@3QBEB 005273e0     d3d8d:dxgcreate.obj
 0003:00056328       ?g_InitialRenderStates@D3D@@3QBKB 00527408     d3d8d:dxgcreate.obj
 0003:00056534       ??_C@_0DI@IJONGKON@No?5point?5in?5more?5than?52?5back?5buf@ 00527614     d3d8d:dxgcreate.obj
 0003:00056578       ??_C@_0BJ@HOALAPMM@Invalid?5SwapEffect?5value?$AA@ 00527658     d3d8d:dxgcreate.obj
 0003:00056598       ??_C@_0DC@BEEBDCLA@FullScreen_RefreshRateInHz?5must?5@ 00527678     d3d8d:dxgcreate.obj
 0003:000565d4       ??_C@_0CO@FIOOKALM@Invalid?5FullScreen_PresentationI@ 005276b4     d3d8d:dxgcreate.obj
 0003:0005660c       ??_C@_0CH@BIOMEOKC@Improper?5D3DMULTISAMPLE?5scale?5en@ 005276ec     d3d8d:dxgcreate.obj
 0003:00056640       ??_C@_0ED@ICJPKIPJ@Can?8t?5specifcy?5D3DMULTISAMPLE_PR@ 00527720     d3d8d:dxgcreate.obj
 0003:00056690       ??_C@_0CN@NKLHABAB@Invalid?5D3DMULTISAMPLE_PREFILTER@ 00527770     d3d8d:dxgcreate.obj
 0003:000566c8       ??_C@_0DF@IFDFNEAH@InitializeFrameBuffers?5?9?5unable?5@ 005277a8     d3d8d:dxgcreate.obj
 0003:00056708       ??_C@_0DO@GBHMEBGF@InitializeFrameBuffers?5?9?5unable?5@ 005277e8     d3d8d:dxgcreate.obj
 0003:00056754       ??_C@_0DF@FPPEEAGO@?$CIframeSize?5?$CG?5?$CID3D_RENDER_MEMORY_@ 00527834     d3d8d:dxgcreate.obj
 0003:00056794       ??_C@_0DO@FBKEAPEH@DepthStencilSurface?5must?5be?5at?5l@ 00527874     d3d8d:dxgcreate.obj
 0003:000567e0       ??_C@_0EK@DHMLCNBA@Front?9buffer?5surfaces?5must?5be?5at@ 005278c0     d3d8d:dxgcreate.obj
 0003:00056838       ??_C@_0GJ@LDKEPOPL@Unexpected?5mistmatch?5between?5Buf@ 00527918     d3d8d:dxgcreate.obj
 0003:000568b8       ??_C@_0CI@LIKPMBDN@Not?5all?5BufferSurfaces?5have?5same@ 00527998     d3d8d:dxgcreate.obj
 0003:000568e8       ??_C@_0DF@JMKGNFFO@Not?5all?5BufferSurfaces?5have?5same@ 005279c8     d3d8d:dxgcreate.obj
 0003:00056928       ??_C@_0CH@KMIJELMK@Unexpected?5NULL?5BufferSurfaces?5s@ 00527a08     d3d8d:dxgcreate.obj
 0003:00056958       ??_C@_0EB@EPEOAPGO@CDevice?3?3Init?5?9?5unable?5to?5alloca@ 00527a38     d3d8d:dxgcreate.obj
 0003:000569a8       ??_C@_0DC@EOAHPKO@?$CIm_pRenderTarget?5?$DN?$DN?5NULL?$CJ?5?$CG?$CG?5?$CIm_@ 00527a88     d3d8d:dxgcreate.obj
 0003:000569e4       ??_C@_0CL@MELILLMH@?$CB?$CIm_StateFlags?5?$CG?5?$CISTATE_RECORDPU@ 00527ac4     d3d8d:dxgcreate.obj
 0003:00056a18       ?g_DisplayModeCount@D3D@@3KB 00527af8     d3d8d:mpmode.obj
 0003:00056a20       ?g_DisplayModes@D3D@@3QBUDISPLAYMODE@1@B 00527b00     d3d8d:mpmode.obj
 0003:00057488       ??_C@_0CP@CGJJBMOJ@?$CIpMode?9?$DOAvInfo?5?$CG?5AV_STANDARD_MAS@ 00528568     d3d8d:mpmode.obj
 0003:000574c0       ??_C@_06PDGMHEMN@i?5?$CB?$DN?5c?$AA@ 005285a0     d3d8d:mpmode.obj
 0003:000574c8       ??_C@_0CJ@FBDMDGBB@SetVideoMode?5?9?5Unsupported?5displ@ 005285a8     d3d8d:mpmode.obj
 0003:00057500       ??_C@_0EA@CDKPLOPJ@SetVideoMode?5?9?5Current?5system?5do@ 005285e0     d3d8d:mpmode.obj
 0003:00057550       ??_C@_0EN@PEHABGEM@SetVideoMode?5?9?5Current?5AV?5setup?5@ 00528630     d3d8d:mpmode.obj
 0003:000575ac       ??_C@_0CB@PECAFMLE@SetVideoMode?5?9?5Bad?5refresh?5rate?6@ 0052868c     d3d8d:mpmode.obj
 0003:000575d4       ??_C@_0CI@MCLGKKBL@MP?3?5Unhandled?5ServiceMediaPortIn@ 005286b4     d3d8d:mpintr.obj
 0003:00057604       ??_C@_0CB@CDKNFACH@?6The?5probable?5cause?5is?3?6?6?5?5?5?5?$CFs?6@ 005286e4     d3d8d:mpintr.obj
 0003:00057630       ??_C@_0ED@DPFNBPBC@Corrupt?5push?9buffer?5data?4?5?5Bad?5R@ 00528710     d3d8d:mpintr.obj
 0003:00057680       ??_C@_0EG@KCBCKNJF@Bad?5D3DPUSH_SET_BEGIN_END?5value?5@ 00528760     d3d8d:mpintr.obj
 0003:000576d8       ??_C@_0EJ@ONIICFEP@Bad?5D3DPUSH_SET_TRANSFORM_CONSTA@ 005287b8     d3d8d:mpintr.obj
 0003:00057730       ??_C@_0EB@HNBIPLPB@Invalid?5texture?5format?50x?$CFx?4?5?5Wa@ 00528810     d3d8d:mpintr.obj
 0003:00057780       ??_C@_0EE@PHFLOALB@Invalid?5texture?5address?50x?$CF08x?4?5@ 00528860     d3d8d:mpintr.obj
 0003:000577d4       ??_C@_0CK@EGKKHNGG@Stage?5requires?5a?5texture?5but?5non@ 005288b4     d3d8d:mpintr.obj
 0003:00057808       ??_C@_0BL@KFNEKEJA@Need?5a?5color?5in?5this?5stage?$AA@ 005288e8     d3d8d:mpintr.obj
 0003:00057828       ??_C@_0EP@GEKCJDGD@Can?8t?5have?5Color?5OCW?5combiner?5an@ 00528908     d3d8d:mpintr.obj
 0003:00057888       ??_C@_0DI@NNFGOGHC@No?5wrap?5or?5mirror?5allowed?5if?5tex@ 00528968     d3d8d:mpintr.obj
 0003:000578cc       ??_C@_0DE@NLGLKCIJ@No?5color?9key?5support?5for?5compres@ 005289ac     d3d8d:mpintr.obj
 0003:0005790c       ??_C@_0CO@GBKFKAHC@No?5anisotropic?5support?5for?5convo@ 005289ec     d3d8d:mpintr.obj
 0003:00057944       ??_C@_0DN@EOBFGIJM@Can?8t?5use?5ImageFieldEnable?5unles@ 00528a24     d3d8d:mpintr.obj
 0003:00057990       ??_C@_0DL@OMJKANGA@Can?8t?5use?5ImageFieldEnable?5with?5@ 00528a70     d3d8d:mpintr.obj
 0003:000579d8       ??_C@_0CB@KCNJOHLJ@Invalid?5height?5with?5field?5enable@ 00528ab8     d3d8d:mpintr.obj
 0003:00057a00       ??_C@_0CH@CGFBMNBL@No?5anisotropic?5support?5for?53D?5te@ 00528ae0     d3d8d:mpintr.obj
 0003:00057a30       ??_C@_0FA@GAFCMIHF@Combination?5of?5signed?5SetBlendEq@ 00528b10     d3d8d:mpintr.obj
 0003:00057a90       ??_C@_07MMCOAMKA@0x?$CF08x?5?$AA@ 00528b70     d3d8d:mpintr.obj
 0003:00057a9c       ??_C@_09EAIOGDPB@?60x?$CF08x?3?5?$AA@ 00528b7c     d3d8d:mpintr.obj
 0003:00057aa8       ??_C@_0BN@JGLFJKLG@MP?3?5Graphics?5Hardware?5Error?6?$AA@ 00528b88     d3d8d:mpintr.obj
 0003:00057ad0       ??_C@_0HP@LBNICHEH@Because?5single?9stepping?5is?5not?5e@ 00528bb0     d3d8d:mpintr.obj
 0003:00057b68       ??_C@_0LF@NDNHONNP@The?5graphics?5hardware?5has?5detect@ 00528c48     d3d8d:mpintr.obj
 0003:00057c48       ??_C@_0ED@CEHICPLJ@?5?5?5Type?3?5?$CFi?6?5Source?3?5?$CF08x?6?5?5Clas@ 00528d28     d3d8d:mpintr.obj
 0003:00057c98       ??_C@_0P@GGCIBDIE@SHADOW?3?5?5?$CF08x?6?$AA@ 00528d78     d3d8d:mpintr.obj
 0003:00057cac       ??_C@_0P@BDNDNNNM@NSOURCE?3?5?$CF08x?6?$AA@ 00528d8c     d3d8d:mpintr.obj
 0003:00057cc0       ??_C@_0P@FFIEEPAB@INTR?3?5?5?5?5?$CF08x?6?$AA@ 00528da0     d3d8d:mpintr.obj
 0003:00057cd4       ??_C@_0CN@GGDFDHHA@CACHE1_GET?3?5?$CF08x?5?$CI0x?$CF08x?$CJ?5?5CACHE@ 00528db4     d3d8d:mpintr.obj
 0003:00057d0c       ??_C@_0BO@EMPKPNBM@DMA_PUT?3?5?$CF08x?5?5DMA_GET?3?5?$CF08x?6?$AA@ 00528dec     d3d8d:mpintr.obj
 0003:00057d30       ??_C@_0EA@KEOGMPLI@MethodAndData?3?50x?$CF08lx?6Parameter@ 00528e10     d3d8d:mpintr.obj
 0003:00057d80       ??_C@_0PN@EPFDPOPO@?6Single?9stepping?5is?5enabled?0?5so?5@ 00528e60     d3d8d:mpintr.obj
 0003:00057eb0       ??_C@_0MM@KCINPEDH@?8D3D__SingleStepPusher?8?5set?5to?51@ 00528f90     d3d8d:mpintr.obj
 0003:00057fa8       ??_C@_0LP@BBKOMOJM@?6Because?5single?9stepping?5is?5not?5@ 00529088     d3d8d:mpintr.obj
 0003:00058090       ??_C@_0CB@DGLIDICN@The?5error?5reported?5is?3?5?6?6?5?5?5?5?$CFs?6@ 00529170     d3d8d:mpintr.obj
 0003:000580b8       ??_C@_0FN@HLABLJCC@?6Graphics?5Hardware?5Error?6?9?9?9?9?9?9?9@ 00529198     d3d8d:mpintr.obj
 0003:00058128       ??_C@_0CC@HCDKFHLJ@?6Graphics?5Hardware?5Error?5?$CFd?3?5?$CFs?6@ 00529208     d3d8d:mpintr.obj
 0003:00058150       ??_C@_0BK@IKKDHPDO@Unhandled?5software?5method?$AA@ 00529230     d3d8d:mpintr.obj
 0003:00058170       ??_C@_0BL@EACAFMHF@Push?9buffer?5illegal?5method?$AA@ 00529250     d3d8d:mpintr.obj
 0003:00058190       ??_C@_0BI@HIBFIELI@Push?9buffer?5parse?5error?$AA@ 00529270     d3d8d:mpintr.obj
 0003:000581ac       ??_C@_0BO@HCJOOAFD@Graphics?5texture?5B?5protection?$AA@ 0052928c     d3d8d:mpintr.obj
 0003:000581d0       ??_C@_0BO@MPFEIMJN@Graphics?5texture?5A?5protection?$AA@ 005292b0     d3d8d:mpintr.obj
 0003:000581f4       ??_C@_0BO@MJDBDGKH@Graphics?5FD?5invalid?5operation?$AA@ 005292d4     d3d8d:mpintr.obj
 0003:00058218       ??_C@_0BL@HNGKAJM@Graphics?5invalid?5operation?$AA@ 005292f8     d3d8d:mpintr.obj
 0003:00058238       ??_C@_0BM@CFBKLINI@Graphics?5index?5inline?5reuse?$AA@ 00529318     d3d8d:mpintr.obj
 0003:0005825c       ??_C@_0BP@PPNPMMBG@Graphics?5DMA?5vertex?5protection?$AA@ 0052933c     d3d8d:mpintr.obj
 0003:00058284       ??_C@_0BN@CCFDEHEM@Graphics?5buffer?5notification?$AA@ 00529364     d3d8d:mpintr.obj
 0003:000582a8       ??_C@_0BG@IDDKIMMB@Graphics?5method?5count?$AA@ 00529388     d3d8d:mpintr.obj
 0003:000582c4       ??_C@_0BH@MPMIEPNC@Graphics?5notify?5in?5use?$AA@ 005293a4     d3d8d:mpintr.obj
 0003:000582e0       ??_C@_0BH@NNJACPAP@Graphics?5double?5notify?$AA@ 005293c0     d3d8d:mpintr.obj
 0003:000582fc       ??_C@_0BO@MOPDBHOC@Graphics?5object?5state?5invalid?$AA@ 005293dc     d3d8d:mpintr.obj
 0003:00058320       ??_C@_0BJ@PAPGFPHL@Graphics?5patch?5exception?$AA@ 00529400     d3d8d:mpintr.obj
 0003:00058340       ??_C@_0BK@HCCMNHIM@Graphics?5format?5exception?$AA@ 00529420     d3d8d:mpintr.obj
 0003:00058360       ??_C@_0BO@JHEFEJKM@Graphics?5dma?5write?5protection?$AA@ 00529440     d3d8d:mpintr.obj
 0003:00058384       ??_C@_0BN@MNPOCFBN@Graphics?5dma?5read?5protection?$AA@ 00529464     d3d8d:mpintr.obj
 0003:000583a8       ??_C@_0BI@EHPMANFA@Graphics?5illegal?5method?$AA@ 00529488     d3d8d:mpintr.obj
 0003:000583c4       ??_C@_0BL@BDEGAGFE@Graphics?5zeta?5buffer?5limit?$AA@ 005294a4     d3d8d:mpintr.obj
 0003:000583e4       ??_C@_0BM@JENEDKHC@Graphics?5color?5buffer?5limit?$AA@ 005294c4     d3d8d:mpintr.obj
 0003:00058408       ??_C@_0BJ@JNMFPHJH@Graphics?5range?5exception?$AA@ 005294e8     d3d8d:mpintr.obj
 0003:00058428       ??_C@_0BM@POECPNIH@Graphics?5surface?5protection?$AA@ 00529508     d3d8d:mpintr.obj
 0003:0005844c       ??_C@_0BG@IDMHOBIF@Graphics?5invalid?5data?$AA@ 0052952c     d3d8d:mpintr.obj
 0003:00058468       ??_C@_0CK@JNMJOEHC@?$CBREG_RD32?$CIRegisterBase?0?5NV_PGRAP@ 00529548     d3d8d:mpintr.obj
 0003:0005849c       ??_C@_0CM@DJFEJLDJ@g_Device?4m_PusherPendingFixupInt@ 0052957c     d3d8d:mpintr.obj
 0003:000584d0       ??_C@_0CC@HJOGBBLD@?$CBm_VBlankFlips?$FLflipIndex?$FN?4Pendin@ 005295b0     d3d8d:mpintr.obj
 0003:000584f8       ??_C@_0L@PPJDFNOF@Reset?5FIFO?$AA@ 005295d8     d3d8d:mpintr.obj
 0003:00058508       ??_C@_0CO@FKIHLCLE@MP?3?5Graphics?5DMA?5TLB?5not?5present@ 005295e8     d3d8d:mpintr.obj
 0003:00058540       ??_C@_0CO@FIMBAMON@MP?3?5Graphics?5DMA?5TLB?5not?5present@ 00529620     d3d8d:mpintr.obj
 0003:00058578       ??_C@_0CK@NBGNDIBF@MP?3?5Software?5assisted?5buffer?5not@ 00529658     d3d8d:mpintr.obj
 0003:000585ac       ??_C@_0BM@HOKFAJKF@MP?3?5Missing?5hardware?5object?$AA@ 0052968c     d3d8d:mpintr.obj
 0003:000585d0       ??_C@_0CA@NMJEPLNM@Graphics?5engine?5software?5method?$AA@ 005296b0     d3d8d:mpintr.obj
 0003:000585f8       ??_C@_0CB@JNDOIEIC@MP?3?5Invalid?5DMA?5pusher?5PTE?5fetch@ 005296d8     d3d8d:mpintr.obj
 0003:00058620       ??_C@_0BL@BMHLLGON@MP?3?5Access?5to?5free?5channel?$AA@ 00529700     d3d8d:mpintr.obj
 0003:00058640       ??_C@_0BE@NOLGBBC@MP?3?5FIFO?5hash?5error?$AA@ 00529720     d3d8d:mpintr.obj
 0003:00058658       ??_C@_0CA@LMGAEPAC@MP?3?5DMA?5acquire?5timeout?5pending?$AA@ 00529738     d3d8d:mpintr.obj
 0003:00058680       ??_C@_0BK@EGPDMGKC@MP?3?5DMA?5semaphore?5pending?$AA@ 00529760     d3d8d:mpintr.obj
 0003:000586a0       ??_C@_0BI@GHIBJHBB@MP?3?5RUNOUT?5NOT?5HANDLED?6?$AA@ 00529780     d3d8d:mpintr.obj
 0003:000586c0       ??_C@_0FO@MCBIEHCF@REG_RD_DRF?$CIregbase?0?5_PFIFO?0?5_DEB@ 005297a0     d3d8d:mpintr.obj
 0003:0005873c       ??_C@_0DH@KLMMHEPE@blocks?5?$DM?$DN?5?$CIINSTANCE_MEM_MAXSIZE?5@ 0052981c     d3d8d:mpcore.obj
 0003:00058780       ??_C@_0CP@MGNCHOMF@MP?3?5Failed?5to?5display?5clock?5spee@ 00529860     d3d8d:mpcore.obj
 0003:000587b8       ??_C@_0DH@FAIGFMBF@Crystal?$DN?$CFs?5?5FSB?$DN?$CFd?5?5CPU?$DN?$CFd?5?5NVCL@ 00529898     d3d8d:mpcore.obj
 0003:000587fc       ??_C@_04NHOAGHMH@13?45?$AA@ 005298dc     d3d8d:mpcore.obj
 0003:00058804       ??_C@_04MLBDMEDG@16?46?$AA@ 005298e4     d3d8d:mpcore.obj
 0003:00058810       ??_C@_0FC@DBGDGPOC@AssertContiguousOrPhysical?5?9?5the@ 005298f0     d3d8d:mpcore.obj
 0003:00058874       ??_C@_0CJ@HMAEKDFN@Invalid?5class?5specified?5for?5DMA?5@ 00529954     d3d8d:mpcore.obj
 0003:000588a8       ??_C@_0FL@LNDFGBCG@?$CIAddressSpace?5?$DN?$DN?5ADDR_FBMEM?5?$HM?$HM?5A@ 00529988     d3d8d:mpcore.obj
 0003:00058918       ??_C@_0CJ@NFNOHFMH@MP?3?5CreateGrObject?5invalid?5class@ 005299f8     d3d8d:mpcore.obj
 0003:0005894c       ??_C@_0DG@NHMGFHJP@m_HalInfo?4GrCurrentObjects3d?$FLm_H@ 00529a2c     d3d8d:mpcore.obj
 0003:0005898c       ??_C@_0BH@COPOCECB@MP?3?5LoadEngines?5failed?$AA@ 00529a6c     d3d8d:mpcore.obj
 0003:000589a8       ??_C@_0BH@PPBBGOHK@MP?3?5InitEngines?5failed?$AA@ 00529a88     d3d8d:mpcore.obj
 0003:000589c4       ??_C@_0CA@NCIPKBJI@MP?3?5Unable?5to?5connect?5interrupt?$AA@ 00529aa4     d3d8d:mpcore.obj
 0003:000589ec       ??_C@_0BM@CHKPIKFG@MP?3?5Unable?5to?5get?5chip?5info?$AA@ 00529acc     d3d8d:mpcore.obj
 0003:00058a10       ??_C@_0BP@NOKAHNPE@MP?3?5Failed?5to?5map?5NV?5registers?$AA@ 00529af0     d3d8d:mpcore.obj
 0003:00058a38       ??_C@_0CH@GIEOEJKA@?$CB?$CIOffset?5?$CG?50x3fff?$CJ?5?$CG?$CG?5?$CB?$CISize?5?$CG?50@ 00529b18     d3d8d:mpcore.obj
 0003:00058a74       ??_C@_0BJ@CJNEFPMK@MinFilter?5?$DO?5D3DTEXF_NONE?$AA@ 00529b54     d3d8d:lazy.obj
 0003:00058a94       ??_C@_0DP@BBKHNMJN@?$CIMinFilter?5?$DM?$DN?5D3DTEXF_LINEAR?$CJ?5?$CG?$CG@ 00529b74     d3d8d:lazy.obj
 0003:00058ae0       ??_C@_0DK@MDNNBFNO@D3DRS_POINTSIZE_MIN?5must?5be?5less@ 00529bc0     d3d8d:lazy.obj
 0003:00058b28       ??_C@_0BK@KMFNJPJB@LazySetShaderStageProgram?$AA@ 00529c08     d3d8d:lazy.obj
 0003:00058b48       ??_C@_0BD@KLCDJBHL@maxAnisotropy?5?$DM?$DN?54?$AA@ 00529c28     d3d8d:lazy.obj
 0003:00058b60       ??_C@_0BM@DNMHBHLB@fogTableMode?5?$DN?$DN?5D3DFOG_EXP2?$AA@ 00529c40     d3d8d:lazy.obj
 0003:00058b84       ??_C@_0CC@MIJOFPOL@Unhandled?5texture?5transform?5type@ 00529c64     d3d8d:lazy.obj
 0003:00058bac       ??_C@_0CO@HCFPGJJH@D3D__RenderState?$FLD3DRS_TWOSIDEDL@ 00529c8c     d3d8d:lazy.obj
 0003:00058be4       ??_C@_0BF@HJBLHIPL@pLight?9?$DOSlot?5?$DN?$DN?5slot?$AA@ 00529cc4     d3d8d:lazy.obj
 0003:00058c00       ??_C@_0JB@DKMNGHHI@Inline?5vertices?5of?5size?51?5DWORD?5@ 00529ce0     d3d8d:lazy.obj
 0003:00058cb0       ??_C@_0BD@IDCLIDNK@attributeCount?5?$DO?50?$AA@ 00529d90     d3d8d:lazy.obj
 0003:00058cc8       ??_C@_0L@GABPGKOF@bytes?5?$CB?$DN?50?$AA@ 00529da8     d3d8d:lazy.obj
 0003:00058cd8       ??_C@_03MDBMCIBA@arl?$AA@  00529db8     d3d8d:rdi.obj
 0003:00058cdc       ??_C@_03PCCDGNNG@sge?$AA@  00529dbc     d3d8d:rdi.obj
 0003:00058ce0       ??_C@_03KNKPKBCH@slt?$AA@  00529dc0     d3d8d:rdi.obj
 0003:00058ce4       ??_C@_03LJAEFNNE@max?$AA@  00529dc4     d3d8d:rdi.obj
 0003:00058ce8       ??_C@_03KLIPLJLL@min?$AA@  00529dc8     d3d8d:rdi.obj
 0003:00058cec       ??_C@_03HHBLCKEM@dst?$AA@  00529dcc     d3d8d:rdi.obj
 0003:00058cf0       ??_C@_03IFCENLBA@dp4?$AA@  00529dd0     d3d8d:rdi.obj
 0003:00058cf4       ??_C@_03JDCKMJEI@dph?$AA@  00529dd4     d3d8d:rdi.obj
 0003:00058cf8       ??_C@_03MKGFENNH@dp3?$AA@  00529dd8     d3d8d:rdi.obj
 0003:00058cfc       ??_C@_03FPHDAAIJ@mad?$AA@  00529ddc     d3d8d:rdi.obj
 0003:00058d00       ??_C@_03BDGOHNNK@add?$AA@  00529de0     d3d8d:rdi.obj
 0003:00058d04       ??_C@_03IMIFIBCN@mul?$AA@  00529de4     d3d8d:rdi.obj
 0003:00058d08       ??_C@_03GKGDKGJI@?$DP?$DPf?$AA@ 00529de8     d3d8d:rdi.obj
 0003:00058d0c       ??_C@_03EBEOPFFL@?$DP?$DPe?$AA@ 00529dec     d3d8d:rdi.obj
 0003:00058d10       ??_C@_03FIFFMEBK@?$DP?$DPd?$AA@ 00529df0     d3d8d:rdi.obj
 0003:00058d14       ??_C@_03BHBEFCNN@?$DP?$DPc?$AA@ 00529df4     d3d8d:rdi.obj
 0003:00058d18       ??_C@_03OAPGDJM@?$DP?$DPb?$AA@ 00529df8     d3d8d:rdi.obj
 0003:00058d1c       ??_C@_03CFCCDAFP@?$DP?$DPa?$AA@ 00529dfc     d3d8d:rdi.obj
 0003:00058d20       ??_C@_03FHEAOHAD@?$DP?$DP9?$AA@ 00529e00     d3d8d:rdi.obj
 0003:00058d24       ??_C@_03EOFLNGEC@?$DP?$DP8?$AA@ 00529e04     d3d8d:rdi.obj
 0003:00058d28       ??_C@_03KDBOCEAF@lit?$AA@  00529e08     d3d8d:rdi.obj
 0003:00058d2c       ??_C@_03MGHMBJCF@log?$AA@  00529e0c     d3d8d:rdi.obj
 0003:00058d30       ??_C@_03KHJOGHMM@exp?$AA@  00529e10     d3d8d:rdi.obj
 0003:00058d34       ??_C@_03HPBONGEK@rsq?$AA@  00529e14     d3d8d:rdi.obj
 0003:00058d38       ??_C@_03BLMMAFOJ@rcc?$AA@  00529e18     d3d8d:rdi.obj
 0003:00058d3c       ??_C@_03HKCDEEHL@rcp?$AA@  00529e1c     d3d8d:rdi.obj
 0003:00058d40       ??_C@_03CNBJFNFA@mov?$AA@  00529e20     d3d8d:rdi.obj
 0003:00058d44       ??_C@_03GJPGFFDI@nop?$AA@  00529e24     d3d8d:rdi.obj
 0003:00058d84       ??_C@_07GCIIAIGF@?$CFli?4?$CFs?5?$AA@ 00529e64     d3d8d:rdi.obj
 0003:00058d90       ??_C@_05KKCIMGE@error?$AA@ 00529e70     d3d8d:rdi.obj
 0003:00058d98       ??_C@_04GHFHNDFH@?4xyz?$AA@ 00529e78     d3d8d:rdi.obj
 0003:00058da0       ??_C@_04NCPJKNBK@?4xyw?$AA@ 00529e80     d3d8d:rdi.obj
 0003:00058da8       ??_C@_03DKEJADLJ@?4xy?$AA@ 00529e88     d3d8d:rdi.obj
 0003:00058dac       ??_C@_04NALPBDED@?4xzw?$AA@ 00529e8c     d3d8d:rdi.obj
 0003:00058db4       ??_C@_03BBGEFAHK@?4xz?$AA@ 00529e94     d3d8d:rdi.obj
 0003:00058db8       ??_C@_03KEMKCODH@?4xw?$AA@ 00529e98     d3d8d:rdi.obj
 0003:00058dbc       ??_C@_02NFILLOPJ@?4x?$AA@  00529e9c     d3d8d:rdi.obj
 0003:00058dc0       ??_C@_04GIADHECG@?4yzw?$AA@ 00529ea0     d3d8d:rdi.obj
 0003:00058dc8       ??_C@_03BAKGDKEN@?4yz?$AA@ 00529ea8     d3d8d:rdi.obj
 0003:00058dcc       ??_C@_03KFAIEEAA@?4yw?$AA@ 00529eac     d3d8d:rdi.obj
 0003:00058dd0       ??_C@_02MMJAIPLI@?4y?$AA@  00529eb0     d3d8d:rdi.obj
 0003:00058dd4       ??_C@_03KHEOPKFJ@?4zw?$AA@ 00529eb4     d3d8d:rdi.obj
 0003:00058dd8       ??_C@_02OHLNNMHL@?4z?$AA@  00529eb8     d3d8d:rdi.obj
 0003:00058ddc       ??_C@_02FCBDKCDG@?4w?$AA@  00529ebc     d3d8d:rdi.obj
 0003:00058de0       ??_C@_05IBPNLFHH@?4null?$AA@ 00529ec0     d3d8d:rdi.obj
 0003:00058de8       ??_C@_01OGPIMHDM@?$DP?$AA@ 00529ec8     d3d8d:rdi.obj
 0003:00058dec       ??_C@_03NIAIBAHI@?$DPo2?$AA@ 00529ecc     d3d8d:rdi.obj
 0003:00058df0       ??_C@_03PDCFEDLL@?$DPo1?$AA@ 00529ed0     d3d8d:rdi.obj
 0003:00058df4       ??_C@_07NNELAGMK@c?$FL?$CFd?$FN?$CFs?$AA@ 00529ed4     d3d8d:rdi.obj
 0003:00058e00       ??_C@_03OOAAEEIB@?4?$CFc?$AA@ 00529ee0     d3d8d:rdi.obj
 0003:00058e04       ??_C@_09JIOCOLGH@?4?$CFc?$CFc?$CFc?$CFc?$AA@ 00529ee4     d3d8d:rdi.obj
 0003:00058e18       ??_C@_02DPKJAMEF@?$CFd?$AA@ 00529ef8     d3d8d:rdi.obj
 0003:00058e1c       ??_C@_04KBDJOJNB@?$FL?$CFd?$FN?$AA@ 00529efc     d3d8d:rdi.obj
 0003:00058e24       ??_C@_05EAMLCGKJ@a0?4x?$CL?$AA@ 00529f04     d3d8d:rdi.obj
 0003:00058e2c       ??_C@_02HAOIJKIC@?$CFc?$AA@ 00529f0c     d3d8d:rdi.obj
 0003:00058e38       ??_C@_01JOAMLHOP@?9?$AA@   00529f18     d3d8d:rdi.obj
 0003:00058e3c       ??_C@_06HNFCNFHD@?$DL?5?$CFs?5?6?$AA@ 00529f1c     d3d8d:rdi.obj
 0003:00058e44       ??_C@_07FACBJMFL@?$CK?5eos?5?$CK?$AA@ 00529f24     d3d8d:rdi.obj
 0003:00058e50       ??_C@_05CDJMJPEC@?6?5?5?5?5?$AA@ 00529f30     d3d8d:rdi.obj
 0003:00058e58       ??_C@_01CELHOKLL@?$HN?$AA@ 00529f38     d3d8d:rdi.obj
 0003:00058e5c       ??_C@_05IPCGJMII@r?$CFd?$CFs?$AA@ 00529f3c     d3d8d:rdi.obj
 0003:00058e64       ??_C@_02KEGNLNML@?0?5?$AA@ 00529f44     d3d8d:rdi.obj
 0003:00058e68       ??_C@_04LIJBDGKK@a0?4x?$AA@ 00529f48     d3d8d:rdi.obj
 0003:00058e70       ??_C@_01HCONENDN@?$HL?$AA@ 00529f50     d3d8d:rdi.obj
 0003:00058e74       ??_C@_03IKGEINEE@?$CFs?5?$AA@ 00529f54     d3d8d:rdi.obj
 0003:00058e78       ??_C@_0CB@PDNGEFEK@SizeOfData?5must?5be?5multiple?5of?54@ 00529f58     d3d8d:rdi.obj
 0003:00058ea0       ??_C@_0CC@PLBKGEKH@?5?5mask?3?50x?$CF08lx?5?5unused?3?50x?$CF08lx@ 00529f80     d3d8d:rdi.obj
 0003:00058ec8       ??_C@_07DNLILAEP@?5?5t?$CFd?3?5?$AA@ 00529fa8     d3d8d:rdi.obj
 0003:00058ed4       ??_C@_0BD@DJGJCJOI@?5?5ptsize?3?50x?$CF08lx?6?$AA@ 00529fb4     d3d8d:rdi.obj
 0003:00058eec       ??_C@_08JBCBNKKO@0x?$CF08lx?6?$AA@ 00529fcc     d3d8d:rdi.obj
 0003:00058ef8       ??_C@_07HDFAPMNJ@?5?5fog?3?5?$AA@ 00529fd8     d3d8d:rdi.obj
 0003:00058f04       ??_C@_0CC@BJOMKCID@?5?5bdiff?3?50x?$CF08lx?5?5bspec?3?50x?$CF08lx@ 00529fe4     d3d8d:rdi.obj
 0003:00058f2c       ??_C@_0CA@LIANPMKC@?5?5diff?3?50x?$CF08lx?5?5spec?3?50x?$CF08lx?6?$AA@ 0052a00c     d3d8d:rdi.obj
 0003:00058f54       ??_C@_0CM@DGIHOJFI@?5?5xyzw?3?50x?$CF08lx?0?50x?$CF08lx?0?50x?$CF08l@ 0052a034     d3d8d:rdi.obj
 0003:00058f88       ??_C@_08GICJONEO@?5?5xyzw?3?5?$AA@ 0052a068     d3d8d:rdi.obj
 0003:00058f94       ??_C@_03PMGGPEJJ@?$CFd?6?$AA@ 0052a074     d3d8d:rdi.obj
 0003:00058f98       ??_C@_06BGAHNFGK@?$CF?53d?3?5?$AA@ 0052a078     d3d8d:rdi.obj
 0003:00058fa0       ??_C@_06BFNBNHPB@?$CF03d?3?5?$AA@ 0052a080     d3d8d:rdi.obj
 0003:00058fa8       ??_C@_02MNMNLDAI@?$CJ?6?$AA@ 0052a088     d3d8d:rdi.obj
 0003:00058fac       ??_C@_07MHOPGIIE@?6?5?5?5?5?5?$CI?$AA@ 0052a08c     d3d8d:rdi.obj
 0003:00058fb8       ??_C@_08POEKBGIG@0x?$CF08lx?5?$AA@ 0052a098     d3d8d:rdi.obj
 0003:00058fc4       ??_C@_06CILBPOEB@?$CF02d?3?5?$AA@ 0052a0a4     d3d8d:rdi.obj
 0003:00058fcc       ??_C@_08KELJJJDE@?50x?$CF08lx?$AA@ 0052a0ac     d3d8d:rdi.obj
 0003:00058fd8       ??_C@_0L@BDMJMANI@?5?5unknown?3?$AA@ 0052a0b8     d3d8d:rdi.obj
 0003:00058fe8       ??_C@_0BK@OLJFMPJP@?5?5z?3?50x?$CF08lx?5?5w?3?50x?$CF08lx?6?$AA@ 0052a0c8     d3d8d:rdi.obj
 0003:00059008       ??_C@_07LGLFBKHC@CAS?5?$CFd?6?$AA@ 0052a0e8     d3d8d:rdi.obj
 0003:00059044       ??_C@_0BA@FGEDNAFM@?$CISize?5?$CG?53?$CJ?5?$DN?$DN?50?$AA@ 0052a124     d3d8d:recorder.obj
 0003:00059058       ??_C@_0BM@CENHKOMM@KickoffFence?5?$DO?$DN?5ModifyFence?$AA@ 0052a138     d3d8d:recorder.obj
 0003:0005907c       ??_C@_0DA@CJFIDPIN@?6?$DO?$DO?5Method?3?50x?$CFlx?5?5Got?3?50x?$CFlx?5?5E@ 0052a15c     d3d8d:recorder.obj
 0003:000590b8       ??_C@_0CG@CMMFNMJM@encodedMethod?5?$DM?$DN?5sizeof?$CIg_ParseS@ 0052a198     d3d8d:recorder.obj
 0003:000590e8       ??_C@_0CB@KPGGLOHD@?$CB?$CI?$CKp?5?$CG?5D3DPUSH_NOINCREMENT_FLAG?$CJ@ 0052a1c8     d3d8d:recorder.obj
 0003:00059110       ??_C@_0DH@GADGJMOM@GPU?5references?5an?5unmapped?5page?4@ 0052a1f0     d3d8d:recorder.obj
 0003:00059154       ??_C@_0BH@GPPJKEBH@?$CI?$CI?$CIDWORD?$CJ?5p?$CJ?5?$CG?57?$CJ?5?$DN?$DN?50?$AA@ 0052a234     d3d8d:recorder.obj
 0003:00059170       ??_C@_0CG@DNKNBKEL@Unexpected?5floating?5point?5precis@ 0052a250     d3d8d:recorder.obj
 0003:000591a0       ??_C@_0BA@FOKPLGKO@dwordCount?5?$CB?$DN?50?$AA@ 0052a280     d3d8d:recorder.obj
 0003:000591b4       ??_C@_03JNGMJJJL@?4pb?$AA@ 0052a294     d3d8d:recorder.obj
 0003:000591b8       ??_C@_01KICIPPFI@?2?$AA@   0052a298     d3d8d:recorder.obj
 0003:000591c0       ??_C@_0FP@EMEFIAOC@D3DPERF_StartPushBufferCapture?3?5@ 0052a2a0     d3d8d:recorder.obj
 0003:00059234       ??_C@_0DE@BANDAMNJ@D3DPERF_StartPushBufferCapture?3?5@ 0052a314     d3d8d:recorder.obj
 0003:00059274       ??_C@_0BL@MBGEBLDD@?6Done?5push?9buffer?5capture?6?$AA@ 0052a354     d3d8d:recorder.obj
 0003:00059294       ??_C@_0DF@BLPGBBMN@D3DPERF_StopPushBufferCapture?3?5C@ 0052a374     d3d8d:recorder.obj
 0003:000592d4       ??_C@_0DJ@BNIIHIFL@D3DPERF_StopPushBufferCapture?3?5D@ 0052a3b4     d3d8d:recorder.obj
 0003:00059318       ??_C@_0DM@GIIDAPD@D3DPERF_StopPushBufferCapture?3?5O@ 0052a3f8     d3d8d:recorder.obj
 0003:00059360       ??_C@_0DC@GHHLIFGH@D3DPERF_StopPushBufferCapture?3?5W@ 0052a440     d3d8d:recorder.obj
 0003:0005939c       ??_C@_0BE@IHKFBKFA@Flags?5must?5be?5zero?6?$AA@ 0052a47c     d3d8d:recorder.obj
 0003:000593b4       ??_C@_0CD@LJPOEPAC@Couldn?8t?5find?5Kelvin?5method?50x?$CFl@ 0052a494     d3d8d:recorder.obj
 0003:000593e0       ??_C@_0M@DCLLLGMI@End?5?$DO?5Start?$AA@ 0052a4c0     d3d8d:recorder.obj
 0003:000593f0       ??_C@_0CE@ICKIFDJO@?$CIEnd?5?$DO?$DN?50?$CJ?5?$CG?$CG?5?$CIEnd?5?$DM?$DN?5TOTAL_MEMO@ 0052a4d0     d3d8d:recorder.obj
 0003:0005941c       ??_C@_0CH@KIKNLFEJ@?$CIStart?5?$DO?$DN?50?$CJ?5?$CG?$CG?5?$CIStart?5?$DM?5TOTAL_M@ 0052a4fc     d3d8d:recorder.obj
 0003:0005944c       ??_C@_0DH@DEOMMBO@?$CIstartUntiled?5?$DO?$DN?5startTile?$CJ?5?$CG?$CG?5?$CI@ 0052a52c     d3d8d:recorder.obj
 0003:00059490       ??_C@_0BK@FCNHNHGN@startUntiled?5?$DM?5endUntiled?$AA@ 0052a570     d3d8d:recorder.obj
 0003:000594b0       ??_C@_0CH@DOHAPKGH@MarkPages?3?5Invalid?5end?4?5?5Adjusti@ 0052a590     d3d8d:recorder.obj
 0003:000594e0       ??_C@_0CG@NEKHAIJL@MarkPages?3?5Empty?5range?4?5?5Skippin@ 0052a5c0     d3d8d:recorder.obj
 0003:00059510       ??_C@_0CF@ELFBLFNO@MarkPages?3?5Empty?5size?4?5?5Skipping@ 0052a5f0     d3d8d:recorder.obj
 0003:0005953c       ??_C@_0BO@KHDNMGBC@offset?5?$CL?5size?5?$DM?$DN?5TOTAL_MEMORY?$AA@ 0052a61c     d3d8d:recorder.obj
 0003:00059560       ??_C@_0BF@CCEJCCIL@size?5?$DM?$DN?5TOTAL_MEMORY?$AA@ 0052a640     d3d8d:recorder.obj
 0003:0005957c       ??_C@_0BG@PANFGKGJ@offset?5?$DM?5TOTAL_MEMORY?$AA@ 0052a65c     d3d8d:recorder.obj
 0003:00059598       ??_C@_0BM@LJCIBMPE@m_Fence?5?$DM?$DN?5FLAGSFENCE_FENCE?$AA@ 0052a678     d3d8d:recorder.obj
 0003:000595bc       ??_C@_0BI@DLNNPGI@Unexpected?5CRC?5failure?6?$AA@ 0052a69c     d3d8d:recorder.obj
 0003:000595d8       ??_C@_0FF@EDGAGHJK@attributeSize?5?$DN?$DN?5g_UnitsOfElemen@ 0052a6b8     d3d8d:recorder.obj
 0003:00059640       ??_C@_0BH@ICOMLIIE@minVertex?5?$DM?$DN?5maxVertex?$AA@ 0052a720     d3d8d:recorder.obj
 0003:0005965c       ??_C@_0DJ@IHDCHHNN@Unexpected?5push?9buffer?5encoding?5@ 0052a73c     d3d8d:recorder.obj
 0003:000596a0       ??_C@_09NEMJFDJH@push?5?$CB?$DN?50?$AA@ 0052a780     d3d8d:recorder.obj
 0003:000596ac       ??_C@_0BD@GDJFLNOO@size?5?$DM?$DN?5bufferSize?$AA@ 0052a78c     d3d8d:recorder.obj
 0003:000596c4       ??_C@_0CD@FPPPLKHI@pBuffer?5?$CL?52?5?$DM?$DN?5?$CGbuffer?$FLbufferSiz@ 0052a7a4     d3d8d:recorder.obj
 0003:000596f0       ??_C@_0CD@BMJGAIN@pBuffer?5?$CL?57?5?$DM?$DN?5?$CGbuffer?$FLbufferSiz@ 0052a7d0     d3d8d:recorder.obj
 0003:0005971c       ??_C@_0M@FNCCFNIH@count?5?$DM?$DN?516?$AA@ 0052a7fc     d3d8d:recorder.obj
 0003:0005972c       ??_C@_0CD@GKBCAMCL@pBuffer?5?$CL?51?5?$DM?$DN?5?$CGbuffer?$FLbufferSiz@ 0052a80c     d3d8d:recorder.obj
 0003:00059758       ??_C@_0BP@IEOFFDHF@pBuffer?5?$DM?$DN?5?$CGbuffer?$FLbufferSize?$FN?$AA@ 0052a838     d3d8d:recorder.obj
 0003:00059780       ??_C@_0CD@JBKPEGNA@pBuffer?5?$CL?55?5?$DM?$DN?5?$CGbuffer?$FLbufferSiz@ 0052a860     d3d8d:recorder.obj
 0003:000597ac       ??_C@_09LOCCNJNA@?$CBIsBusy?$CI?$CJ?$AA@ 0052a88c     d3d8d:recorder.obj
 0003:000597b8       ??_C@_0BO@KLBLNLFB@pBuffer?5?$DM?5?$CGbuffer?$FLbufferSize?$FN?$AA@ 0052a898     d3d8d:recorder.obj
 0003:000597dc       ??_C@_0BN@OALEKGAE@Starting?5push?9buffer?5capture?$AA@ 0052a8bc     d3d8d:recorder.obj
 0003:00059800       ??_C@_0P@GBGEEICI@?$CBm_Initialized?$AA@ 0052a8e0     d3d8d:recorder.obj
 0003:00059814       ??_C@_01LFCBOECM@?4?$AA@   0052a8f4     d3d8d:recorder.obj
 0003:00059938       ??_C@_09FBGPICKC@CopyRects?$AA@ 0052aa18     d3d8d:pushres.obj
 0003:00059944       ??_C@_0BC@JNDDCMEE@EndVisibilityTest?$AA@ 0052aa24     d3d8d:pushres.obj
 0003:0005995c       ??_C@_0L@BGIJEDPF@SetPalette?$AA@ 0052aa3c     d3d8d:pushres.obj
 0003:0005996c       ??_C@_0L@BPHKIMHE@SetTexture?$AA@ 0052aa4c     d3d8d:pushres.obj
 0003:0005997c       ??_C@_0BF@MPBJCMNM@SetVertexShaderInput?$AA@ 0052aa5c     d3d8d:pushres.obj
 0003:00059998       ??_C@_0BA@LPDJAFGN@SetRenderTarget?$AA@ 0052aa78     d3d8d:pushres.obj
 0003:000599ac       ??_C@_0DA@PPHGBEMF@flagsAndReturnOffset?5?$CG?5PUSHER_FI@ 0052aa8c     d3d8d:pushres.obj
 0003:000599e8       ??_C@_0EH@JCHLKMMC@FixupPushBuffer?3?5Bad?5RunPushBuff@ 0052aac8     d3d8d:pushres.obj
 0003:00059a40       ??_C@_0O@IAAFFPOB@g_FixupActive?$AA@ 0052ab20     d3d8d:pushres.obj
 0003:00059a50       ??_C@_0CN@BJILCOCF@?$CIisRaw?$CJ?5?$HM?$HM?5?$CIg_FixupCount?5?$DN?$DN?5g_Or@ 0052ab30     d3d8d:pushres.obj
 0003:00059a88       ??_C@_0JJ@KEMMOKCH@The?5fix?9up?5signature?5doesn?8t?5mat@ 0052ab68     d3d8d:pushres.obj
 0003:00059b40       ??_C@_0BH@LAEABJMM@pFixup?5?$DN?$DN?5g_pNextFixup?$AA@ 0052ac20     d3d8d:pushres.obj
 0003:00059b5c       ??_C@_0P@LHFDMALH@?$CBg_FixupActive?$AA@ 0052ac3c     d3d8d:pushres.obj
 0003:00059b70       ??_C@_0CM@KKOHOLAP@Specified?5offset?5is?5larger?5than?5@ 0052ac50     d3d8d:pushres.obj
 0003:00059ba4       ??_C@_0CI@PNPPNAJG@Push?9buffer?5?8Size?8?5not?5a?5dword?5m@ 0052ac84     d3d8d:pushres.obj
 0003:00059bd4       ??_C@_0DC@BMCDJPKB@Zero?5push?9buffer?5?8Size?8?5?$CImaybe?5f@ 0052acb4     d3d8d:pushres.obj
 0003:00059c10       ??_C@_0DH@GDPFLFKD@Fix?9up?5routine?5called?5without?5fi@ 0052acf0     d3d8d:pushres.obj
 0003:00059c58       ??_C@_0EH@NAPDHEDO@NULL?5D3DVERTEXATTRIBUTEFORMAT?5is@ 0052ad38     d3d8d:pushres.obj
 0003:00059cb0       ??_C@_0BA@LADIBKBA@totalCount?5?$DN?$DN?50?$AA@ 0052ad90     d3d8d:pushres.obj
 0003:00059cc8       ??_C@_0GD@ONNILJOM@Requested?5render?5state?5is?5not?5si@ 0052ada8     d3d8d:pushres.obj
 0003:00059d40       ??_C@_0EC@IALPCDLO@D3DPushBuffer_Verify?3?5Unresolved@ 0052ae20     d3d8d:pushres.obj
 0003:00059d90       ??_C@_0EG@HJJNBLEI@D3DPushBuffer_Verify?3?5Unresolved@ 0052ae70     d3d8d:pushres.obj
 0003:00059de8       ??_C@_0EP@JAJFLLAK@D3DPushBuffer_Verify?3?5Unexpected@ 0052aec8     d3d8d:pushres.obj
 0003:00059e48       ??_C@_0EP@CDJKLMGI@D3DPushBuffer_Verify?3?5Unresolved@ 0052af28     d3d8d:pushres.obj
 0003:00059ea8       ??_C@_0BB@KMGJBADK@instruction?5?$CB?$DN?51?$AA@ 0052af88     d3d8d:pushres.obj
 0003:00059ebc       ??_C@_0CB@NKBLPGBO@Invalid?5value?5for?5StampResources@ 0052af9c     d3d8d:pushres.obj
 0003:00059ee4       ??_C@_0CJ@CJLBKIFE@Can?8t?5Reset?5while?5in?5a?5Begin?1End@ 0052afc4     d3d8d:pushres.obj
 0003:00059f18       ??_C@_0DF@LAPNGPBL@BeginFixup?5called?5twice?5with?5no?5@ 0052aff8     d3d8d:pushres.obj
 0003:00059f58       ??_C@_0DG@PLCMNNPL@Fixup?5object?5already?5in?5a?5BeginF@ 0052b038     d3d8d:pushres.obj
 0003:00059f98       ??_C@_0DM@MKNOJFGD@Can?8t?5have?5more?5than?5one?5BeginFi@ 0052b078     d3d8d:pushres.obj
 0003:00059fe0       ??_C@_0BJ@BNHGHAJH@Invalid?5value?5for?5NoWait?$AA@ 0052b0c0     d3d8d:pushres.obj
 0003:0005a000       ??_C@_0BN@NPBMLLDH@End?5without?5a?5matching?5Begin?$AA@ 0052b0e0     d3d8d:pushres.obj
 0003:0005a024       ??_C@_0DB@LNFKILKN@EndFixup?5called?5without?5first?5ca@ 0052b104     d3d8d:pushres.obj
 0003:0005a060       ??_C@_0GE@PFPMKCGH@D3DPUSHBUFFER_RUN_USING_CPU_COPY@ 0052b140     d3d8d:pushres.obj
 0003:0005a0d8       ??_C@_0DM@CFDLIMIG@AssertWriteCombined?5?9?5the?5addres@ 0052b1b8     d3d8d:pushres.obj
 0003:0005a120       ??_C@_0CD@LJIKMBKO@Not?5in?5order?5of?5increasing?5offse@ 0052b200     d3d8d:pushres.obj
 0003:0005a14c       ??_C@_0CP@EINBOIDP@Offset?5in?5?8Fixup?8?5larger?5than?5pu@ 0052b22c     d3d8d:pushres.obj
 0003:0005a184       ??_C@_0CD@GKCNHGNH@Non?9dword?9multiple?5size?5in?5?8Fixu@ 0052b264     d3d8d:pushres.obj
 0003:0005a1b0       ??_C@_0CE@LAHGFNK@Non?9dword?9aligned?5offset?5in?5?8Fix@ 0052b290     d3d8d:pushres.obj
 0003:0005a1dc       ??_C@_0CN@MCIFFBBD@Size?5in?5?8Fixup?8?5larger?5than?5push@ 0052b2bc     d3d8d:pushres.obj
 0003:0005a214       ??_C@_0CA@MCMCNHBE@Can?8t?5have?5empty?5fix?9up?5buffers?$AA@ 0052b2f4     d3d8d:pushres.obj
 0003:0005a23c       ??_C@_0CM@GIEFGCOC@The?5last?5fix?9up?5overflowed?5the?5F@ 0052b31c     d3d8d:pushres.obj
 0003:0005a270       ??_C@_0FF@FANJAFCH@Can?8t?5RunPushBuffer?5with?5a?5Fixup@ 0052b350     d3d8d:pushres.obj
 0003:0005a2d8       ??_C@_0IE@IEOAKGLM@D3DPUSHBUFFER_RUN_USING_CPU_COPY@ 0052b3b8     d3d8d:pushres.obj
 0003:0005a378       ??_C@_0GB@KDEDAJLH@Push?9buffer?5size?5too?5small?5or?5fi@ 0052b458     d3d8d:pushres.obj
 0003:0005a3ec       ??_C@_0CC@CAJCMLPK@Invalid?5value?5for?5RunUsingCpuCop@ 0052b4cc     d3d8d:pushres.obj
 0003:0005a414       ??_C@_0CP@BOICJIPA@Buffer?5allocation?5size?5must?5be?5a@ 0052b4f4     d3d8d:pushres.obj
 0003:0005a44c       ??_C@_0DI@CCMAJOBK@?$CB?$CIpDevice?9?$DOm_StateFlags?5?$CG?5STATE_@ 0052b52c     d3d8d:pushres.obj
 0003:0005a490       ??_C@_0FB@PBFNEDGK@Can?8t?5call?5BeginPushBuffer?5when?5@ 0052b570     d3d8d:pushres.obj
 0003:0005a4f8       ??_C@_0FA@DCFBEAA@Buffer?5size?5?$CIAllocationSize?$CJ?5mus@ 0052b5d8     d3d8d:pushres.obj
 0003:0005a558       ??_C@_0DH@EDJLEGFH@Already?5recording?5a?5push?9buffer?0@ 0052b638     d3d8d:pushres.obj
 0003:0005a59c       ??_C@_0DH@CBFJFJON@Buffer?5pointer?5can?8t?5be?5NULL?5and@ 0052b67c     d3d8d:pushres.obj
 0003:0005a5e0       ??_C@_0JD@BOJHCPEE@?$CIpDevice?9?$DOm_pPushBufferRecordRes@ 0052b6c0     d3d8d:pushres.obj
 0003:0005a690       ??_C@_0EA@GFMIGBDO@Can?8t?5call?5EndPushBuffer?5without@ 0052b770     d3d8d:pushres.obj
 0003:0005a6e0       ??_C@_0EF@NBLMHLHF@GetPushBufferOffset?5can?5only?5be?5@ 0052b7c0     d3d8d:pushres.obj
 0003:0005a738       ??_C@_0FJ@IOGPOGIB@Signature?5mismatch?5?9?5Offset?5or?5p@ 0052b818     d3d8d:pushres.obj
 0003:0005a7a8       ??_C@_0GC@EICFMLGF@Can?8t?5handle?5D3DPUSHBUFFER_RUN_U@ 0052b888     d3d8d:pushres.obj
 0003:0005a820       ??_C@_0CI@ILMNLLEJ@Stream?5count?5can?8t?5be?50?5or?5more?5@ 0052b900     d3d8d:pushres.obj
 0003:0005a850       ??_C@_0CD@KKHDCMKC@No?5z?9buffer?5now?5but?5was?5one?5befo@ 0052b930     d3d8d:pushres.obj
 0003:0005a87c       ??_C@_0BP@CNNLCOK@Z?9buffer?5now?5but?5wasn?8t?5before?$AA@ 0052b95c     d3d8d:pushres.obj
 0003:0005a8a4       ??_C@_0P@KICNECLF@Pitch?5mismatch?$AA@ 0052b984     d3d8d:pushres.obj
 0003:0005a8b8       ??_C@_0CD@FCNMPAJ@New?5texture?5type?5doesn?8t?5match?5o@ 0052b998     d3d8d:pushres.obj
 0003:0005a8e4       ??_C@_0BK@JHIIBCPL@Can?8t?5take?5a?5NULL?5texture?$AA@ 0052b9c4     d3d8d:pushres.obj
 0003:0005a904       ??_C@_0DJ@MHFCBLOM@Offset?5signature?5is?5neither?5a?5NO@ 0052b9e4     d3d8d:pushres.obj
 0003:0005a948       ??_C@_0DJ@EAHBDDG@Can?8t?5do?5a?5SetJump?5when?5D3DPUSHB@ 0052ba28     d3d8d:pushres.obj
 0003:0005a98c       ??_C@_0BC@FMCFJCBF@m_InstMem?5?$CB?$DN?5NULL?$AA@ 0052ba6c     d3d8d:mphal.obj
 0003:0005a9a4       ??_C@_0CN@IGGMMKLM@REG_RD_DRF?$CIregbase?0?5_PFB?0?5_CFG0?0@ 0052ba84     d3d8d:mphal.obj
 0003:0005a9dc       ??_C@_0BG@PPPBDABK@MP?3?5M?5PLL?5not?5locked?6?$AA@ 0052babc     d3d8d:mphal.obj
 0003:0005a9f8       ??_C@_0BD@FLEEGCAC@Setting?5MClk?5to?5?$CFd?$AA@ 0052bad8     d3d8d:mphal.obj
 0003:0005aa10       ??_C@_0BH@NJFAOHIL@MP?3?5NV?5PLL?5not?5locked?6?$AA@ 0052baf0     d3d8d:mphal.obj
 0003:0005aa2c       ??_C@_0BF@MMLCEFE@MP?3?5VPLL?5not?5locked?6?$AA@ 0052bb0c     d3d8d:mphal.obj
 0003:0005aa48       ??_C@_0CA@PNDPOLDD@m_HalInfo?4GrCtxTable?$FLChID?$FN?5?$DN?$DN?50?$AA@ 0052bb28     d3d8d:mphal.obj
 0003:0005aa70       ??_C@_0DD@BHANLCI@INST_RD32?$CIRegisterBase?0?5grCtxTab@ 0052bb50     d3d8d:mphal.obj
 0003:0005aab0       ??_C@_0CG@MHKNMBGB@entry?5?$CK?5sizeof?$CIHW_HASHENTRY?$CJ?5?$DM?50@ 0052bb90     d3d8d:mphal.obj
 0003:0005aae0       ??_C@_0BC@MDGHFKBB@Unexpected?5class?6?$AA@ 0052bbc0     d3d8d:mphal.obj
 0003:0005aaf8       ??_C@_0CO@BOENDAC@m_HalInfo?4GrChID?5?$CB?$DN?5?$CIULONG?$CJm_Hal@ 0052bbd8     d3d8d:mphal.obj
 0003:0005ab30       ??_C@_0FK@LLLGLMOI@offset?5?$CL?54?5?$DN?$DN?5?$CIsizeof?$CIGRCTX3D_NV@ 0052bc10     d3d8d:mphal.obj
 0003:0005aba0       ??_C@_0FG@JOPCGLCF@REG_RD32?$CIRegisterBase?0?5NV_PFB_TS@ 0052bc80     d3d8d:mphal.obj
 0003:0005ac08       ??_C@_0FI@FHIAIKBD@REG_RD32?$CIRegisterBase?0?5NV_PFB_TL@ 0052bce8     d3d8d:mphal.obj
 0003:0005ac78       ??_C@_0FE@JAOOMINB@REG_RD32?$CIRegisterBase?0?5NV_PFB_TI@ 0052bd58     d3d8d:mphal.obj
 0003:0005acdc       ??_C@_0BL@MCMEKHMO@Unexpected?5color?5argument?6?$AA@ 0052bdbc     d3d8d:combiner.obj
 0003:0005ad00       ??_C@_0EE@IMMGKBJA@?$CIstage?5?$DM?53?$CJ?5?$CG?$CG?5?$CID3D__TextureStat@ 0052bde0     d3d8d:combiner.obj
 0003:0005ad58       ??_C@_0EL@CIDPOGPC@D3DTOP_BUMPENVMAP?5requires?5a?5tex@ 0052be38     d3d8d:combiner.obj
 0003:0005adb4       ??_C@_0P@LJPINCNI@Unexpected?5OP?6?$AA@ 0052be94     d3d8d:combiner.obj
 0003:0005adc8       ??_C@_0CH@HOGGLPIK@?$CIusedStages?5?$DO?$DN?51?$CJ?5?$CG?$CG?5?$CIusedStages@ 0052bea8     d3d8d:combiner.obj
 0003:0005adf8       ??_C@_0BG@GKGGGOBL@Illegal?5ALPHAOP?3?5?$CFli?6?$AA@ 0052bed8     d3d8d:combiner.obj
 0003:0005ae18       ??_C@_0HK@NMMKDMNE@Point?5sprites?5are?5enabled?5but?5no@ 0052bef8     d3d8d:combiner.obj
 0003:0005aeac       ?g_VertexTextureStates@D3D@@3QBEB 0052bf8c     d3d8d:block.obj
 0003:0005aeb0       ?g_VertexRenderStates@D3D@@3QBEB 0052bf90     d3d8d:block.obj
 0003:0005aed8       ?g_PixelTextureStates@D3D@@3QBEB 0052bfb8     d3d8d:block.obj
 0003:0005aef8       ?g_PixelRenderStates@D3D@@3QBEB 0052bfd8     d3d8d:block.obj
 0003:0005af20       ??_C@_0DK@HMKJIBKB@Already?5in?5the?5state?5record?5mode@ 0052c000     d3d8d:block.obj
 0003:0005af68       ??_C@_0CK@KMJMPNAA@Can?8t?5use?5state?5blocks?5with?5a?5pu@ 0052c048     d3d8d:block.obj
 0003:0005af9c       ??_C@_0BK@BFGEFKPE@pData?5?$DN?$DN?5pBlock?9?$DOpDataEnd?$AA@ 0052c07c     d3d8d:block.obj
 0003:0005afbc       ??_C@_0CM@MKJNGBLI@pDirty?5?$DN?$DN?5?$CGD3D__StateBlockDirty?$FL@ 0052c09c     d3d8d:block.obj
 0003:0005aff0       ??_C@_0DF@JIKGNMJF@pDirty?5?$DN?$DN?5?$CGD3D__StateBlockDirty?$FL@ 0052c0d0     d3d8d:block.obj
 0003:0005b030       ??_C@_0DB@CFPFPLBD@pDirty?5?$DN?$DN?5?$CGD3D__StateBlockDirty?$FL@ 0052c110     d3d8d:block.obj
 0003:0005b06c       ??_C@_0DB@JDCCMBFE@pDirty?5?$DN?$DN?5?$CGD3D__StateBlockDirty?$FL@ 0052c14c     d3d8d:block.obj
 0003:0005b0a8       ??_C@_0DD@EADJDCKO@pDirty?5?$DN?$DN?5?$CGD3D__StateBlockDirty?$FL@ 0052c188     d3d8d:block.obj
 0003:0005b0e8       ??_C@_0DG@FEEIPBIC@pDirty?5?$DN?$DN?5?$CGD3D__StateBlockDirty?$FL@ 0052c1c8     d3d8d:block.obj
 0003:0005b128       ??_C@_0DF@PLCGIPHI@pDirty?5?$DN?$DN?5?$CGD3D__StateBlockDirty?$FL@ 0052c208     d3d8d:block.obj
 0003:0005b168       ??_C@_0DO@KPKPBIJK@pDirty?5?$DN?$DN?5?$CGD3D__StateBlockDirty?$FL@ 0052c248     d3d8d:block.obj
 0003:0005b1b4       ??_C@_0DN@PFCBHHFK@pDirty?5?$DN?$DN?5?$CGD3D__StateBlockDirty?$FL@ 0052c294     d3d8d:block.obj
 0003:0005b200       ??_C@_0DA@FICDCDGG@pDirty?5?$DN?$DN?5?$CGD3D__StateBlockDirty?$FL@ 0052c2e0     d3d8d:block.obj
 0003:0005b23c       ??_C@_0DA@EAAONEGK@pDirty?5?$DN?$DN?5?$CGD3D__StateBlockDirty?$FL@ 0052c31c     d3d8d:block.obj
 0003:0005b278       ??_C@_0DF@BBBMOFEE@pDirty?5?$DN?$DN?5?$CGD3D__StateBlockDirty?$FL@ 0052c358     d3d8d:block.obj
 0003:0005b2b8       ??_C@_0DE@NKKKGHEC@pDirty?5?$DN?$DN?5?$CGD3D__StateBlockDirty?$FL@ 0052c398     d3d8d:block.obj
 0003:0005b2f8       ??_C@_0CO@ECBIIAPA@Invalid?5state?5block?5object?5?$CIalre@ 0052c3d8     d3d8d:block.obj
 0003:0005b330       ??_C@_0P@BENLGHBI@NULL?5parameter?$AA@ 0052c410     d3d8d:block.obj
 0003:0005b344       ??_C@_0BH@GNKAGGOO@Invalid?5Type?5parameter?$AA@ 0052c424     d3d8d:block.obj
 0003:0005b360       ??_C@_0BL@GCCGNMPA@Type?5?$DN?$DN?5D3DSBT_VERTEXSTATE?$AA@ 0052c440     d3d8d:block.obj
 0003:0005b380       ??_C@_0FC@KHPFBOPM@Cannot?5create?5state?5block?5when?5i@ 0052c460     d3d8d:block.obj
 0003:0005b3e4       ??_C@_0DA@FBFMADDB@Not?5in?5state?5record?5mode?4?5EndSta@ 0052c4c4     d3d8d:block.obj
 0003:0005b420       ??_C@_0CB@FAOCGAFD@Resume?5failed?0?5not?5enough?5memory@ 0052c500     d3d8d:block.obj
 0003:0005b448       ??_C@_0CH@DCFLBNBP@Only?5TRUE?5or?5FALSE?5are?5valid?5arg@ 0052c528     d3d8d:block.obj
 0003:0005ddb0       ?g_WarnAboutCopyRectStateSwizzle@D3D@@3HA 0052ee90     d3d8d:state.obj
 0003:0005ddb4       ?g_WarnedAboutStencil@D3D@@3HA 0052ee94     d3d8d:state.obj
 0003:0005ddb8       ?g_StencilEverEnabled@D3D@@3HA 0052ee98     d3d8d:state.obj
 0003:0005ddc0       ?g_StartPut@@3PCKC         0052eea0     d3d8d:globals.obj
 0003:0005ddc4       _D3D__Parser               0052eea4     d3d8d:globals.obj
 0003:0005ddc8       _D3D__SingleStepPusher     0052eea8     d3d8d:globals.obj
 0003:0005ddd0       ?g_VertexShaderConstants@@3PAY03MA 0052eeb0     d3d8d:globals.obj
 0003:0005e9d0       ?g_NullHardwareGetPut@@3PAKA 0052fab0     d3d8d:globals.obj
 0003:0005e9d8       _D3D__AvInfo               0052fab8     d3d8d:globals.obj
 0003:0005e9dc       _D3D__GpuReg               0052fabc     d3d8d:globals.obj
 0003:0005e9e0       _D3D__NullHardware         0052fac0     d3d8d:globals.obj
 0003:0005e9e4       _D3D__IndexData            0052fac4     d3d8d:globals.obj
 0003:0005e9e8       _D3D__DirtyFlags           0052fac8     d3d8d:globals.obj
 0003:0005e9f0       _D3D__TextureState         0052fad0     d3d8d:globals.obj
 0003:0005ebf0       _D3D__RenderState          0052fcd0     d3d8d:globals.obj
 0003:0005ee88       _D3D__pDevice              0052ff68     d3d8d:globals.obj
 0003:0005ee90       _D3D__Device               0052ff70     d3d8d:globals.obj
 0003:00061de0       ?g_OverscanColor@D3D@@3KA  00532ec0     d3d8d:d3dbase.obj
 0003:00061de4       ?g_SoftDisplayFilterValue@D3D@@3HA 00532ec4     d3d8d:d3dbase.obj
 0003:00061de8       ?g_FlickerFilterValue@D3D@@3KA 00532ec8     d3d8d:d3dbase.obj
 0003:00061dec       ?g_SoftDisplayFilterSet@D3D@@3HA 00532ecc     d3d8d:d3dbase.obj
 0003:00061df0       ?g_FlickerFilterSet@D3D@@3HA 00532ed0     d3d8d:d3dbase.obj
 0003:00061df8       ?g_DoChecksum@D3D@@3KA     00532ed8     d3d8d:d3dbase.obj
 0003:00061dfc       ?g_Channel@D3D@@3KA        00532edc     d3d8d:d3dbase.obj
 0003:00061e00       ?g_Value@D3D@@3PAKA        00532ee0     d3d8d:d3dbase.obj
 0003:00061e10       ?g_CurrentPrimitiveType@D3D@@3HA 00532ef0     d3d8d:drawprim.obj
 0003:00061e18       ?g_Stream@D3D@@3PAUStream@1@A 00532ef8     d3d8d:vshader.obj
 0003:00061ed8       ?g_DirectVertexShader@D3D@@3UVertexShader@1@A 00532fb8     d3d8d:vshader.obj
 0003:00061ff8       ?g_FvfVertexShader@D3D@@3UVertexShader@1@A 005330d8     d3d8d:vshader.obj
 0003:00062118       ?g_LoadedVertexShaderSlot@D3D@@3PAEA 005331f8     d3d8d:vshader.obj
 0003:00062260       ?g_snapshot@D3D@@3VDebugSnapshot@1@A 00533340     d3d8d:shadersnapshot.obj
 0003:00062a90       ?g_PerfProfData@D3D@@3UD3DPERF_PROFDATA@1@A 00533b70     d3d8d:stats.obj
 0003:00062a94       ?g_PerfLastGpuBusyCounts@D3D@@3PAKA 00533b74     d3d8d:stats.obj
 0003:00062aa4       ?g_PerfLastProfileSamples@D3D@@3KA 00533b84     d3d8d:stats.obj
 0003:00062aa8       ?g_rcbAtReset@D3D@@3U_KPRCB@@A 00533b88     d3d8d:stats.obj
 0003:00062d04       ?g_pPutLocationAtReset@D3D@@3PAKA 00533de4     d3d8d:stats.obj
 0003:00062fe8       ?g_UserLevel@D3D@@3HA      005340c8     d3d8d:timing.obj
 0003:00063068       _D3D__AllocsNoncontiguous  00534148     d3d8d:memory.obj
 0003:0006306c       _D3D__AllocsContiguous     0053414c     d3d8d:memory.obj
 0003:0006307c       ?g_pEndState@D3D@@3PCKC    0053415c     d3d8d:pusher.obj
 0003:00063080       ?g_pEndPush@D3D@@3PCKC     00534160     d3d8d:pusher.obj
 0003:00063084       ?g_PushState@D3D@@3KA      00534164     d3d8d:pusher.obj
 0003:00063088       ?g_ReservedSize@D3D@@3KA   00534168     d3d8d:pusher.obj
 0003:0006308c       ?g_PushIndex@D3D@@3KA      0053416c     d3d8d:pusher.obj
 0003:00063090       ?g_pPushNext@D3D@@3PCKC    00534170     d3d8d:pusher.obj
 0003:00063098       ?m_PushSegmentSize@CDevice@D3D@@2KA 00534178     d3d8d:dxgcreate.obj
 0003:0006309c       ?m_PushBufferSize@CDevice@D3D@@2KA 0053417c     d3d8d:dxgcreate.obj
 0003:000630a4       ?g_VideoOffset@D3D@@3KA    00534184     d3d8d:mpintr.obj
 0003:000630a8       ?g_DpcRIPFired@D3D@@3_NA   00534188     d3d8d:mpintr.obj
 0003:000630b0       ?g_PushBufferRecorder@D3D@@3VRecorder@1@A 00534190     d3d8d:recorder.obj
 0003:000634d0       ?g_CRCTable@D3D@@3PAKA     005345b0     d3d8d:recorder.obj
 0003:000638d0       ?g_ParseState@D3D@@3PAKA   005349b0     d3d8d:recorder.obj
 0003:000660d8       ?g_pFixup@D3D@@3PAUD3DFixup@@A 005371b8     d3d8d:pushres.obj
 0003:000660dc       ?g_OriginalCount@D3D@@3KA  005371bc     d3d8d:pushres.obj
 0003:000660e0       ?g_FixupToBuffer@D3D@@3KA  005371c0     d3d8d:pushres.obj
 0003:000660e4       ?g_pNextFixup@D3D@@3PAKA   005371c4     d3d8d:pushres.obj
 0003:000660e8       ?g_FixupCount@D3D@@3KA     005371c8     d3d8d:pushres.obj
 0003:000660ec       ?g_FixupActive@D3D@@3HA    005371cc     d3d8d:pushres.obj
 0003:000660f0       ?g_FixupBracket@D3D@@3HA   005371d0     d3d8d:pushres.obj
 0003:00066100       _D3D__StateBlockDirty      005371e0     d3d8d:block.obj
 0004:00000000       ?D3DXSetDXT3DXT5@@YGXH@Z   00538a20 f   d3dx8d:d3dx8tex.obj
 0004:00000019       ?D3DXGetDXT3DXT5@@YGHXZ    00538a39 f   d3dx8d:d3dx8tex.obj
 0004:00000028       ?IsUvl@@YAHW4_D3DFORMAT@@@Z 00538a48 f   d3dx8d:d3dx8tex.obj
 0004:0000007d       ?GetDirect3D@D3DDevice@@SGJPAPAUDirect3D@@@Z 00538a9d f i d3dx8d:d3dx8tex.obj
 0004:00000092       ?GetDeviceCaps@D3DDevice@@SGJPAU_D3DCAPS8@@@Z 00538ab2 f i d3dx8d:d3dx8tex.obj
 0004:000000a7       ?CreateVolumeTexture@D3DDevice@@SGJIIIIKW4_D3DFORMAT@@KPAPAUD3DVolumeTexture@@@Z 00538ac7 f i d3dx8d:d3dx8tex.obj
 0004:000000e6       ?GetLevelCount@D3DBaseTexture@@QAGKXZ 00538b06 f i d3dx8d:d3dx8tex.obj
 0004:000000f1       ?GetLevelDesc@D3DTexture@@QAGJIPAU_D3DSURFACE_DESC@@@Z 00538b11 f i d3dx8d:d3dx8tex.obj
 0004:0000010d       ?GetSurfaceLevel@D3DTexture@@QAGJIPAPAUD3DSurface@@@Z 00538b2d f i d3dx8d:d3dx8tex.obj
 0004:0000013b       ?GetLevelDesc@D3DVolumeTexture@@QAGJIPAU_D3DVOLUME_DESC@@@Z 00538b5b f i d3dx8d:d3dx8tex.obj
 0004:00000157       ?GetVolumeLevel@D3DVolumeTexture@@QAGJIPAPAUD3DVolume@@@Z 00538b77 f i d3dx8d:d3dx8tex.obj
 0004:00000185       ?GetLevelDesc@D3DCubeTexture@@QAGJIPAU_D3DSURFACE_DESC@@@Z 00538ba5 f i d3dx8d:d3dx8tex.obj
 0004:000001a3       ?GetDesc@D3DVolume@@QAGJPAU_D3DVOLUME_DESC@@@Z 00538bc3 f i d3dx8d:d3dx8tex.obj
 0004:000001bc       ?LockBox@D3DVolume@@QAGJPAU_D3DLOCKED_BOX@@PBU_D3DBOX@@K@Z 00538bdc f i d3dx8d:d3dx8tex.obj
 0004:000001dc       ?UnlockBox@D3DVolume@@QAGJXZ 00538bfc f i d3dx8d:d3dx8tex.obj
 0004:00000560       _D3DXLoadSurfaceFromMemory@40 00538f80 f   d3dx8d:d3dx8tex.obj
 0004:0000089a       _D3DXLoadVolumeFromMemory@44 005392ba f   d3dx8d:d3dx8tex.obj
 0004:00000bca       _D3DXCheckTextureRequirements@28 005395ea f   d3dx8d:d3dx8tex.obj
 0004:00000bfc       _D3DXCreateTexture@32      0053961c f   d3dx8d:d3dx8tex.obj
 0004:00000cd3       _D3DXCheckCubeTextureRequirements@24 005396f3 f   d3dx8d:d3dx8tex.obj
 0004:00000d05       _D3DXCreateCubeTexture@28  00539725 f   d3dx8d:d3dx8tex.obj
 0004:00000dd7       _D3DXCheckVolumeTextureRequirements@32 005397f7 f   d3dx8d:d3dx8tex.obj
 0004:00000e0a       _D3DXCreateVolumeTexture@36 0053982a f   d3dx8d:d3dx8tex.obj
 0004:00000ee7       _D3DXLoadSurfaceFromFileInMemory@36 00539907 f   d3dx8d:d3dx8tex.obj
 0004:00000ffa       _D3DXLoadSurfaceFromSurface@32 00539a1a f   d3dx8d:d3dx8tex.obj
 0004:0000119e       _D3DXLoadVolumeFromVolume@32 00539bbe f   d3dx8d:d3dx8tex.obj
 0004:00001365       _D3DXFilterTexture@16      00539d85 f   d3dx8d:d3dx8tex.obj
 0004:0000152d       _D3DXFilterCubeTexture@16  00539f4d f   d3dx8d:d3dx8tex.obj
 0004:00001733       _D3DXFilterVolumeTexture@16 0053a153 f   d3dx8d:d3dx8tex.obj
 0004:0000190f       _D3DXLoadSurfaceFromFileA@32 0053a32f f   d3dx8d:d3dx8tex.obj
 0004:00001973       _D3DXCreateTextureFromFileInMemoryEx@60 0053a393 f   d3dx8d:d3dx8tex.obj
 0004:00001e33       _D3DXCreateCubeTextureFromFileInMemoryEx@56 0053a853 f   d3dx8d:d3dx8tex.obj
 0004:0000233e       _D3DXCreateTextureFromFileExA@56 0053ad5e f   d3dx8d:d3dx8tex.obj
 0004:000023b8       _D3DXCreateTextureFromFileInMemory@16 0053add8 f   d3dx8d:d3dx8tex.obj
 0004:000023eb       _D3DXCreateCubeTextureFromFileExA@52 0053ae0b f   d3dx8d:d3dx8tex.obj
 0004:00002461       _D3DXCreateCubeTextureFromFileInMemory@16 0053ae81 f   d3dx8d:d3dx8tex.obj
 0004:00002493       _D3DXCreateTextureFromFileA@12 0053aeb3 f   d3dx8d:d3dx8tex.obj
 0004:000024c2       _D3DXCreateCubeTextureFromFileA@12 0053aee2 f   d3dx8d:d3dx8tex.obj
 0004:00002545       _D3DXVec2Hermite@24        0053af65 f   d3dx8d:d3dxmath.obj
 0004:0000262b       _D3DXVec2CatmullRom@24     0053b04b f   d3dx8d:d3dxmath.obj
 0004:0000273a       _D3DXVec2BaryCentric@24    0053b15a f   d3dx8d:d3dxmath.obj
 0004:000027be       _D3DXVec2Transform@12      0053b1de f   d3dx8d:d3dxmath.obj
 0004:00002866       _D3DXVec2TransformNormal@12 0053b286 f   d3dx8d:d3dxmath.obj
 0004:000028cd       _D3DXVec3Hermite@24        0053b2ed f   d3dx8d:d3dxmath.obj
 0004:000029db       _D3DXVec3CatmullRom@24     0053b3fb f   d3dx8d:d3dxmath.obj
 0004:00002b14       _D3DXVec3BaryCentric@24    0053b534 f   d3dx8d:d3dxmath.obj
 0004:00002bb9       _D3DXVec3Transform@12      0053b5d9 f   d3dx8d:d3dxmath.obj
 0004:00002c8c       _D3DXVec3TransformNormal@12 0053b6ac f   d3dx8d:d3dxmath.obj
 0004:00002d28       _D3DXVec4Hermite@24        0053b748 f   d3dx8d:d3dxmath.obj
 0004:00002e60       _D3DXVec4CatmullRom@24     0053b880 f   d3dx8d:d3dxmath.obj
 0004:00002fc4       _D3DXVec4BaryCentric@24    0053b9e4 f   d3dx8d:d3dxmath.obj
 0004:00003089       _D3DXVec4Transform@12      0053baa9 f   d3dx8d:d3dxmath.obj
 0004:0000316d       _D3DXMatrixfDeterminant@4  0053bb8d f   d3dx8d:d3dxmath.obj
 0004:0000327c       _D3DXMatrixTranspose@8     0053bc9c f   d3dx8d:d3dxmath.obj
 0004:00003329       _D3DXMatrixInverse@12      0053bd49 f   d3dx8d:d3dxmath.obj
 0004:000037bc       _D3DXMatrixScaling@16      0053c1dc f   d3dx8d:d3dxmath.obj
 0004:00003849       _D3DXMatrixTranslation@16  0053c269 f   d3dx8d:d3dxmath.obj
 0004:000038d6       _D3DXMatrixRotationX@8     0053c2f6 f   d3dx8d:d3dxmath.obj
 0004:00003988       _D3DXMatrixRotationY@8     0053c3a8 f   d3dx8d:d3dxmath.obj
 0004:00003a39       _D3DXMatrixRotationZ@8     0053c459 f   d3dx8d:d3dxmath.obj
 0004:00003aeb       _D3DXMatrixRotationQuaternion@8 0053c50b f   d3dx8d:d3dxmath.obj
 0004:00003c28       _D3DXMatrixPerspectiveRH@20 0053c648 f   d3dx8d:d3dxmath.obj
 0004:00003cc9       _D3DXMatrixPerspectiveLH@20 0053c6e9 f   d3dx8d:d3dxmath.obj
 0004:00003d6a       _D3DXMatrixPerspectiveFovRH@20 0053c78a f   d3dx8d:d3dxmath.obj
 0004:00003e3d       _D3DXMatrixPerspectiveFovLH@20 0053c85d f   d3dx8d:d3dxmath.obj
 0004:00003f10       _D3DXMatrixPerspectiveOffCenterRH@28 0053c930 f   d3dx8d:d3dxmath.obj
 0004:00003fee       _D3DXMatrixPerspectiveOffCenterLH@28 0053ca0e f   d3dx8d:d3dxmath.obj
 0004:000040d1       _D3DXMatrixOrthoRH@20      0053caf1 f   d3dx8d:d3dxmath.obj
 0004:00004179       _D3DXMatrixOrthoLH@20      0053cb99 f   d3dx8d:d3dxmath.obj
 0004:00004224       _D3DXMatrixOrthoOffCenterRH@28 0053cc44 f   d3dx8d:d3dxmath.obj
 0004:00004307       _D3DXMatrixOrthoOffCenterLH@28 0053cd27 f   d3dx8d:d3dxmath.obj
 0004:000043ed       _D3DXQuaternionRotationYawPitchRoll@16 0053ce0d f   d3dx8d:d3dxmath.obj
 0004:00004516       _D3DXQuaternionMultiply@12 0053cf36 f   d3dx8d:d3dxmath.obj
 0004:000045f7       _D3DXColorAdjustSaturation@12 0053d017 f   d3dx8d:d3dxmath.obj
 0004:00004688       _D3DXColorAdjustContrast@12 0053d0a8 f   d3dx8d:d3dxmath.obj
 0004:000046fb       _acosf                     0053d11b f i d3dx8d:d3dxmath.obj
 0004:0000470b       _atan2f                    0053d12b f i d3dx8d:d3dxmath.obj
 0004:0000471b       _sinf                      0053d13b f i d3dx8d:d3dxmath.obj
 0004:00004727       _sqrtf                     0053d147 f i d3dx8d:d3dxmath.obj
 0004:00004733       ??0D3DXQUATERNION@@QAE@XZ  0053d153 f i d3dx8d:d3dxmath.obj
 0004:00004736       ??0D3DXPLANE@@QAE@XZ       0053d156 f i d3dx8d:d3dxmath.obj
 0004:00004739       ??0D3DXVECTOR2@@QAE@MM@Z   0053d159 f i d3dx8d:d3dxmath.obj
 0004:00004752       ??_0D3DXVECTOR2@@QAEAAU0@M@Z 0053d172 f i d3dx8d:d3dxmath.obj
 0004:00004772       ??KD3DXVECTOR2@@QBE?AU0@M@Z 0053d192 f i d3dx8d:d3dxmath.obj
 0004:00004798       ??_0D3DXVECTOR3@@QAEAAU0@M@Z 0053d1b8 f i d3dx8d:d3dxmath.obj
 0004:000047c2       ??KD3DXVECTOR4@@QBE?AU0@M@Z 0053d1e2 f i d3dx8d:d3dxmath.obj
 0004:000047fc       ??0D3DXQUATERNION@@QAE@MMMM@Z 0053d21c f i d3dx8d:d3dxmath.obj
 0004:00004824       ??_0D3DXQUATERNION@@QAEAAU0@M@Z 0053d244 f i d3dx8d:d3dxmath.obj
 0004:00004858       ??KD3DXQUATERNION@@QBE?AU0@M@Z 0053d278 f i d3dx8d:d3dxmath.obj
 0004:00004892       ??0D3DXPLANE@@QAE@MMMM@Z   0053d2b2 f i d3dx8d:d3dxmath.obj
 0004:000048ba       ??GD3DXPLANE@@QBE?AU0@XZ   0053d2da f i d3dx8d:d3dxmath.obj
 0004:000048ec       ?D3DXVec2LengthSq@@YAMPBUD3DXVECTOR2@@@Z 0053d30c f i d3dx8d:d3dxmath.obj
 0004:0000490d       ?D3DXVec3LengthSq@@YAMPBUD3DXVECTOR3@@@Z 0053d32d f i d3dx8d:d3dxmath.obj
 0004:0000493c       ?D3DXVec3Dot@@YAMPBUD3DXVECTOR3@@0@Z 0053d35c f i d3dx8d:d3dxmath.obj
 0004:00004962       ?D3DXVec3Subtract@@YAPAUD3DXVECTOR3@@PAU1@PBU1@1@Z 0053d382 f i d3dx8d:d3dxmath.obj
 0004:00004991       ?D3DXVec3Lerp@@YAPAUD3DXVECTOR3@@PAU1@PBU1@1M@Z 0053d3b1 f i d3dx8d:d3dxmath.obj
 0004:000049d5       ?D3DXVec4LengthSq@@YAMPBUD3DXVECTOR4@@@Z 0053d3f5 f i d3dx8d:d3dxmath.obj
 0004:00004a12       ?D3DXMatrixIdentity@@YAPAUD3DXMATRIX@@PAU1@@Z 0053d432 f i d3dx8d:d3dxmath.obj
 0004:00004a7e       ?D3DXQuaternionLengthSq@@YAMPBUD3DXQUATERNION@@@Z 0053d49e f i d3dx8d:d3dxmath.obj
 0004:00004abb       ?D3DXQuaternionDot@@YAMPBUD3DXQUATERNION@@0@Z 0053d4db f i d3dx8d:d3dxmath.obj
 0004:00004aeb       ?D3DXQuaternionConjugate@@YAPAUD3DXQUATERNION@@PAU1@PBU1@@Z 0053d50b f i d3dx8d:d3dxmath.obj
 0004:00004b1b       ?D3DXPlaneDot@@YAMPBUD3DXPLANE@@PBUD3DXVECTOR4@@@Z 0053d53b f i d3dx8d:d3dxmath.obj
 0004:00004b4b       ?D3DXPlaneDotCoord@@YAMPBUD3DXPLANE@@PBUD3DXVECTOR3@@@Z 0053d56b f i d3dx8d:d3dxmath.obj
 0004:00004b75       ?D3DXPlaneDotNormal@@YAMPBUD3DXPLANE@@PBUD3DXVECTOR3@@@Z 0053d595 f i d3dx8d:d3dxmath.obj
 0004:00004b9b       _D3DXVec2Normalize@8       0053d5bb f   d3dx8d:d3dxmath.obj
 0004:00004c6a       _D3DXVec2TransformCoord@12 0053d68a f   d3dx8d:d3dxmath.obj
 0004:00004d53       _D3DXVec3Normalize@8       0053d773 f   d3dx8d:d3dxmath.obj
 0004:00004e07       _D3DXVec3TransformCoord@12 0053d827 f   d3dx8d:d3dxmath.obj
 0004:00004f0e       _D3DXVec4Cross@16          0053d92e f   d3dx8d:d3dxmath.obj
 0004:00005064       _D3DXVec4Normalize@8       0053da84 f   d3dx8d:d3dxmath.obj
 0004:0000511f       _D3DXMatrixMultiply@12     0053db3f f   d3dx8d:d3dxmath.obj
 0004:00005261       _D3DXMatrixRotationAxis@12 0053dc81 f   d3dx8d:d3dxmath.obj
 0004:000053c0       _D3DXMatrixRotationYawPitchRoll@16 0053dde0 f   d3dx8d:d3dxmath.obj
 0004:00005420       _D3DXMatrixTransformation@28 0053de40 f   d3dx8d:d3dxmath.obj
 0004:000056aa       _D3DXMatrixAffineTransformation@20 0053e0ca f   d3dx8d:d3dxmath.obj
 0004:000057d6       _D3DXMatrixLookAtRH@16     0053e1f6 f   d3dx8d:d3dxmath.obj
 0004:00005935       _D3DXMatrixLookAtLH@16     0053e355 f   d3dx8d:d3dxmath.obj
 0004:00005a94       _D3DXQuaternionToAxisAngle@12 0053e4b4 f   d3dx8d:d3dxmath.obj
 0004:00005b35       _D3DXQuaternionRotationMatrix@8 0053e555 f   d3dx8d:d3dxmath.obj
 0004:00005ccb       _D3DXQuaternionRotationAxis@12 0053e6eb f   d3dx8d:d3dxmath.obj
 0004:00005d5e       _D3DXQuaternionNormalize@8 0053e77e f   d3dx8d:d3dxmath.obj
 0004:00005e19       _D3DXQuaternionInverse@8   0053e839 f   d3dx8d:d3dxmath.obj
 0004:00005ebc       _D3DXQuaternionLn@8        0053e8dc f   d3dx8d:d3dxmath.obj
 0004:00005f75       _D3DXQuaternionExp@8       0053e995 f   d3dx8d:d3dxmath.obj
 0004:00006054       _D3DXQuaternionSlerp@16    0053ea74 f   d3dx8d:d3dxmath.obj
 0004:00006188       _D3DXQuaternionSquad@24    0053eba8 f   d3dx8d:d3dxmath.obj
 0004:00006226       _D3DXQuaternionBaryCentric@24 0053ec46 f   d3dx8d:d3dxmath.obj
 0004:000062f8       _D3DXPlaneNormalize@8      0053ed18 f   d3dx8d:d3dxmath.obj
 0004:000063e1       _D3DXPlaneIntersectLine@16 0053ee01 f   d3dx8d:d3dxmath.obj
 0004:0000649f       _D3DXPlaneFromPointNormal@12 0053eebf f   d3dx8d:d3dxmath.obj
 0004:00006501       _D3DXPlaneFromPoints@16    0053ef21 f   d3dx8d:d3dxmath.obj
 0004:00006598       _D3DXPlaneTransform@12     0053efb8 f   d3dx8d:d3dxmath.obj
 0004:00006653       _D3DXVec3Project@24        0053f073 f   d3dx8d:d3dxmath.obj
 0004:000067eb       _D3DXVec3Unproject@24      0053f20b f   d3dx8d:d3dxmath.obj
 0004:0000699a       _D3DXMatrixShadow@12       0053f3ba f   d3dx8d:d3dxmath.obj
 0004:00006ad8       _D3DXMatrixReflect@8       0053f4f8 f   d3dx8d:d3dxmath.obj
 0004:00006be9       ?D3DXDebugPrintf@@YAXIPADZZ 0053f609 f   d3dx8d:d3dx8dbg.obj
 0004:00006c58       ?D3DXDebugPrintfAndBreak@@YAXIPADZZ 0053f678 f   d3dx8d:d3dx8dbg.obj
 0004:00006ccd       ?D3DXDebugPrintfHR@@YAXIJPADZZ 0053f6ed f   d3dx8d:d3dx8dbg.obj
 0004:00006d3e       ?D3DXDebugAssert@@YGHPBDH0@Z 0053f75e f   d3dx8d:d3dx8dbg.obj
 0004:00006d43       ??0CD3DXBlt@@QAE@XZ        0053f763 f   d3dx8d:cd3dxblt.obj
 0004:00006d4f       ??1CD3DXBlt@@QAE@XZ        0053f76f f   d3dx8d:cd3dxblt.obj
 0004:00006d74       ??0TF_Row@@QAE@XZ          0053f794 f i d3dx8d:cd3dxblt.obj
 0004:00006d80       ?BltSame_DXTn@CD3DXBlt@@IAEJXZ 0053f7a0 f   d3dx8d:cd3dxblt.obj
 0004:00006f65       ?BltBox2D_R8G8B8@CD3DXBlt@@IAEJXZ 0053f985 f   d3dx8d:cd3dxblt.obj
 0004:00006f6b       ?BltBox2D_A8R8G8B8@CD3DXBlt@@IAEJXZ 0053f98b f   d3dx8d:cd3dxblt.obj
 0004:00007105       ?BltBox2D_X8R8G8B8@CD3DXBlt@@IAEJXZ 0053fb25 f   d3dx8d:cd3dxblt.obj
 0004:0000724f       ?BltBox2D_R5G6B5@CD3DXBlt@@IAEJXZ 0053fc6f f   d3dx8d:cd3dxblt.obj
 0004:000073e4       ?BltBox2D_X1R5G5B5@CD3DXBlt@@IAEJXZ 0053fe04 f   d3dx8d:cd3dxblt.obj
 0004:0000753e       ?BltBox2D_A1R5G5B5@CD3DXBlt@@IAEJXZ 0053ff5e f   d3dx8d:cd3dxblt.obj
 0004:000076c5       ?BltBox2D_A4R4G4B4@CD3DXBlt@@IAEJXZ 005400e5 f   d3dx8d:cd3dxblt.obj
 0004:0000785d       ?BltBox2D_R3G3B2@CD3DXBlt@@IAEJXZ 0054027d f   d3dx8d:cd3dxblt.obj
 0004:00007863       ?BltBox2D_A8@CD3DXBlt@@IAEJXZ 00540283 f   d3dx8d:cd3dxblt.obj
 0004:00007926       ?BltBox2D_A8R3G3B2@CD3DXBlt@@IAEJXZ 00540346 f   d3dx8d:cd3dxblt.obj
 0004:0000792c       ?BltBox2D_X4R4G4B4@CD3DXBlt@@IAEJXZ 0054034c f   d3dx8d:cd3dxblt.obj
 0004:00007932       ?BltBox2D_A8P8@CD3DXBlt@@IAEJXZ 00540352 f   d3dx8d:cd3dxblt.obj
 0004:00007938       ?BltBox2D_P8@CD3DXBlt@@IAEJXZ 00540358 f   d3dx8d:cd3dxblt.obj
 0004:0000793e       ?BltBox2D_A8L8@CD3DXBlt@@IAEJXZ 0054035e f   d3dx8d:cd3dxblt.obj
 0004:00007acb       ?BltBox2D_A4L4@CD3DXBlt@@IAEJXZ 005404eb f   d3dx8d:cd3dxblt.obj
 0004:00007ad1       ??0D3DXCOLOR@@QAE@XZ       005404f1 f i d3dx8d:cd3dxblt.obj
 0004:00007ad4       ??0D3DXCOLOR@@QAE@MMMM@Z   005404f4 f i d3dx8d:cd3dxblt.obj
 0004:00007afc       ??HD3DXCOLOR@@QBE?AU0@ABU0@@Z 0054051c f i d3dx8d:cd3dxblt.obj
 0004:00007b35       ??DD3DXCOLOR@@QBE?AU0@M@Z  00540555 f i d3dx8d:cd3dxblt.obj
 0004:00007c23       ?BltSame@CD3DXBlt@@IAEJXZ  00540643 f   d3dx8d:cd3dxblt.obj
 0004:00007d9d       ?BltCopy@CD3DXBlt@@IAEJXZ  005407bd f   d3dx8d:cd3dxblt.obj
 0004:00007eb1       ?BltNone@CD3DXBlt@@IAEJXZ  005408d1 f   d3dx8d:cd3dxblt.obj
 0004:00008101       ?BltPoint@CD3DXBlt@@IAEJXZ 00540b21 f   d3dx8d:cd3dxblt.obj
 0004:00008369       ?BltBox2D@CD3DXBlt@@IAEJXZ 00540d89 f   d3dx8d:cd3dxblt.obj
 0004:00008793       ?BltBox3D@CD3DXBlt@@IAEJXZ 005411b3 f   d3dx8d:cd3dxblt.obj
 0004:00008d40       ?BltLinear2D@CD3DXBlt@@IAEJXZ 00541760 f   d3dx8d:cd3dxblt.obj
 0004:0000913c       ?BltLinear3D@CD3DXBlt@@IAEJXZ 00541b5c f   d3dx8d:cd3dxblt.obj
 0004:00009779       ??1TF_Row@@QAE@XZ          00542199 f i d3dx8d:cd3dxblt.obj
 0004:000097b2       ??_GTF_Row@@QAEPAXI@Z      005421d2 f i d3dx8d:cd3dxblt.obj
 0004:00009bfd       ?BltTriangle2D@CD3DXBlt@@IAEJXZ 0054261d f   d3dx8d:cd3dxblt.obj
 0004:0000a11b       ?BltTriangle3D@CD3DXBlt@@IAEJXZ 00542b3b f   d3dx8d:cd3dxblt.obj
 0004:0000a7c1       ?Blt@CD3DXBlt@@QAEJPAUD3DX_BLT@@0K@Z 005431e1 f   d3dx8d:cd3dxblt.obj
 0004:0000a94f       ??0CD3DXImage@@QAE@XZ      0054336f f   d3dx8d:cd3dximage.obj
 0004:0000ab08       ??1CD3DXImage@@QAE@XZ      00543528 f   d3dx8d:cd3dximage.obj
 0004:0000ab80       ??_GCD3DXImage@@QAEPAXI@Z  005435a0 f i d3dx8d:cd3dximage.obj
 0004:0000abb0       ?LoadDIB@CD3DXImage@@AAEJPBXK@Z 005435d0 f   d3dx8d:cd3dximage.obj
 0004:0000b498       ?LoadJPG@CD3DXImage@@AAEJPBXK@Z 00543eb8 f   d3dx8d:cd3dximage.obj
 0004:0000b781       ?LoadTGA@CD3DXImage@@AAEJPBXK@Z 005441a1 f   d3dx8d:cd3dximage.obj
 0004:0000bce3       ?LoadPPM@CD3DXImage@@AAEJPBXK@Z 00544703 f   d3dx8d:cd3dximage.obj
 0004:0000c012       ?LoadPNG@CD3DXImage@@AAEJPBXK@Z 00544a32 f   d3dx8d:cd3dximage.obj
 0004:0000c687       ?LoadDDS@CD3DXImage@@AAEJPBXK@Z 005450a7 f   d3dx8d:cd3dximage.obj
 0004:0000ca88       ?LoadBMP@CD3DXImage@@AAEJPBXK@Z 005454a8 f   d3dx8d:cd3dximage.obj
 0004:0000cac6       ?Load@CD3DXImage@@QAEJPBXKPAU_D3DXIMAGE_INFO@@@Z 005454e6 f   d3dx8d:cd3dximage.obj
 0004:0000cc72       ??0CD3DXFile@@QAE@XZ       00545692 f   d3dx8d:cd3dxfile.obj
 0004:0000cc7e       ?Open@CD3DXFile@@QAEJPBXH@Z 0054569e f   d3dx8d:cd3dxfile.obj
 0004:0000cd79       ?Close@CD3DXFile@@QAEJXZ   00545799 f   d3dx8d:cd3dxfile.obj
 0004:0000cd9f       ??1CD3DXFile@@QAE@XZ       005457bf f   d3dx8d:cd3dxfile.obj
 0004:0000cda4       _D3DXGetFVFVertexSize@4    005457c4 f   d3dx8d:d3dx8core.obj
 0004:0000ce63       _D3DXGetErrorStringA@12    00545883 f   d3dx8d:d3dx8core.obj
 0004:0000d131       _D3DXGetErrorStringW@12    00545b51 f   d3dx8d:d3dx8core.obj
 0004:0000d210       ??_GCD3DXSprite@@QAEPAXI@Z 00545c30 f i d3dx8d:d3dx8core.obj
 0004:0000d240       ??_GCD3DXRenderToSurface@@QAEPAXI@Z 00545c60 f i d3dx8d:d3dx8core.obj
 0004:0000d270       ??_GCD3DXRenderToEnvMap@@QAEPAXI@Z 00545c90 f i d3dx8d:d3dx8core.obj
 0004:0000d2a0       _D3DXCreateSprite@8        00545cc0 f   d3dx8d:d3dx8core.obj
 0004:0000d34f       _D3DXCreateRenderToSurface@28 00545d6f f   d3dx8d:d3dx8core.obj
 0004:0000d410       _D3DXCreateRenderToEnvMap@24 00545e30 f   d3dx8d:d3dx8core.obj
 0004:0000d4ce       ??1CD3DXCodec@@UAE@XZ      00545eee f   d3dx8d:cd3dxcodec.obj
 0004:0000d4d5       ?Decode@CD3DXCodec@@UAEXIIPAUD3DXCOLOR@@@Z 00545ef5 f   d3dx8d:cd3dxcodec.obj
 0004:0000d4d8       ?Encode@CD3DXCodec@@UAEXIIPAUD3DXCOLOR@@@Z 00545ef8 f   d3dx8d:cd3dxcodec.obj
 0004:0000d4db       ?Decode@CD3DXCodec_V8U8@@UAEXIIPAUD3DXCOLOR@@@Z 00545efb f   d3dx8d:cd3dxcodec.obj
 0004:0000d55e       ?Decode@CD3DXCodec_L6V5U5@@UAEXIIPAUD3DXCOLOR@@@Z 00545f7e f   d3dx8d:cd3dxcodec.obj
 0004:0000d619       ?Decode@CD3DXCodec_X8L8V8U8@@UAEXIIPAUD3DXCOLOR@@@Z 00546039 f   d3dx8d:cd3dxcodec.obj
 0004:0000d6af       ?Decode@CD3DXCodec_Q8W8V8U8@@UAEXIIPAUD3DXCOLOR@@@Z 005460cf f   d3dx8d:cd3dxcodec.obj
 0004:0000d74c       ?Decode@CD3DXCodec_V16U16@@UAEXIIPAUD3DXCOLOR@@@Z 0054616c f   d3dx8d:cd3dxcodec.obj
 0004:0000d7d0       ?Decode@CD3DXCodec_W11V11U10@@UAEXIIPAUD3DXCOLOR@@@Z 005461f0 f   d3dx8d:cd3dxcodec.obj
 0004:0000d896       ??0D3DXCOLOR@@QAE@K@Z      005462b6 f i d3dx8d:cd3dxcodec.obj
 0004:0000d900       ??GD3DXCOLOR@@QBE?AU0@ABU0@@Z 00546320 f i d3dx8d:cd3dxcodec.obj
 0004:0000d939       ??8D3DXCOLOR@@QBEHABU0@@Z  00546359 f i d3dx8d:cd3dxcodec.obj
 0004:0000da2f       ??0CD3DXCodec@@IAE@PAUD3DX_BLT@@IK@Z 0054644f f   d3dx8d:cd3dxcodec.obj
 0004:0000dcac       ??_GCD3DXCodec@@UAEPAXI@Z  005466cc f i d3dx8d:cd3dxcodec.obj
 0004:0000dcac       ??_ECD3DXCodec@@UAEPAXI@Z  005466cc f i d3dx8d:cd3dxcodec.obj
 0004:0000dcd9       ?ColorKey@CD3DXCodec@@IAEXPAUD3DXCOLOR@@@Z 005466f9 f   d3dx8d:cd3dxcodec.obj
 0004:0000dd33       ?Encode@CD3DXCodec_R8G8B8@@UAEXIIPAUD3DXCOLOR@@@Z 00546753 f   d3dx8d:cd3dxcodec.obj
 0004:0000de29       ?Encode@CD3DXCodec_A8R8G8B8@@UAEXIIPAUD3DXCOLOR@@@Z 00546849 f   d3dx8d:cd3dxcodec.obj
 0004:0000df65       ?Encode@CD3DXCodec_X8R8G8B8@@UAEXIIPAUD3DXCOLOR@@@Z 00546985 f   d3dx8d:cd3dxcodec.obj
 0004:0000e076       ?Encode@CD3DXCodec_R5G6B5@@UAEXIIPAUD3DXCOLOR@@@Z 00546a96 f   d3dx8d:cd3dxcodec.obj
 0004:0000e187       ?Encode@CD3DXCodec_X1R5G5B5@@UAEXIIPAUD3DXCOLOR@@@Z 00546ba7 f   d3dx8d:cd3dxcodec.obj
 0004:0000e298       ?Encode@CD3DXCodec_A1R5G5B5@@UAEXIIPAUD3DXCOLOR@@@Z 00546cb8 f   d3dx8d:cd3dxcodec.obj
 0004:0000e3cc       ?Encode@CD3DXCodec_A4R4G4B4@@UAEXIIPAUD3DXCOLOR@@@Z 00546dec f   d3dx8d:cd3dxcodec.obj
 0004:0000e508       ?Encode@CD3DXCodec_R3G3B2@@UAEXIIPAUD3DXCOLOR@@@Z 00546f28 f   d3dx8d:cd3dxcodec.obj
 0004:0000e614       ?Encode@CD3DXCodec_A8@@UAEXIIPAUD3DXCOLOR@@@Z 00547034 f   d3dx8d:cd3dxcodec.obj
 0004:0000e6b9       ?Encode@CD3DXCodec_A8R3G3B2@@UAEXIIPAUD3DXCOLOR@@@Z 005470d9 f   d3dx8d:cd3dxcodec.obj
 0004:0000e7f5       ?Encode@CD3DXCodec_X4R4G4B4@@UAEXIIPAUD3DXCOLOR@@@Z 00547215 f   d3dx8d:cd3dxcodec.obj
 0004:0000e906       ?Encode@CD3DXCodec_A8P8@@UAEXIIPAUD3DXCOLOR@@@Z 00547326 f   d3dx8d:cd3dxcodec.obj
 0004:0000ea49       ?Encode@CD3DXCodec_P8@@UAEXIIPAUD3DXCOLOR@@@Z 00547469 f   d3dx8d:cd3dxcodec.obj
 0004:0000eb31       ?Encode@CD3DXCodec_L8@@UAEXIIPAUD3DXCOLOR@@@Z 00547551 f   d3dx8d:cd3dxcodec.obj
 0004:0000ebf9       ?Encode@CD3DXCodec_A8L8@@UAEXIIPAUD3DXCOLOR@@@Z 00547619 f   d3dx8d:cd3dxcodec.obj
 0004:0000ed04       ?Encode@CD3DXCodec_A4L4@@UAEXIIPAUD3DXCOLOR@@@Z 00547724 f   d3dx8d:cd3dxcodec.obj
 0004:0000ee05       ?Encode@CD3DXCodec_V8U8@@UAEXIIPAUD3DXCOLOR@@@Z 00547825 f   d3dx8d:cd3dxcodec.obj
 0004:0000eee7       ?Encode@CD3DXCodec_L6V5U5@@UAEXIIPAUD3DXCOLOR@@@Z 00547907 f   d3dx8d:cd3dxcodec.obj
 0004:0000f005       ?Encode@CD3DXCodec_X8L8V8U8@@UAEXIIPAUD3DXCOLOR@@@Z 00547a25 f   d3dx8d:cd3dxcodec.obj
 0004:0000f12d       ?Encode@CD3DXCodec_Q8W8V8U8@@UAEXIIPAUD3DXCOLOR@@@Z 00547b4d f   d3dx8d:cd3dxcodec.obj
 0004:0000f287       ?Encode@CD3DXCodec_V16U16@@UAEXIIPAUD3DXCOLOR@@@Z 00547ca7 f   d3dx8d:cd3dxcodec.obj
 0004:0000f369       ?Encode@CD3DXCodec_W11V11U10@@UAEXIIPAUD3DXCOLOR@@@Z 00547d89 f   d3dx8d:cd3dxcodec.obj
 0004:0000f495       ?Decode@CD3DXCodec_R8G8B8@@UAEXIIPAUD3DXCOLOR@@@Z 00547eb5 f   d3dx8d:cd3dxcodec.obj
 0004:0000f544       ?Decode@CD3DXCodec_A8R8G8B8@@UAEXIIPAUD3DXCOLOR@@@Z 00547f64 f   d3dx8d:cd3dxcodec.obj
 0004:0000f613       ?Decode@CD3DXCodec_X8R8G8B8@@UAEXIIPAUD3DXCOLOR@@@Z 00548033 f   d3dx8d:cd3dxcodec.obj
 0004:0000f6d6       ?Decode@CD3DXCodec_R5G6B5@@UAEXIIPAUD3DXCOLOR@@@Z 005480f6 f   d3dx8d:cd3dxcodec.obj
 0004:0000f7a4       ?Decode@CD3DXCodec_X1R5G5B5@@UAEXIIPAUD3DXCOLOR@@@Z 005481c4 f   d3dx8d:cd3dxcodec.obj
 0004:0000f86e       ?Decode@CD3DXCodec_A1R5G5B5@@UAEXIIPAUD3DXCOLOR@@@Z 0054828e f   d3dx8d:cd3dxcodec.obj
 0004:0000f94a       ?Decode@CD3DXCodec_A4R4G4B4@@UAEXIIPAUD3DXCOLOR@@@Z 0054836a f   d3dx8d:cd3dxcodec.obj
 0004:0000fa24       ?Decode@CD3DXCodec_R3G3B2@@UAEXIIPAUD3DXCOLOR@@@Z 00548444 f   d3dx8d:cd3dxcodec.obj
 0004:0000faee       ?Decode@CD3DXCodec_A8@@UAEXIIPAUD3DXCOLOR@@@Z 0054850e f   d3dx8d:cd3dxcodec.obj
 0004:0000fb7c       ?Decode@CD3DXCodec_A8R3G3B2@@UAEXIIPAUD3DXCOLOR@@@Z 0054859c f   d3dx8d:cd3dxcodec.obj
 0004:0000fc5a       ?Decode@CD3DXCodec_X4R4G4B4@@UAEXIIPAUD3DXCOLOR@@@Z 0054867a f   d3dx8d:cd3dxcodec.obj
 0004:0000fd20       ?Decode@CD3DXCodec_A8P8@@UAEXIIPAUD3DXCOLOR@@@Z 00548740 f   d3dx8d:cd3dxcodec.obj
 0004:0000fdc8       ?Decode@CD3DXCodec_P8@@UAEXIIPAUD3DXCOLOR@@@Z 005487e8 f   d3dx8d:cd3dxcodec.obj
 0004:0000fe46       ?Decode@CD3DXCodec_L8@@UAEXIIPAUD3DXCOLOR@@@Z 00548866 f   d3dx8d:cd3dxcodec.obj
 0004:0000fecf       ?Decode@CD3DXCodec_A8L8@@UAEXIIPAUD3DXCOLOR@@@Z 005488ef f   d3dx8d:cd3dxcodec.obj
 0004:0000ff7a       ?Decode@CD3DXCodec_A4L4@@UAEXIIPAUD3DXCOLOR@@@Z 0054899a f   d3dx8d:cd3dxcodec.obj
 0004:00010025       ??0CD3DXCodecYUV@@QAE@PAUD3DX_BLT@@@Z 00548a45 f   d3dx8d:cd3dxcodec.obj
 0004:00010139       ?Commit@CD3DXCodecYUV@@QAEJXZ 00548b59 f   d3dx8d:cd3dxcodec.obj
 0004:000103a8       ?Fetch@CD3DXCodecYUV@@QAEJIIH@Z 00548dc8 f   d3dx8d:cd3dxcodec.obj
 0004:0001072d       ?Encode@CD3DXCodecYUV@@UAEXIIPAUD3DXCOLOR@@@Z 0054914d f   d3dx8d:cd3dxcodec.obj
 0004:000107c4       ?Decode@CD3DXCodecYUV@@UAEXIIPAUD3DXCOLOR@@@Z 005491e4 f   d3dx8d:cd3dxcodec.obj
 0004:0001084e       ??0CD3DXCodecDXT@@QAE@PAUD3DX_BLT@@@Z 0054926e f   d3dx8d:cd3dxcodec.obj
 0004:000109bd       ?Commit@CD3DXCodecDXT@@QAEJXZ 005493dd f   d3dx8d:cd3dxcodec.obj
 0004:00010d83       ?Fetch@CD3DXCodecDXT@@QAEJIIH@Z 005497a3 f   d3dx8d:cd3dxcodec.obj
 0004:000110a5       ?Encode@CD3DXCodecDXT@@UAEXIIPAUD3DXCOLOR@@@Z 00549ac5 f   d3dx8d:cd3dxcodec.obj
 0004:0001114c       ?Decode@CD3DXCodecDXT@@UAEXIIPAUD3DXCOLOR@@@Z 00549b6c f   d3dx8d:cd3dxcodec.obj
 0004:000111dd       ??0CD3DXCodec_R8G8B8@@QAE@PAUD3DX_BLT@@@Z 00549bfd f i d3dx8d:cd3dxcodec.obj
 0004:00011203       ??_GCD3DXCodec_R8G8B8@@UAEPAXI@Z 00549c23 f i d3dx8d:cd3dxcodec.obj
 0004:00011203       ??_ECD3DXCodec_R8G8B8@@UAEPAXI@Z 00549c23 f i d3dx8d:cd3dxcodec.obj
 0004:00011230       ??0CD3DXCodec_A8R8G8B8@@QAE@PAUD3DX_BLT@@@Z 00549c50 f i d3dx8d:cd3dxcodec.obj
 0004:00011256       ??_GCD3DXCodec_A8R8G8B8@@UAEPAXI@Z 00549c76 f i d3dx8d:cd3dxcodec.obj
 0004:00011256       ??_ECD3DXCodec_A8R8G8B8@@UAEPAXI@Z 00549c76 f i d3dx8d:cd3dxcodec.obj
 0004:00011283       ??0CD3DXCodec_X8R8G8B8@@QAE@PAUD3DX_BLT@@@Z 00549ca3 f i d3dx8d:cd3dxcodec.obj
 0004:000112a9       ??_ECD3DXCodec_X8R8G8B8@@UAEPAXI@Z 00549cc9 f i d3dx8d:cd3dxcodec.obj
 0004:000112a9       ??_GCD3DXCodec_X8R8G8B8@@UAEPAXI@Z 00549cc9 f i d3dx8d:cd3dxcodec.obj
 0004:000112d6       ??0CD3DXCodec_R5G6B5@@QAE@PAUD3DX_BLT@@@Z 00549cf6 f i d3dx8d:cd3dxcodec.obj
 0004:000112fc       ??_GCD3DXCodec_R5G6B5@@UAEPAXI@Z 00549d1c f i d3dx8d:cd3dxcodec.obj
 0004:000112fc       ??_ECD3DXCodec_R5G6B5@@UAEPAXI@Z 00549d1c f i d3dx8d:cd3dxcodec.obj
 0004:00011329       ??0CD3DXCodec_X1R5G5B5@@QAE@PAUD3DX_BLT@@@Z 00549d49 f i d3dx8d:cd3dxcodec.obj
 0004:0001134f       ??_GCD3DXCodec_X1R5G5B5@@UAEPAXI@Z 00549d6f f i d3dx8d:cd3dxcodec.obj
 0004:0001134f       ??_ECD3DXCodec_X1R5G5B5@@UAEPAXI@Z 00549d6f f i d3dx8d:cd3dxcodec.obj
 0004:0001137c       ??0CD3DXCodec_A1R5G5B5@@QAE@PAUD3DX_BLT@@@Z 00549d9c f i d3dx8d:cd3dxcodec.obj
 0004:000113a2       ??_ECD3DXCodec_A1R5G5B5@@UAEPAXI@Z 00549dc2 f i d3dx8d:cd3dxcodec.obj
 0004:000113a2       ??_GCD3DXCodec_A1R5G5B5@@UAEPAXI@Z 00549dc2 f i d3dx8d:cd3dxcodec.obj
 0004:000113cf       ??0CD3DXCodec_A4R4G4B4@@QAE@PAUD3DX_BLT@@@Z 00549def f i d3dx8d:cd3dxcodec.obj
 0004:000113f5       ??_GCD3DXCodec_A4R4G4B4@@UAEPAXI@Z 00549e15 f i d3dx8d:cd3dxcodec.obj
 0004:000113f5       ??_ECD3DXCodec_A4R4G4B4@@UAEPAXI@Z 00549e15 f i d3dx8d:cd3dxcodec.obj
 0004:00011422       ??0CD3DXCodec_A8@@QAE@PAUD3DX_BLT@@@Z 00549e42 f i d3dx8d:cd3dxcodec.obj
 0004:00011448       ??_ECD3DXCodec_A8@@UAEPAXI@Z 00549e68 f i d3dx8d:cd3dxcodec.obj
 0004:00011448       ??_GCD3DXCodec_A8@@UAEPAXI@Z 00549e68 f i d3dx8d:cd3dxcodec.obj
 0004:00011475       ??0CD3DXCodec_P8@@QAE@PAUD3DX_BLT@@@Z 00549e95 f i d3dx8d:cd3dxcodec.obj
 0004:0001149b       ??_ECD3DXCodec_P8@@UAEPAXI@Z 00549ebb f i d3dx8d:cd3dxcodec.obj
 0004:0001149b       ??_GCD3DXCodec_P8@@UAEPAXI@Z 00549ebb f i d3dx8d:cd3dxcodec.obj
 0004:000114c8       ??0CD3DXCodec_L8@@QAE@PAUD3DX_BLT@@@Z 00549ee8 f i d3dx8d:cd3dxcodec.obj
 0004:000114ee       ??_ECD3DXCodec_L8@@UAEPAXI@Z 00549f0e f i d3dx8d:cd3dxcodec.obj
 0004:000114ee       ??_GCD3DXCodec_L8@@UAEPAXI@Z 00549f0e f i d3dx8d:cd3dxcodec.obj
 0004:0001151b       ??0CD3DXCodec_A8L8@@QAE@PAUD3DX_BLT@@@Z 00549f3b f i d3dx8d:cd3dxcodec.obj
 0004:00011541       ??_ECD3DXCodec_A8L8@@UAEPAXI@Z 00549f61 f i d3dx8d:cd3dxcodec.obj
 0004:00011541       ??_GCD3DXCodec_A8L8@@UAEPAXI@Z 00549f61 f i d3dx8d:cd3dxcodec.obj
 0004:0001156e       ??0CD3DXCodec_V8U8@@QAE@PAUD3DX_BLT@@@Z 00549f8e f i d3dx8d:cd3dxcodec.obj
 0004:00011594       ??_GCD3DXCodec_V8U8@@UAEPAXI@Z 00549fb4 f i d3dx8d:cd3dxcodec.obj
 0004:00011594       ??_ECD3DXCodec_V8U8@@UAEPAXI@Z 00549fb4 f i d3dx8d:cd3dxcodec.obj
 0004:000115c1       ??0CD3DXCodec_L6V5U5@@QAE@PAUD3DX_BLT@@@Z 00549fe1 f i d3dx8d:cd3dxcodec.obj
 0004:000115e7       ??_ECD3DXCodec_L6V5U5@@UAEPAXI@Z 0054a007 f i d3dx8d:cd3dxcodec.obj
 0004:000115e7       ??_GCD3DXCodec_L6V5U5@@UAEPAXI@Z 0054a007 f i d3dx8d:cd3dxcodec.obj
 0004:00011614       ??0CD3DXCodec_Q8W8V8U8@@QAE@PAUD3DX_BLT@@@Z 0054a034 f i d3dx8d:cd3dxcodec.obj
 0004:0001163a       ??_ECD3DXCodec_Q8W8V8U8@@UAEPAXI@Z 0054a05a f i d3dx8d:cd3dxcodec.obj
 0004:0001163a       ??_GCD3DXCodec_Q8W8V8U8@@UAEPAXI@Z 0054a05a f i d3dx8d:cd3dxcodec.obj
 0004:00011667       ??0CD3DXCodec_V16U16@@QAE@PAUD3DX_BLT@@@Z 0054a087 f i d3dx8d:cd3dxcodec.obj
 0004:0001168d       ??_ECD3DXCodec_V16U16@@UAEPAXI@Z 0054a0ad f i d3dx8d:cd3dxcodec.obj
 0004:0001168d       ??_GCD3DXCodec_V16U16@@UAEPAXI@Z 0054a0ad f i d3dx8d:cd3dxcodec.obj
 0004:000116ba       ??1CD3DXCodecYUV@@UAE@XZ   0054a0da f   d3dx8d:cd3dxcodec.obj
 0004:000116ef       ??1CD3DXCodecDXT@@UAE@XZ   0054a10f f   d3dx8d:cd3dxcodec.obj
 0004:00011737       ??0CD3DXCodec_UYVY@@QAE@PAUD3DX_BLT@@@Z 0054a157 f i d3dx8d:cd3dxcodec.obj
 0004:00011758       ??0CD3DXCodec_YUY2@@QAE@PAUD3DX_BLT@@@Z 0054a178 f i d3dx8d:cd3dxcodec.obj
 0004:00011779       ??0CD3DXCodec_DXT1@@QAE@PAUD3DX_BLT@@@Z 0054a199 f i d3dx8d:cd3dxcodec.obj
 0004:0001179a       ??0CD3DXCodec_DXT2@@QAE@PAUD3DX_BLT@@@Z 0054a1ba f i d3dx8d:cd3dxcodec.obj
 0004:000117bb       ??0CD3DXCodec_DXT4@@QAE@PAUD3DX_BLT@@@Z 0054a1db f i d3dx8d:cd3dxcodec.obj
 0004:000117dc       ?Create@CD3DXCodec@@SAPAV1@PAUD3DX_BLT@@@Z 0054a1fc f   d3dx8d:cd3dxcodec.obj
 0004:00011c24       ??_ECD3DXCodecYUV@@UAEPAXI@Z 0054a644 f i d3dx8d:cd3dxcodec.obj
 0004:00011c24       ??_GCD3DXCodecYUV@@UAEPAXI@Z 0054a644 f i d3dx8d:cd3dxcodec.obj
 0004:00011c54       ??_GCD3DXCodecDXT@@UAEPAXI@Z 0054a674 f i d3dx8d:cd3dxcodec.obj
 0004:00011c54       ??_ECD3DXCodecDXT@@UAEPAXI@Z 0054a674 f i d3dx8d:cd3dxcodec.obj
 0004:00011c84       ??_ECD3DXCodec_UYVY@@UAEPAXI@Z 0054a6a4 f i d3dx8d:cd3dxcodec.obj
 0004:00011c84       ??_GCD3DXCodec_UYVY@@UAEPAXI@Z 0054a6a4 f i d3dx8d:cd3dxcodec.obj
 0004:00011cb4       ??_GCD3DXCodec_YUY2@@UAEPAXI@Z 0054a6d4 f i d3dx8d:cd3dxcodec.obj
 0004:00011cb4       ??_ECD3DXCodec_YUY2@@UAEPAXI@Z 0054a6d4 f i d3dx8d:cd3dxcodec.obj
 0004:00011ce4       ??_GCD3DXCodec_DXT1@@UAEPAXI@Z 0054a704 f i d3dx8d:cd3dxcodec.obj
 0004:00011ce4       ??_ECD3DXCodec_DXT1@@UAEPAXI@Z 0054a704 f i d3dx8d:cd3dxcodec.obj
 0004:00011d14       ??_GCD3DXCodec_DXT2@@UAEPAXI@Z 0054a734 f i d3dx8d:cd3dxcodec.obj
 0004:00011d14       ??_ECD3DXCodec_DXT2@@UAEPAXI@Z 0054a734 f i d3dx8d:cd3dxcodec.obj
 0004:00011d44       ??_ECD3DXCodec_DXT4@@UAEPAXI@Z 0054a764 f i d3dx8d:cd3dxcodec.obj
 0004:00011d44       ??_GCD3DXCodec_DXT4@@UAEPAXI@Z 0054a764 f i d3dx8d:cd3dxcodec.obj
 0004:00011e30       _png_set_error_fn          0054a850 f   d3dx8d:pngerror.obj
 0004:00011e50       _png_get_error_ptr         0054a870 f   d3dx8d:pngerror.obj
 0004:00011e5d       _png_error                 0054a87d f   d3dx8d:pngerror.obj
 0004:00011e83       _png_warning               0054a8a3 f   d3dx8d:pngerror.obj
 0004:00011e9f       _png_chunk_error           0054a8bf f   d3dx8d:pngerror.obj
 0004:00011eca       _png_chunk_warning         0054a8ea f   d3dx8d:pngerror.obj
 0004:00011ef8       _jpeg_CreateDecompress     0054a918 f   d3dx8d:jdapimin.obj
 0004:00011fe9       _jpeg_destroy_decompress   0054aa09 f   d3dx8d:jdapimin.obj
 0004:00011ff4       _jpeg_abort_decompress     0054aa14 f   d3dx8d:jdapimin.obj
 0004:00011fff       _jpeg_set_marker_processor 0054aa1f f   d3dx8d:jdapimin.obj
 0004:00012242       _jpeg_consume_input        0054ac62 f   d3dx8d:jdapimin.obj
 0004:00012306       _jpeg_input_complete       0054ad26 f   d3dx8d:jdapimin.obj
 0004:0001234f       _jpeg_has_multiple_scans   0054ad6f f   d3dx8d:jdapimin.obj
 0004:00012398       _jpeg_finish_decompress    0054adb8 f   d3dx8d:jdapimin.obj
 0004:0001246c       _jpeg_read_header          0054ae8c f   d3dx8d:jdapimin.obj
 0004:000125bf       _jpeg_read_scanlines       0054afdf f   d3dx8d:jdapistd.obj
 0004:00012664       _jpeg_read_raw_data        0054b084 f   d3dx8d:jdapistd.obj
 0004:00012729       _jpeg_start_output         0054b149 f   d3dx8d:jdapistd.obj
 0004:0001279c       _jpeg_finish_output        0054b1bc f   d3dx8d:jdapistd.obj
 0004:0001283c       _jpeg_start_decompress     0054b25c f   d3dx8d:jdapistd.obj
 0004:000143d9       _jpeg_resync_to_restart    0054cdf9 f   d3dx8d:jdmarker.obj
 0004:00014539       ?jinit_marker_reader@D3DX@@YAXPAUjpeg_decompress_struct@1@@Z 0054cf59 f   d3dx8d:jdmarker.obj
 0004:00014737       _jpeg_std_error            0054d157 f   d3dx8d:jerror.obj
 0004:00014799       _png_create_read_struct    0054d1b9 f   d3dx8d:pngread.obj
 0004:000148dc       _png_read_init             0054d2fc f   d3dx8d:pngread.obj
 0004:000149cc       _png_read_info             0054d3ec f   d3dx8d:pngread.obj
 0004:00014b9b       _png_read_update_info      0054d5bb f   d3dx8d:pngread.obj
 0004:00014bc5       _png_start_read_image      0054d5e5 f   d3dx8d:pngread.obj
 0004:00014bdf       _png_read_row              0054d5ff f   d3dx8d:pngread.obj
 0004:0001506f       _png_read_rows             0054da8f f   d3dx8d:pngread.obj
 0004:00015107       _png_read_image            0054db27 f   d3dx8d:pngread.obj
 0004:00015167       _png_read_end              0054db87 f   d3dx8d:pngread.obj
 0004:000152a7       _png_read_destroy          0054dcc7 f   d3dx8d:pngread.obj
 0004:00015412       _png_set_read_status_fn    0054de32 f   d3dx8d:pngread.obj
 0004:00015427       _png_destroy_read_struct   0054de47 f   d3dx8d:pngread.obj
 0004:000154c8       _png_get_valid             0054dee8 f   d3dx8d:pngget.obj
 0004:000154eb       _png_get_rowbytes          0054df0b f   d3dx8d:pngget.obj
 0004:0001550a       _png_get_channels          0054df2a f   d3dx8d:pngget.obj
 0004:00015529       _png_get_signature         0054df49 f   d3dx8d:pngget.obj
 0004:00015548       _png_get_gAMA              0054df68 f   d3dx8d:pngget.obj
 0004:0001557d       _png_get_sRGB              0054df9d f   d3dx8d:pngget.obj
 0004:000155b5       _png_get_IHDR              0054dfd5 f   d3dx8d:pngget.obj
 0004:000156ba       _png_get_PLTE              0054e0da f   d3dx8d:pngget.obj
 0004:000156fb       _png_get_tRNS              0054e11b f   d3dx8d:pngget.obj
 0004:0001577b       _png_set_bgr               0054e19b f   d3dx8d:pngtrans.obj
 0004:0001578a       _png_set_packing           0054e1aa f   d3dx8d:pngtrans.obj
 0004:000157ad       _png_set_shift             0054e1cd f   d3dx8d:pngtrans.obj
 0004:000157ce       _png_set_interlace_handling 0054e1ee f   d3dx8d:pngtrans.obj
 0004:000157f2       _png_set_filler            0054e212 f   d3dx8d:pngtrans.obj
 0004:00015853       _png_do_bgr                0054e273 f   d3dx8d:pngtrans.obj
 0004:00015941       _png_set_crc_action        0054e361 f   d3dx8d:pngrtran.obj
 0004:000159e1       _png_set_strip_16          0054e401 f   d3dx8d:pngrtran.obj
 0004:000159f0       _png_set_dither            0054e410 f   d3dx8d:pngrtran.obj
 0004:000161d2       _png_set_gamma             0054ebf2 f   d3dx8d:pngrtran.obj
 0004:00016216       _png_set_expand            0054ec36 f   d3dx8d:pngrtran.obj
 0004:00016225       _png_set_palette_to_rgb    0054ec45 f   d3dx8d:pngrtran.obj
 0004:00016234       _png_set_gray_1_2_4_to_8   0054ec54 f   d3dx8d:pngrtran.obj
 0004:00016243       _png_set_tRNS_to_alpha     0054ec63 f   d3dx8d:pngrtran.obj
 0004:00016252       _png_read_transform_info   0054ec72 f   d3dx8d:pngrtran.obj
 0004:00016370       _png_do_unpack             0054ed90 f   d3dx8d:pngrtran.obj
 0004:000164c4       _png_do_unshift            0054eee4 f   d3dx8d:pngrtran.obj
 0004:0001669c       _png_do_chop               0054f0bc f   d3dx8d:pngrtran.obj
 0004:000166f3       _png_do_read_filler        0054f113 f   d3dx8d:pngrtran.obj
 0004:000169b1       _png_build_grayscale_palette 0054f3d1 f   d3dx8d:pngrtran.obj
 0004:00016a2b       _png_do_gamma              0054f44b f   d3dx8d:pngrtran.obj
 0004:00016e4c       _png_do_expand_palette     0054f86c f   d3dx8d:pngrtran.obj
 0004:000170d6       _png_do_expand             0054faf6 f   d3dx8d:pngrtran.obj
 0004:00017501       _png_do_dither             0054ff21 f   d3dx8d:pngrtran.obj
 0004:00017652       _png_build_gamma_table     00550072 f   d3dx8d:pngrtran.obj
 0004:00017a1f       _png_init_read_transformations 0055043f f   d3dx8d:pngrtran.obj
 0004:00017b76       _png_do_read_transformations 00550596 f   d3dx8d:pngrtran.obj
 0004:00017d7c       _png_set_gAMA              0055079c f   d3dx8d:pngset.obj
 0004:00017d9f       _png_set_IHDR              005507bf f   d3dx8d:pngset.obj
 0004:00017e68       _png_set_PLTE              00550888 f   d3dx8d:pngset.obj
 0004:00017e95       _png_set_sRGB              005508b5 f   d3dx8d:pngset.obj
 0004:00017eb8       _png_set_sRGB_gAMA_and_cHRM 005508d8 f   d3dx8d:pngset.obj
 0004:00017eff       _png_set_tRNS              0055091f f   d3dx8d:pngset.obj
 0004:00017f57       _png_permit_empty_plte     00550977 f   d3dx8d:pngset.obj
 0004:00017f71       _png_read_data             00550991 f   d3dx8d:pngrio.obj
 0004:00017fa5       _png_set_read_fn           005509c5 f   d3dx8d:pngrio.obj
 0004:00017ff5       _png_get_header_version    00550a15 f   d3dx8d:png.obj
 0004:00017ffb       _png_set_sig_bytes         00550a1b f   d3dx8d:png.obj
 0004:00018033       _png_sig_cmp               00550a53 f   d3dx8d:png.obj
 0004:0001808f       _png_check_sig             00550aaf f   d3dx8d:png.obj
 0004:000180af       _png_zalloc                00550acf f   d3dx8d:png.obj
 0004:00018118       _png_zfree                 00550b38 f   d3dx8d:png.obj
 0004:00018123       _png_reset_crc             00550b43 f   d3dx8d:png.obj
 0004:00018144       _png_calculate_crc         00550b64 f   d3dx8d:png.obj
 0004:00018195       _png_info_init             00550bb5 f   d3dx8d:png.obj
 0004:000181aa       _png_info_destroy          00550bca f   d3dx8d:png.obj
 0004:000181bf       _png_get_io_ptr            00550bdf f   d3dx8d:png.obj
 0004:000181cc       _png_get_copyright         00550bec f   d3dx8d:png.obj
 0004:000181d2       ?png_check_version@D3DX@@YAXPAUpng_struct_def@1@@Z 00550bf2 f   d3dx8d:png.obj
 0004:000181d3       _png_create_info_struct    00550bf3 f   d3dx8d:png.obj
 0004:00018207       _png_destroy_info_struct   00550c27 f   d3dx8d:png.obj
 0004:0001823a       ??0IUnknown@@QAE@XZ        00550c5a f i d3dx8d:cd3dxsprite.obj
 0004:0001823d       ?AddRef@CD3DXSprite@@UAGKXZ 00550c5d f   d3dx8d:cd3dxsprite.obj
 0004:00018251       _IsEqualGUID               00550c71 f i d3dx8d:cd3dxsprite.obj
 0004:000185b3       ?BeginStateBlock@D3DDevice@@SGJXZ 00550fd3 f i d3dx8d:cd3dxsprite.obj
 0004:000185bd       ?EndStateBlock@D3DDevice@@SGJPAK@Z 00550fdd f i d3dx8d:cd3dxsprite.obj
 0004:000185c8       ?ApplyStateBlock@D3DDevice@@SGJK@Z 00550fe8 f i d3dx8d:cd3dxsprite.obj
 0004:000185dd       ?CaptureStateBlock@D3DDevice@@SGJK@Z 00550ffd f i d3dx8d:cd3dxsprite.obj
 0004:000185f2       ?DeleteStateBlock@D3DDevice@@SGJK@Z 00551012 f i d3dx8d:cd3dxsprite.obj
 0004:00018607       _cosf                      00551027 f i d3dx8d:cd3dxsprite.obj
 0004:00018613       ??0D3DXVECTOR2@@QAE@XZ     00551033 f i d3dx8d:cd3dxsprite.obj
 0004:00018634       ??0ID3DXSprite@@QAE@XZ     00551054 f i d3dx8d:cd3dxsprite.obj
 0004:00018637       ??1CD3DXSprite@@QAE@XZ     00551057 f   d3dx8d:cd3dxsprite.obj
 0004:00018674       ?QueryInterface@CD3DXSprite@@UAGJABU_GUID@@PAPAX@Z 00551094 f   d3dx8d:cd3dxsprite.obj
 0004:000186e7       ?Initialize@CD3DXSprite@@QAEJPAUD3DDevice@@@Z 00551107 f   d3dx8d:cd3dxsprite.obj
 0004:00018c56       ?GetDevice@CD3DXSprite@@UAGJPAPAUD3DDevice@@@Z 00551676 f   d3dx8d:cd3dxsprite.obj
 0004:00018c93       ?Begin@CD3DXSprite@@UAGJXZ 005516b3 f   d3dx8d:cd3dxsprite.obj
 0004:00018ce3       ?Draw@CD3DXSprite@@UAGJPAUD3DTexture@@PBUtagRECT@@PBUD3DXVECTOR2@@2M2K@Z 00551703 f   d3dx8d:cd3dxsprite.obj
 0004:00018df9       ??0SPRITE_VERTEX@@QAE@XZ   00551819 f i d3dx8d:cd3dxsprite.obj
 0004:00018dfc       ?End@CD3DXSprite@@UAGJXZ   0055181c f   d3dx8d:cd3dxsprite.obj
 0004:00018e3e       ??0CD3DXSprite@@QAE@XZ     0055185e f   d3dx8d:cd3dxsprite.obj
 0004:00018e63       ?Release@CD3DXSprite@@UAGKXZ 00551883 f   d3dx8d:cd3dxsprite.obj
 0004:00018e84       ?DrawTransform@CD3DXSprite@@UAGJPAUD3DTexture@@PBUtagRECT@@PBUD3DXMATRIX@@K@Z 005518a4 f   d3dx8d:cd3dxsprite.obj
 0004:00019231       ?AddRef@CD3DXRenderToSurface@@UAGKXZ 00551c51 f   d3dx8d:cd3dxrendertosurface.obj
 0004:00019245       _==                        00551c65 f i d3dx8d:cd3dxrendertosurface.obj
 0004:00019264       ?GetDesc@CD3DXRenderToSurface@@UAGJPAU_D3DXRTS_DESC@@@Z 00551c84 f   d3dx8d:cd3dxrendertosurface.obj
 0004:000192a5       ?CreateRenderTarget@D3DDevice@@SGJIIW4_D3DFORMAT@@KHPAPAUD3DSurface@@@Z 00551cc5 f i d3dx8d:cd3dxrendertosurface.obj
 0004:000192d9       ?CreateDepthStencilSurface@D3DDevice@@SGJIIW4_D3DFORMAT@@KPAPAUD3DSurface@@@Z 00551cf9 f i d3dx8d:cd3dxrendertosurface.obj
 0004:0001930d       ?CopyRects@D3DDevice@@SGJPAUD3DSurface@@PBUtagRECT@@I0PBUtagPOINT@@@Z 00551d2d f i d3dx8d:cd3dxrendertosurface.obj
 0004:00019331       ?SetRenderTarget@D3DDevice@@SGJPAUD3DSurface@@0@Z 00551d51 f i d3dx8d:cd3dxrendertosurface.obj
 0004:0001934a       ?BeginScene@D3DDevice@@SGJXZ 00551d6a f i d3dx8d:cd3dxrendertosurface.obj
 0004:0001934d       ?EndScene@D3DDevice@@SGJXZ 00551d6d f i d3dx8d:cd3dxrendertosurface.obj
 0004:00019350       ?SetViewport@D3DDevice@@SGJPBU_D3DVIEWPORT8@@@Z 00551d70 f i d3dx8d:cd3dxrendertosurface.obj
 0004:0001938c       ??0ID3DXRenderToSurface@@QAE@XZ 00551dac f i d3dx8d:cd3dxrendertosurface.obj
 0004:0001938f       ??1CD3DXRenderToSurface@@QAE@XZ 00551daf f   d3dx8d:cd3dxrendertosurface.obj
 0004:00019426       ?Init@CD3DXRenderToSurface@@QAEJPAUD3DDevice@@IIW4_D3DFORMAT@@H1@Z 00551e46 f   d3dx8d:cd3dxrendertosurface.obj
 0004:00019497       ?QueryInterface@CD3DXRenderToSurface@@UAGJABU_GUID@@PAPAX@Z 00551eb7 f   d3dx8d:cd3dxrendertosurface.obj
 0004:000194ef       ?GetDevice@CD3DXRenderToSurface@@UAGJPAPAUD3DDevice@@@Z 00551f0f f   d3dx8d:cd3dxrendertosurface.obj
 0004:0001952c       ?BeginScene@CD3DXRenderToSurface@@UAGJPAUD3DSurface@@PBU_D3DVIEWPORT8@@@Z 00551f4c f   d3dx8d:cd3dxrendertosurface.obj
 0004:000197ae       ?EndScene@CD3DXRenderToSurface@@UAGJXZ 005521ce f   d3dx8d:cd3dxrendertosurface.obj
 0004:0001987d       ??0CD3DXRenderToSurface@@QAE@XZ 0055229d f   d3dx8d:cd3dxrendertosurface.obj
 0004:000198ad       ?Release@CD3DXRenderToSurface@@UAGKXZ 005522cd f   d3dx8d:cd3dxrendertosurface.obj
 0004:000198d7       ?RenderSphere@CD3DXRenderToEnvMap@@QAEJXZ 005522f7 f   d3dx8d:cd3dxrendertoenvmap.obj
 0004:000198dd       ?RenderHemisphere@CD3DXRenderToEnvMap@@QAEJXZ 005522fd f   d3dx8d:cd3dxrendertoenvmap.obj
 0004:000198e3       ?RenderParabolic@CD3DXRenderToEnvMap@@QAEJXZ 00552303 f   d3dx8d:cd3dxrendertoenvmap.obj
 0004:000198e9       ?QueryInterface@CD3DXRenderToEnvMap@@UAGJABU_GUID@@PAPAX@Z 00552309 f   d3dx8d:cd3dxrendertoenvmap.obj
 0004:00019941       ?AddRef@CD3DXRenderToEnvMap@@UAGKXZ 00552361 f   d3dx8d:cd3dxrendertoenvmap.obj
 0004:00019955       ?GetDesc@CD3DXRenderToEnvMap@@UAGJPAU_D3DXRTE_DESC@@@Z 00552375 f   d3dx8d:cd3dxrendertoenvmap.obj
 0004:000199b3       ??0ID3DXRenderToEnvMap@@QAE@XZ 005523d3 f i d3dx8d:cd3dxrendertoenvmap.obj
 0004:000199b6       ??1CD3DXRenderToEnvMap@@QAE@XZ 005523d6 f   d3dx8d:cd3dxrendertoenvmap.obj
 0004:00019aa4       ?Init@CD3DXRenderToEnvMap@@QAEJPAUD3DDevice@@IW4_D3DFORMAT@@H1@Z 005524c4 f   d3dx8d:cd3dxrendertoenvmap.obj
 0004:00019b46       ?Begin@CD3DXRenderToEnvMap@@QAEJXZ 00552566 f   d3dx8d:cd3dxrendertoenvmap.obj
 0004:00019bad       ?BeginScene@CD3DXRenderToEnvMap@@QAEJW4_D3DCUBEMAP_FACES@@@Z 005525cd f   d3dx8d:cd3dxrendertoenvmap.obj
 0004:00019d88       ?EndScene@CD3DXRenderToEnvMap@@QAEJXZ 005527a8 f   d3dx8d:cd3dxrendertoenvmap.obj
 0004:00019e05       ?GetDevice@CD3DXRenderToEnvMap@@UAGJPAPAUD3DDevice@@@Z 00552825 f   d3dx8d:cd3dxrendertoenvmap.obj
 0004:00019e42       ?BeginCube@CD3DXRenderToEnvMap@@UAGJPAUD3DCubeTexture@@@Z 00552862 f   d3dx8d:cd3dxrendertoenvmap.obj
 0004:00019efb       ?BeginSphere@CD3DXRenderToEnvMap@@UAGJPAUD3DTexture@@@Z 0055291b f   d3dx8d:cd3dxrendertoenvmap.obj
 0004:00019f74       ?BeginHemisphere@CD3DXRenderToEnvMap@@UAGJPAUD3DTexture@@0@Z 00552994 f   d3dx8d:cd3dxrendertoenvmap.obj
 0004:0001a014       ?BeginParabolic@CD3DXRenderToEnvMap@@UAGJPAUD3DTexture@@0@Z 00552a34 f   d3dx8d:cd3dxrendertoenvmap.obj
 0004:0001a0b9       ?Face@CD3DXRenderToEnvMap@@UAGJW4_D3DCUBEMAP_FACES@@@Z 00552ad9 f   d3dx8d:cd3dxrendertoenvmap.obj
 0004:0001a0e6       ?End@CD3DXRenderToEnvMap@@UAGJXZ 00552b06 f   d3dx8d:cd3dxrendertoenvmap.obj
 0004:0001a1c8       ??0CD3DXRenderToEnvMap@@QAE@XZ 00552be8 f   d3dx8d:cd3dxrendertoenvmap.obj
 0004:0001a21a       ?Release@CD3DXRenderToEnvMap@@UAGKXZ 00552c3a f   d3dx8d:cd3dxrendertoenvmap.obj
 0004:0001a244       ?XXEncodeBlockRGB@@YAXQAUS3TC_COLOR@@PAUS3TCBlockRGB@@@Z 00552c64 f   d3dx8d:s3tchelp.obj
 0004:0001a2c9       ?XXDecodeBlockRGB@@YAXPAUS3TCBlockRGB@@QAUS3TC_COLOR@@@Z 00552ce9 f   d3dx8d:s3tchelp.obj
 0004:0001a788       ?DecodeBlockRGB@@YAXPAUS3TCBlockRGB@@QAUS3TC_COLOR@@@Z 005531a8 f   d3dx8d:s3tc.obj
 0004:0001a8a6       ?DecodeBlockAlpha4@@YAXPAUS3TCBlockAlpha4@@QAUS3TC_COLOR@@@Z 005532c6 f   d3dx8d:s3tc.obj
 0004:0001a907       ?DecodeBlockAlpha3@@YAXPAUS3TCBlockAlpha3@@QAUS3TC_COLOR@@@Z 00553327 f   d3dx8d:s3tc.obj
 0004:0001aa47       ?sqrt@@YAMM@Z              00553467 f i d3dx8d:s3tc.obj
 0004:0001aa53       ?EncodeBlockRGBColorKey@@YAXQAUS3TC_COLOR@@PAUS3TCBlockRGB@@U1@2@Z 00553473 f   d3dx8d:s3tc.obj
 0004:0001b027       ?EncodeBlockRGB@@YAXQAUS3TC_COLOR@@PAUS3TCBlockRGB@@@Z 00553a47 f   d3dx8d:s3tc.obj
 0004:0001b065       ?EncodeBlockAlpha4@@YAXQAUS3TC_COLOR@@PAUS3TCBlockAlpha4@@@Z 00553a85 f   d3dx8d:s3tc.obj
 0004:0001b0d4       ?EncodeBlockAlpha3@@YAXQAUS3TC_COLOR@@PAUS3TCBlockAlpha3@@@Z 00553af4 f   d3dx8d:s3tc.obj
 0004:0001b27f       ?jdiv_round_up@D3DX@@YAJJJ@Z 00553c9f f   d3dx8d:jutils.obj
 0004:0001b295       ?jround_up@D3DX@@YAJJJ@Z   00553cb5 f   d3dx8d:jutils.obj
 0004:0001b2b5       ?jcopy_sample_rows@D3DX@@YAXPAPAEH0HHI@Z 00553cd5 f   d3dx8d:jutils.obj
 0004:0001b30d       ?jcopy_block_row@D3DX@@YAXPAY0EA@F0I@Z 00553d2d f   d3dx8d:jutils.obj
 0004:0001b338       ?jzero_far@D3DX@@YAXPAXI@Z 00553d58 f   d3dx8d:jutils.obj
 0004:0001b35c       ?IsMMX@D3DX@@YAHXZ         00553d7c f   d3dx8d:jutils.obj
 0004:0001b9b4       ?jinit_input_controller@D3DX@@YAXPAUjpeg_decompress_struct@1@@Z 005543d4 f   d3dx8d:jdinput.obj
 0004:0001c5d9       ?jinit_memory_mgr@D3DX@@YAXPAUjpeg_common_struct@1@@Z 00554ff9 f   d3dx8d:jmemmgr.obj
 0004:0001c6bd       _jpeg_abort                005550dd f   d3dx8d:jcomapi.obj
 0004:0001c6eb       _jpeg_destroy              0055510b f   d3dx8d:jcomapi.obj
 0004:0001c710       _jpeg_alloc_quant_table    00555130 f   d3dx8d:jcomapi.obj
 0004:0001c736       _jpeg_alloc_huff_table     00555156 f   d3dx8d:jcomapi.obj
 0004:0001c7e9       _jpeg_calc_output_dimensions 00555209 f   d3dx8d:jdmaster.obj
 0004:0001ce9e       _jpeg_new_colormap         005558be f   d3dx8d:jdmaster.obj
 0004:0001cf1d       ?jinit_master_decompress@D3DX@@YAXPAUjpeg_decompress_struct@1@@Z 0055593d f   d3dx8d:jdmaster.obj
 0004:0001cf5c       _inflateReset              0055597c f   d3dx8d:inflate.obj
 0004:0001cfaf       _inflateEnd                005559cf f   d3dx8d:inflate.obj
 0004:0001d000       _inflateInit2_             00555a20 f   d3dx8d:inflate.obj
 0004:0001d11e       _inflateInit_              00555b3e f   d3dx8d:inflate.obj
 0004:0001d13c       _inflate                   00555b5c f   d3dx8d:inflate.obj
 0004:0001d58e       _inflateSetDictionary      00555fae f   d3dx8d:inflate.obj
 0004:0001d625       _inflateSync               00556045 f   d3dx8d:inflate.obj
 0004:0001d6fe       _inflateSyncPoint          0055611e f   d3dx8d:inflate.obj
 0004:0001d72d       _png_create_struct         0055614d f   d3dx8d:pngmem.obj
 0004:0001d787       _png_destroy_struct        005561a7 f   d3dx8d:pngmem.obj
 0004:0001d7a5       _png_malloc                005561c5 f   d3dx8d:pngmem.obj
 0004:0001d7ee       _png_free                  0055620e f   d3dx8d:pngmem.obj
 0004:0001d813       _png_memcpy_check          00556233 f   d3dx8d:pngmem.obj
 0004:0001d840       _png_memset_check          00556260 f   d3dx8d:pngmem.obj
 0004:0001d87e       _png_get_uint_32           0055629e f   d3dx8d:pngrutil.obj
 0004:0001d8ad       _png_get_uint_16           005562cd f   d3dx8d:pngrutil.obj
 0004:0001d8c8       _png_crc_read              005562e8 f   d3dx8d:pngrutil.obj
 0004:0001d8e8       _png_crc_error             00556308 f   d3dx8d:pngrutil.obj
 0004:0001d95d       _png_check_chunk_name      0055637d f   d3dx8d:pngrutil.obj
 0004:0001d9da       _png_combine_row           005563fa f   d3dx8d:pngrutil.obj
 0004:0001dc75       _png_do_read_interlace     00556695 f   d3dx8d:pngrutil.obj
 0004:0001dff0       _png_read_filter_row       00556a10 f   d3dx8d:pngrutil.obj
 0004:0001e1c7       _png_read_start_row        00556be7 f   d3dx8d:pngrutil.obj
 0004:0001e3cd       _png_crc_finish            00556ded f   d3dx8d:pngrutil.obj
 0004:0001e47e       _png_handle_IHDR           00556e9e f   d3dx8d:pngrutil.obj
 0004:0001e6f1       _png_handle_PLTE           00557111 f   d3dx8d:pngrutil.obj
 0004:0001e865       _png_handle_IEND           00557285 f   d3dx8d:pngrutil.obj
 0004:0001e8c1       _png_handle_gAMA           005572e1 f   d3dx8d:pngrutil.obj
 0004:0001ea0e       _png_handle_sRGB           0055742e f   d3dx8d:pngrutil.obj
 0004:0001eb38       _png_handle_tRNS           00557558 f   d3dx8d:pngrutil.obj
 0004:0001ed59       _png_handle_unknown        00557779 f   d3dx8d:pngrutil.obj
 0004:0001edb6       _png_read_finish_row       005577d6 f   d3dx8d:pngrutil.obj
 0004:0001f06d       _get_crc_table             00557a8d f   d3dx8d:crc32.obj
 0004:0001f073       _crc32                     00557a93 f   d3dx8d:crc32.obj
 0004:0001f1a0       ?jpeg_get_small@D3DX@@YAPAXPAUjpeg_common_struct@1@I@Z 00557bc0 f   d3dx8d:jmemnobs.obj
 0004:0001f1b6       ?jpeg_free_small@D3DX@@YAXPAUjpeg_common_struct@1@PAXI@Z 00557bd6 f   d3dx8d:jmemnobs.obj
 0004:0001f1cc       ?jpeg_get_large@D3DX@@YAPAXPAUjpeg_common_struct@1@I@Z 00557bec f   d3dx8d:jmemnobs.obj
 0004:0001f1e2       ?jpeg_free_large@D3DX@@YAXPAUjpeg_common_struct@1@PAXI@Z 00557c02 f   d3dx8d:jmemnobs.obj
 0004:0001f1f8       ?jpeg_mem_available@D3DX@@YAJPAUjpeg_common_struct@1@JJJ@Z 00557c18 f   d3dx8d:jmemnobs.obj
 0004:0001f202       ?jpeg_open_backing_store@D3DX@@YAXPAUjpeg_common_struct@1@PAUbacking_store_struct@1@J@Z 00557c22 f   d3dx8d:jmemnobs.obj
 0004:0001f21e       ?jpeg_mem_init@D3DX@@YAJPAUjpeg_common_struct@1@@Z 00557c3e f   d3dx8d:jmemnobs.obj
 0004:0001f221       ?jpeg_mem_term@D3DX@@YAXPAUjpeg_common_struct@1@@Z 00557c41 f   d3dx8d:jmemnobs.obj
 0004:0001f8b0       ?jinit_d_main_controller@D3DX@@YAXPAUjpeg_decompress_struct@1@E@Z 005582d0 f   d3dx8d:jdmainct.obj
 0004:0002080c       ?jinit_d_coef_controller@D3DX@@YAXPAUjpeg_decompress_struct@1@E@Z 0055922c f   d3dx8d:jdcoefct.obj
 0004:00020942       ?jpeg_make_d_derived_tbl@D3DX@@YAXPAUjpeg_decompress_struct@1@PAUJHUFF_TBL@1@PAPAUd_derived_tbl@1@@Z 00559362 f   d3dx8d:jdhuff.obj
 0004:00020b56       ?jpeg_fill_bit_buffer@D3DX@@YAEPAUbitread_working_state@1@JHH@Z 00559576 f   d3dx8d:jdhuff.obj
 0004:00020c7a       ?jpeg_huff_decode@D3DX@@YAHPAUbitread_working_state@1@JHPAUd_derived_tbl@1@H@Z 0055969a f   d3dx8d:jdhuff.obj
 0004:0002144e       ?jinit_huff_decoder@D3DX@@YAXPAUjpeg_decompress_struct@1@@Z 00559e6e f   d3dx8d:jdhuff.obj
 0004:000222e6       ?jinit_phuff_decoder@D3DX@@YAXPAUjpeg_decompress_struct@1@@Z 0055ad06 f   d3dx8d:jdphuff.obj
 0004:00022587       ?jinit_inverse_dct@D3DX@@YAXPAUjpeg_decompress_struct@1@@Z 0055afa7 f   d3dx8d:jddctmgr.obj
 0004:000228cb       ?jinit_d_post_controller@D3DX@@YAXPAUjpeg_decompress_struct@1@E@Z 0055b2eb f   d3dx8d:jdpostct.obj
 0004:00022ec1       ?jinit_upsampler@D3DX@@YAXPAUjpeg_decompress_struct@1@@Z 0055b8e1 f   d3dx8d:jdsample.obj
 0004:000233fa       ?MYCbCr2RGB@D3DX@@YAXHPAE000@Z 0055be1a f   d3dx8d:jdcolor.obj
 0004:00023585       ?MYCbCrA2RGBA@D3DX@@YAXHPAE0000@Z 0055bfa5 f   d3dx8d:jdcolor.obj
 0004:000236fe       ?MYCbCrA2RGBALegacy@D3DX@@YAXHPAE0000@Z 0055c11e f   d3dx8d:jdcolor.obj
 0004:00023b2e       ?jinit_color_deconverter@D3DX@@YAXPAUjpeg_decompress_struct@1@@Z 0055c54e f   d3dx8d:jdcolor.obj
 0004:000242a8       ?jinit_merged_upsampler@D3DX@@YAXPAUjpeg_decompress_struct@1@@Z 0055ccc8 f   d3dx8d:jdmerge.obj
 0004:00025661       ?jinit_2pass_quantizer@D3DX@@YAXPAUjpeg_decompress_struct@1@@Z 0055e081 f   d3dx8d:jquant2.obj
 0004:00026465       ?jinit_1pass_quantizer@D3DX@@YAXPAUjpeg_decompress_struct@1@@Z 0055ee85 f   d3dx8d:jquant1.obj
 0004:00026511       ?inflate_blocks_reset@D3DX@@YAXPAUinflate_blocks_state@1@PAUz_stream_s@1@PAK@Z 0055ef31 f   d3dx8d:infblock.obj
 0004:00026598       ?inflate_blocks_new@D3DX@@YAPAUinflate_blocks_state@1@PAUz_stream_s@1@P6AKKPBEI@ZI@Z 0055efb8 f   d3dx8d:infblock.obj
 0004:00026649       ?inflate_blocks@D3DX@@YAHPAUinflate_blocks_state@1@PAUz_stream_s@1@H@Z 0055f069 f   d3dx8d:infblock.obj
 0004:00026fca       ?inflate_blocks_free@D3DX@@YAHPAUinflate_blocks_state@1@PAUz_stream_s@1@@Z 0055f9ea f   d3dx8d:infblock.obj
 0004:0002700d       ?inflate_set_dictionary@D3DX@@YAXPAUinflate_blocks_state@1@PBEI@Z 0055fa2d f   d3dx8d:infblock.obj
 0004:0002704b       ?inflate_blocks_sync_point@D3DX@@YAHPAUinflate_blocks_state@1@@Z 0055fa6b f   d3dx8d:infblock.obj
 0004:0002705f       _adler32                   0055fa7f f   d3dx8d:adler32.obj
 0004:000271be       _zlibVersion               0055fbde f   d3dx8d:zutil.obj
 0004:000271c4       _zError                    0055fbe4 f   d3dx8d:zutil.obj
 0004:000271dd       ?zcalloc@D3DX@@YAPAXPAXII@Z 0055fbfd f   d3dx8d:zutil.obj
 0004:000271f9       ?zcfree@D3DX@@YAXPAX0@Z    0055fc19 f   d3dx8d:zutil.obj
 0004:0002720f       ?jpeg_idct_4x4@D3DX@@YAXPAUjpeg_decompress_struct@1@PAUjpeg_component_info@1@PAFPAPAEI@Z 0055fc2f f   d3dx8d:jidctred.obj
 0004:000275e9       ?jpeg_idct_2x2@D3DX@@YAXPAUjpeg_decompress_struct@1@PAUjpeg_component_info@1@PAFPAPAEI@Z 00560009 f   d3dx8d:jidctred.obj
 0004:00027816       ?jpeg_idct_1x1@D3DX@@YAXPAUjpeg_decompress_struct@1@PAUjpeg_component_info@1@PAFPAPAEI@Z 00560236 f   d3dx8d:jidctred.obj
 0004:00027862       ?jpeg_idct_islow@D3DX@@YAXPAUjpeg_decompress_struct@1@PAUjpeg_component_info@1@PAFPAPAEI@Z 00560282 f   d3dx8d:jidctint.obj
 0004:000278c1       ?jpeg_idct_ifast@D3DX@@YAXPAUjpeg_decompress_struct@1@PAUjpeg_component_info@1@PAFPAPAEI@Z 005602e1 f   d3dx8d:jidctfst.obj
 0004:00027920       ?jpeg_idct_float@D3DX@@YAXPAUjpeg_decompress_struct@1@PAUjpeg_component_info@1@PAFPAPAEI@Z 00560340 f   d3dx8d:jidctflt.obj
 0004:00027de7       ?inflate_codes_new@D3DX@@YAPAUinflate_codes_state@1@IIPAUinflate_huft_s@1@0PAUz_stream_s@1@@Z 00560807 f   d3dx8d:infcodes.obj
 0004:00027e28       ?inflate_codes@D3DX@@YAHPAUinflate_blocks_state@1@PAUz_stream_s@1@H@Z 00560848 f   d3dx8d:infcodes.obj
 0004:000284e5       ?inflate_codes_free@D3DX@@YAXPAUinflate_codes_state@1@PAUz_stream_s@1@@Z 00560f05 f   d3dx8d:infcodes.obj
 0004:00028970       ?inflate_trees_bits@D3DX@@YAHPAI0PAPAUinflate_huft_s@1@PAU21@PAUz_stream_s@1@@Z 00561390 f   d3dx8d:inftrees.obj
 0004:00028a0e       ?inflate_trees_dynamic@D3DX@@YAHIIPAI00PAPAUinflate_huft_s@1@1PAU21@PAUz_stream_s@1@@Z 0056142e f   d3dx8d:inftrees.obj
 0004:00028b51       ?inflate_trees_fixed@D3DX@@YAHPAI0PAPAUinflate_huft_s@1@1PAUz_stream_s@1@@Z 00561571 f   d3dx8d:inftrees.obj
 0004:00028b8b       ?inflate_flush@D3DX@@YAHPAUinflate_blocks_state@1@PAUz_stream_s@1@H@Z 005615ab f   d3dx8d:infutil.obj
 0004:00028ce5       ?pidct8x8llm@D3DX@@YAXPAF00PAPAEIPAE@Z 00561705 f   d3dx8d:piint.obj
 0004:00029281       ?midct8x8llm@D3DX@@YAXPAF00PAPAEIPAE@Z 00561ca1 f   d3dx8d:miint.obj
 0004:00029b51       ?pidct8x8aan@D3DX@@YAXPAF00PAPAEIPAE@Z 00562571 f   d3dx8d:pifst.obj
 0004:00029f8f       ?midct8x8aan@D3DX@@YAXPAF00PAPAEIPAE@Z 005629af f   d3dx8d:mifst.obj
 0004:0002b0a9       ?inflate_fast@D3DX@@YAHIIPAUinflate_huft_s@1@0PAUinflate_blocks_state@1@PAUz_stream_s@1@@Z 00563ac9 f   d3dx8d:inffast.obj
 0004:0002c558       ??_C@_0BK@IPDFBDJG@Pool?5parameter?5is?5invalid?$AA@ 00564f78     d3dx8d:d3dx8tex.obj
 0004:0002c578       ??_C@_0BL@LKCMLIEH@Usage?5parameter?5is?5invalid?$AA@ 00564f98     d3dx8d:d3dx8tex.obj
 0004:0002c598       ??_C@_0BL@NAHOCEEG@pDevice?5pointer?5is?5invalid?$AA@ 00564fb8     d3dx8d:d3dx8tex.obj
 0004:0002c5b8       ??_C@_0BJ@FGBNAFLK@Invalid?5destination?5rect?$AA@ 00564fd8     d3dx8d:d3dx8tex.obj
 0004:0002c5d8       ??_C@_0BM@DHBPAGHJ@pSrcRect?5pointer?5is?5invalid?$AA@ 00564ff8     d3dx8d:d3dx8tex.obj
 0004:0002c5fc       ??_C@_0BO@NACGEJHH@pSrcMemory?5pointer?5is?5invalid?$AA@ 0056501c     d3dx8d:d3dx8tex.obj
 0004:0002c620       ??_C@_0CA@GAFGIFHP@pDestSurface?5pointer?5is?5invalid?$AA@ 00565040     d3dx8d:d3dx8tex.obj
 0004:0002c648       ??_C@_0DF@PJFGLCNO@See?5bundler?5tool?5in?5XDK?5for?5exam@ 00565068     d3dx8d:d3dx8tex.obj
 0004:0002c688       ??_C@_05FNDDNIOJ@D3DX8?$AA@ 005650a8     d3dx8d:d3dx8tex.obj
 0004:0002c690       ??_C@_0DI@GDEIBKLD@Loading?5from?5resource?5is?5more?5ef@ 005650b0     d3dx8d:d3dx8tex.obj
 0004:0002c6d4       ??_C@_0BI@NBBDFMD@Invalid?5destination?5box?$AA@ 005650f4     d3dx8d:d3dx8tex.obj
 0004:0002c6f0       ??_C@_0BL@NBIOAEKH@pSrcBox?5pointer?5is?5invalid?$AA@ 00565110     d3dx8d:d3dx8tex.obj
 0004:0002c710       ??_C@_0BP@KGJAPLKM@pDestVolume?5pointer?5is?5invalid?$AA@ 00565130     d3dx8d:d3dx8tex.obj
 0004:0002c738       ??_C@_0BF@OFMJCPNJ@CreateTexture?5failed?$AA@ 00565158     d3dx8d:d3dx8tex.obj
 0004:0002c754       ??_C@_0BN@FOGPOKOI@ppTexture?5pointer?5is?5invalid?$AA@ 00565174     d3dx8d:d3dx8tex.obj
 0004:0002c778       ??_C@_0BJ@OOBOJBBH@CreateCubeTexture?5failed?$AA@ 00565198     d3dx8d:d3dx8tex.obj
 0004:0002c798       ??_C@_0CB@BJPHCGCD@ppCubeTexture?5pointer?5is?5invalid@ 005651b8     d3dx8d:d3dx8tex.obj
 0004:0002c7c0       ??_C@_0BL@EFCLNABL@CreateVolumeTexture?5failed?$AA@ 005651e0     d3dx8d:d3dx8tex.obj
 0004:0002c7e0       ??_C@_0CD@DKEJPLKG@ppVolumeTexture?5pointer?5is?5inval@ 00565200     d3dx8d:d3dx8tex.obj
 0004:0002c80c       ??_C@_0DI@HAAAFEAI@Source?5surface?5data?5?$CIpvSrcData?5o@ 0056522c     d3dx8d:d3dx8tex.obj
 0004:0002c850       ??_C@_0BE@CNELHOPC@Invalid?5source?5rect?$AA@ 00565270     d3dx8d:d3dx8tex.obj
 0004:0002c868       ??_C@_0BP@PEJBLDFJ@pSrcSurface?5pointer?5is?5invalid?$AA@ 00565288     d3dx8d:d3dx8tex.obj
 0004:0002c890       ??_C@_0BD@OKEBNDAJ@Invalid?5source?5box?$AA@ 005652b0     d3dx8d:d3dx8tex.obj
 0004:0002c8a8       ??_C@_0BO@FJNFJCF@pSrcVolume?5pointer?5is?5invalid?$AA@ 005652c8     d3dx8d:d3dx8tex.obj
 0004:0002c8cc       ??_C@_0DD@IJKCCHPD@uSrcLevel?5larger?5than?5num?5Mip?5le@ 005652ec     d3dx8d:d3dx8tex.obj
 0004:0002c90c       ??_C@_0BM@PDNCPHLO@pTexture?5pointer?5is?5invalid?$AA@ 0056532c     d3dx8d:d3dx8tex.obj
 0004:0002c930       ??_C@_0CA@BKGDEJNO@pCubeTexture?5pointer?5is?5invalid?$AA@ 00565350     d3dx8d:d3dx8tex.obj
 0004:0002c958       ??_C@_0DC@EALKJEHI@uSrcLevel?5larger?5than?5num?5Mip?5le@ 00565378     d3dx8d:d3dx8tex.obj
 0004:0002c994       ??_C@_0CC@EGFGBLAL@pVolumeTexture?5pointer?5is?5invali@ 005653b4     d3dx8d:d3dx8tex.obj
 0004:0002c9bc       ??_C@_0BL@BNHEOBOI@cbSrcData?5value?5is?5invalid?$AA@ 005653dc     d3dx8d:d3dx8tex.obj
 0004:0002c9dc       ??_C@_0BN@FKPNHIFH@pvSrcData?5pointer?5is?5invalid?$AA@ 005653fc     d3dx8d:d3dx8tex.obj
 0004:0002ca00       ??_C@_0CF@EBCPKGG@File?5does?5not?5contain?5a?5cube?5tex@ 00565420     d3dx8d:d3dx8tex.obj
 0004:0002ca2c       ??_C@_0CG@OMGKFJCC@Invalid?5parameter?5in?5D3DXVecd2He@ 0056544c     d3dx8d:d3dxmath.obj
 0004:0002ca5c       ??_C@_0CI@FOMPKKNM@Invalid?5parameter?5in?5D3DXVec2Cat@ 0056547c     d3dx8d:d3dxmath.obj
 0004:0002ca8c       ??_C@_0CJ@LOJCAEFJ@Invalid?5Parameter?5in?5D3DXVec2Bar@ 005654ac     d3dx8d:d3dxmath.obj
 0004:0002cac0       ??_C@_0CH@PEHHGCDL@Invalid?5Parameter?5in?5D3DXVec2Tra@ 005654e0     d3dx8d:d3dxmath.obj
 0004:0002caf0       ??_C@_0CN@OOPPDKAM@Invalid?5Parameter?5in?5D3DXVec2Tra@ 00565510     d3dx8d:d3dxmath.obj
 0004:0002cb28       ??_C@_0CF@FDHMMCPC@Invalid?5Parameter?5in?5D3DXVec3Her@ 00565548     d3dx8d:d3dxmath.obj
 0004:0002cb54       ??_C@_0CI@PPNIDLGB@Invalid?5Parameter?5in?5D3DXVec3Cat@ 00565574     d3dx8d:d3dxmath.obj
 0004:0002cb84       ??_C@_0CJ@GDAENNNM@Invalid?5Parameter?5in?5D3DXVec3Bar@ 005655a4     d3dx8d:d3dxmath.obj
 0004:0002cbb8       ??_C@_0CH@DFPJLNPL@Invalid?5Parameter?5in?5D3DXVec3Tra@ 005655d8     d3dx8d:d3dxmath.obj
 0004:0002cbe8       ??_C@_0CN@GJFJPBEP@Invalid?5Parameter?5in?5D3DXVec3Tra@ 00565608     d3dx8d:d3dxmath.obj
 0004:0002cc20       ??_C@_0CF@DHBNKPDL@Invalid?5Parameter?5in?5D3DXVec4Her@ 00565640     d3dx8d:d3dxmath.obj
 0004:0002cc4c       ??_C@_0CI@ILEANCOO@Invalid?5Parameter?5in?5D3DXVec4Cat@ 0056566c     d3dx8d:d3dxmath.obj
 0004:0002cc7c       ??_C@_0CJ@BOHHNLIE@Invalid?5Parameter?5in?5D3DXVec4Bar@ 0056569c     d3dx8d:d3dxmath.obj
 0004:0002ccb0       ??_C@_0CH@BMMCKIHI@Invalid?5Parameter?5in?5D3DXVec4Tra@ 005656d0     d3dx8d:d3dxmath.obj
 0004:0002cce0       ??_C@_0CJ@FMOKJDNK@Invalid?5Parameter?5in?5D3DXMatrixT@ 00565700     d3dx8d:d3dxmath.obj
 0004:0002cd14       ??_C@_0CH@ONDJGMFL@Invalid?5Parameter?5in?5D3DXMatrixI@ 00565734     d3dx8d:d3dxmath.obj
 0004:0002cd44       ??_C@_0CH@NDIGPCBF@Invalid?5Parameter?5in?5D3DXMatrixS@ 00565764     d3dx8d:d3dxmath.obj
 0004:0002cd74       ??_C@_0CL@MIKGINNH@Invalid?5Parameter?5in?5D3DXMatrixT@ 00565794     d3dx8d:d3dxmath.obj
 0004:0002cda8       ??_C@_0CJ@MAILLEML@Invalid?5Parameter?5in?5D3DXMatrixR@ 005657c8     d3dx8d:d3dxmath.obj
 0004:0002cddc       ??_C@_0CJ@NJJAIFIK@Invalid?5Parameter?5in?5D3DXMatrixR@ 005657fc     d3dx8d:d3dxmath.obj
 0004:0002ce10       ??_C@_0CJ@PCLNNGEJ@Invalid?5Parameter?5in?5D3DXMatrixR@ 00565830     d3dx8d:d3dxmath.obj
 0004:0002ce44       ??_C@_0DC@LMEFOLLJ@Invalid?5Parameter?5in?5D3DXMatrixR@ 00565864     d3dx8d:d3dxmath.obj
 0004:0002ce80       ??_C@_0CN@HLJELKLO@Invalid?5Parameter?5in?5D3DXMatrixP@ 005658a0     d3dx8d:d3dxmath.obj
 0004:0002ceb8       ??_C@_0CN@GNCMDEME@Invalid?5Parameter?5in?5D3DXMatrixP@ 005658d8     d3dx8d:d3dxmath.obj
 0004:0002cef0       ??_C@_0DA@NEOCLBAE@Invalid?5Parameter?5in?5D3DXMatrixP@ 00565910     d3dx8d:d3dxmath.obj
 0004:0002cf2c       ??_C@_0DA@MCFKDPHO@Invalid?5Parameter?5in?5D3DXMatrixP@ 0056594c     d3dx8d:d3dxmath.obj
 0004:0002cf68       ??_C@_0DG@NEAEAEDC@Invalid?5Parameter?5in?5D3DXMatrixP@ 00565988     d3dx8d:d3dxmath.obj
 0004:0002cfa8       ??_C@_0DG@MCLMIKEI@Invalid?5Parameter?5in?5D3DXMatrixP@ 005659c8     d3dx8d:d3dxmath.obj
 0004:0002cfe8       ??_C@_0CH@IFKGAPKG@Invalid?5Parameter?5in?5D3DXMatrixO@ 00565a08     d3dx8d:d3dxmath.obj
 0004:0002d018       ??_C@_0CH@JDBOIBNM@Invalid?5Parameter?5in?5D3DXMatrixO@ 00565a38     d3dx8d:d3dxmath.obj
 0004:0002d048       ??_C@_0DA@ENGOPAIK@Invalid?5Parameter?5in?5D3DXMatrixO@ 00565a68     d3dx8d:d3dxmath.obj
 0004:0002d084       ??_C@_0DA@FLNGHOPA@Invalid?5Parameter?5in?5D3DXMatrixO@ 00565aa4     d3dx8d:d3dxmath.obj
 0004:0002d0c0       ??_C@_0DI@PHDEIIJJ@Invalid?5Parameter?5in?5D3DXQuatern@ 00565ae0     d3dx8d:d3dxmath.obj
 0004:0002d104       ??_C@_0CM@OKFKMGIG@Invalid?5Parameter?5in?5D3DXQuatern@ 00565b24     d3dx8d:d3dxmath.obj
 0004:0002d138       ??_C@_0CP@OCLLJEAA@Invalid?5Parameter?5in?5D3DXColorAd@ 00565b58     d3dx8d:d3dxmath.obj
 0004:0002d170       ??_C@_0CN@MOGAIDNK@Invalid?5Parameter?5in?5D3DXColorAd@ 00565b90     d3dx8d:d3dxmath.obj
 0004:0002d1a8       ??_C@_0CH@DMHJHOKM@Invalid?5parameter?5to?5D3DXVec2Nor@ 00565bc8     d3dx8d:d3dxmath.obj
 0004:0002d1d8       ??_C@_0CM@MBLPIBOF@Invalid?5Parameter?5in?5D3DXVec2Tra@ 00565bf8     d3dx8d:d3dxmath.obj
 0004:0002d20c       ??_C@_0CH@HMCJBKPE@Invalid?5Parameter?5in?5D3DXVec3Nor@ 00565c2c     d3dx8d:d3dxmath.obj
 0004:0002d23c       ??_C@_0CM@GPNHBAHE@Invalid?5Parameter?5in?5D3DXVec3Tra@ 00565c5c     d3dx8d:d3dxmath.obj
 0004:0002d270       ??_C@_0CD@MFHJKAEK@Invalid?5Parameter?5in?5D3DXVec4Cro@ 00565c90     d3dx8d:d3dxmath.obj
 0004:0002d29c       ??_C@_0CH@FFBCAPHH@Invalid?5Parameter?5in?5D3DXVec4Nor@ 00565cbc     d3dx8d:d3dxmath.obj
 0004:0002d2cc       ??_C@_0CI@HPOECPJC@Invalid?5Parameter?5in?5D3DXMatrixM@ 00565cec     d3dx8d:d3dxmath.obj
 0004:0002d2fc       ??_C@_0CM@OHFGOPGP@Invalid?5Parameter?5in?5D3DXMatrixR@ 00565d1c     d3dx8d:d3dxmath.obj
 0004:0002d330       ??_C@_0DE@LEGPHPMD@Invalid?5Parameter?5in?5D3DXMatrixR@ 00565d50     d3dx8d:d3dxmath.obj
 0004:0002d370       ??_C@_0CO@DKBPDJIH@Invalid?5Parameter?5in?5D3DXMatrixT@ 00565d90     d3dx8d:d3dxmath.obj
 0004:0002d3a8       ??_C@_0DE@LDMAINLI@Invalid?5Parameter?5in?5D3DXMatrixA@ 00565dc8     d3dx8d:d3dxmath.obj
 0004:0002d3e8       ??_C@_0CI@NAPHIAFL@Invalid?5Parameter?5in?5D3DXMatrixL@ 00565e08     d3dx8d:d3dxmath.obj
 0004:0002d418       ??_C@_0CI@MGEPAOCB@Invalid?5Parameter?5in?5D3DXMatrixL@ 00565e38     d3dx8d:d3dxmath.obj
 0004:0002d448       ??_C@_0DC@KHDMHGG@Invalid?5Parameter?5in?5D3DXQuatern@ 00565e68     d3dx8d:d3dxmath.obj
 0004:0002d484       ??_C@_0DA@GEDNCAHF@Invalid?5Parameter?5in?5D3DXQuatern@ 00565ea4     d3dx8d:d3dxmath.obj
 0004:0002d4c0       ??_C@_0CN@CJMONMFM@Invalid?5Parameter?5in?5D3DXQuatern@ 00565ee0     d3dx8d:d3dxmath.obj
 0004:0002d4f8       ??_C@_0CL@OMJKPKJD@Invalid?5Parameter?5in?5D3DXQuatern@ 00565f18     d3dx8d:d3dxmath.obj
 0004:0002d52c       ??_C@_0CG@EEKIDBDJ@Invalid?5Parameter?5in?5D3DXQuatern@ 00565f4c     d3dx8d:d3dxmath.obj
 0004:0002d55c       ??_C@_0CH@BFNNMJIH@Invalid?5Parameter?5in?5D3DXQuatern@ 00565f7c     d3dx8d:d3dxmath.obj
 0004:0002d58c       ??_C@_0CJ@MJBINDOE@Invalid?5Parameter?5in?5D3DXQuatern@ 00565fac     d3dx8d:d3dxmath.obj
 0004:0002d5c0       ??_C@_0CJ@DBLPBNDE@Invalid?5Parameter?5in?5D3DXQuatern@ 00565fe0     d3dx8d:d3dxmath.obj
 0004:0002d5f4       ??_C@_0CP@HHNNNJFP@Invalid?5Parameter?5in?5D3DXQuatern@ 00566014     d3dx8d:d3dxmath.obj
 0004:0002d62c       ??_C@_0CI@PHDMEJNM@Invalid?5Parameter?5in?5D3DXPlaneNo@ 0056604c     d3dx8d:d3dxmath.obj
 0004:0002d65c       ??_C@_0CM@PNCLEHOA@Invalid?5Parameter?5in?5D3DXPlaneIn@ 0056607c     d3dx8d:d3dxmath.obj
 0004:0002d690       ??_C@_0CO@FAJIGONP@Invalid?5Parameter?5in?5D3DXPlaneFr@ 005660b0     d3dx8d:d3dxmath.obj
 0004:0002d6c8       ??_C@_0CJ@PEIDBDHP@Invalid?5Parameter?5in?5D3DXPlaneFr@ 005660e8     d3dx8d:d3dxmath.obj
 0004:0002d6fc       ??_C@_0CI@LOOMOOND@Invalid?5Parameter?5in?5D3DXPlaneTr@ 0056611c     d3dx8d:d3dxmath.obj
 0004:0002d72c       ??_C@_0CF@FDFFKOCE@Invalid?5Parameter?5in?5D3DXVec3Pro@ 0056614c     d3dx8d:d3dxmath.obj
 0004:0002d758       ??_C@_0CH@NIBNAPHF@Invalid?5Parameter?5in?5D3DXVec3Unp@ 00566178     d3dx8d:d3dxmath.obj
 0004:0002d788       ??_C@_0CG@LDCOBHBK@Invalid?5Parameter?5in?5D3DXMatrixS@ 005661a8     d3dx8d:d3dxmath.obj
 0004:0002d7b8       ??_C@_0CH@ECBIJKHA@Invalid?5Parameter?5in?5D3DXMatrixR@ 005661d8     d3dx8d:d3dxmath.obj
 0004:0002d7e8       ??_C@_0L@PNLDIMMI@D3DX?3?5?$CFs?$AN?6?$AA@ 00566208     d3dx8d:d3dx8dbg.obj
 0004:0002d7f8       ??_C@_0EB@BGMHADK@d?3?2xbox?9dec03?2private?2windows?2di@ 00566218     d3dx8d:cd3dxblt.obj
 0004:0002d848       ??_C@_0BC@GMEHONBG@uSize?5?$DM?$DN?5uSizeMax?$AA@ 00566268     d3dx8d:cd3dxblt.obj
 0004:0002d860       ??_C@_0BF@HCMLKDLE@Invalid?5image?5filter?$AA@ 00566280     d3dx8d:cd3dxblt.obj
 0004:0002d87c       ??_C@_0BJ@LIJHGAAG@Unsupported?5image?5format?$AA@ 0056629c     d3dx8d:cd3dxblt.obj
 0004:0002d89c       ??_C@_0BP@KIJNPBLC@No?5suitable?5image?5filter?5found?$AA@ 005662bc     d3dx8d:cd3dxblt.obj
 0004:0002d8c8       ??_C@_0EC@IBFLKOLJ@No?5conversion?5exists?5between?5sou@ 005662e8     d3dx8d:cd3dxblt.obj
 0004:0002d918       ??_C@_0M@LFCHLCJI@LoadJPG?3?5?$CFs?$AA@ 00566338     d3dx8d:cd3dximage.obj
 0004:0002d928       ??_C@_0L@JBGDLKBH@read?5error?$AA@ 00566348     d3dx8d:cd3dximage.obj
 0004:0002d938       ??_C@_0M@GPLNHIOI@LoadPNG?3?5?$CFs?$AA@ 00566358     d3dx8d:cd3dximage.obj
 0004:0002d948       ??_C@_0CI@MKNGFDBH@LoadBMP?3?5JPEG?5compression?5not?5su@ 00566368     d3dx8d:cd3dximage.obj
 0004:0002d978       ??_C@_0ED@BHOHDFBI@d?3?2xbox?9dec03?2private?2windows?2di@ 00566398     d3dx8d:cd3dximage.obj
 0004:0002d9c8       ??_C@_0BP@BBDIBCON@pbDest?5?$DN?$DN?5pbDestLine?5?$CL?5dwWidth?$AA@ 005663e8     d3dx8d:cd3dximage.obj
 0004:0002d9f0       ??_C@_05JPCDEKMM@1?40?45?$AA@ 00566410     d3dx8d:cd3dximage.obj
 0004:0002d9f8       ??_C@_0CJ@IBCOEFLD@LoadDDS?3?5Partial?5cubemaps?5not?5su@ 00566418     d3dx8d:cd3dximage.obj
 0004:0002da2c       ??_C@_0CC@LAEECKKJ@LoadDDS?3?5Unsupported?5pixel?5forma@ 0056644c     d3dx8d:cd3dximage.obj
 0004:0002da54       ??_C@_0BI@KLOECFFP@Unsupported?5file?5format?$AA@ 00566474     d3dx8d:cd3dximage.obj
 0004:0002da70       ??_C@_0BM@OPOKJHEN@Unrecognized?5error?3?50x?$CF0?48x?$AA@ 00566490     d3dx8d:d3dx8core.obj
 0004:0002da94       ??_C@_02DKCKIIND@?$CFs?$AA@ 005664b4     d3dx8d:d3dx8core.obj
 0004:0002da98       ??_C@_0BE@KPKGPDGC@D3DXERR_INVALIDMESH?$AA@ 005664b8     d3dx8d:d3dx8core.obj
 0004:0002dab0       ??_C@_0BH@OLPAEDNL@D3DXERR_CANNOTATTRSORT?$AA@ 005664d0     d3dx8d:d3dx8core.obj
 0004:0002dacc       ??_C@_0BN@OFGKBIOG@D3DXERR_SKINNINGNOTSUPPORTED?$AA@ 005664ec     d3dx8d:d3dx8core.obj
 0004:0002daf0       ??_C@_0BK@BEMAPGE@D3DXERR_TOOMANYINFLUENCES?$AA@ 00566510     d3dx8d:d3dx8core.obj
 0004:0002db10       ??_C@_0BE@PJFJKLII@D3DXERR_INVALIDDATA?$AA@ 00566530     d3dx8d:d3dx8core.obj
 0004:0002db28       ??_C@_04LNELPODO@S_OK?$AA@ 00566548     d3dx8d:d3dx8core.obj
 0004:0002db30       ??_C@_0CA@LBFOOIIL@D3DXERR_CANNOTMODIFYINDEXBUFFER?$AA@ 00566550     d3dx8d:d3dx8core.obj
 0004:0002db58       ??_C@_0BA@FEPMNEFM@D3DERR_NOTFOUND?$AA@ 00566578     d3dx8d:d3dx8core.obj
 0004:0002db6c       ??_C@_0BA@EMFIIMDH@D3DERR_MOREDATA?$AA@ 0056658c     d3dx8d:d3dx8core.obj
 0004:0002db80       ??_C@_0BC@EMHBBGDJ@D3DERR_DEVICELOST?$AA@ 005665a0     d3dx8d:d3dx8core.obj
 0004:0002db98       ??_C@_0BG@ODHIPO@D3DERR_DEVICENOTRESET?$AA@ 005665b8     d3dx8d:d3dx8core.obj
 0004:0002dbb4       ??_C@_0BE@EMOOFEGA@D3DERR_NOTAVAILABLE?$AA@ 005665d4     d3dx8d:d3dx8core.obj
 0004:0002dbcc       ??_C@_0BF@IKIMMOMN@D3DERR_INVALIDDEVICE?$AA@ 005665ec     d3dx8d:d3dx8core.obj
 0004:0002dbe8       ??_C@_0BD@NKNFKHMN@D3DERR_INVALIDCALL?$AA@ 00566608     d3dx8d:d3dx8core.obj
 0004:0002dc00       ??_C@_0BL@NGLDGHAB@D3DERR_DRIVERINTERNALERROR?$AA@ 00566620     d3dx8d:d3dx8core.obj
 0004:0002dc20       ??_C@_0BL@BJOJBFEN@D3DERR_UNSUPPORTEDALPHAARG?$AA@ 00566640     d3dx8d:d3dx8core.obj
 0004:0002dc40       ??_C@_0BJ@INFNOJNF@D3DERR_TOOMANYOPERATIONS?$AA@ 00566660     d3dx8d:d3dx8core.obj
 0004:0002dc60       ??_C@_0CA@CFPOKCEH@D3DERR_CONFLICTINGTEXTUREFILTER?$AA@ 00566680     d3dx8d:d3dx8core.obj
 0004:0002dc88       ??_C@_0BO@MOJGBOAN@D3DERR_UNSUPPORTEDFACTORVALUE?$AA@ 005666a8     d3dx8d:d3dx8core.obj
 0004:0002dcac       ??_C@_0BO@EMDMGLEF@D3DERR_CONFLICTINGRENDERSTATE?$AA@ 005666cc     d3dx8d:d3dx8core.obj
 0004:0002dcd0       ??_C@_0CA@FJBFGLDN@D3DERR_UNSUPPORTEDTEXTUREFILTER?$AA@ 005666f0     d3dx8d:d3dx8core.obj
 0004:0002dcf8       ??_C@_0CB@FNAABFGA@D3DERR_CONFLICTINGTEXTUREPALETTE@ 00566718     d3dx8d:d3dx8core.obj
 0004:0002dd20       ??_C@_0CB@JPKBHPNI@D3DERR_UNSUPPORTEDALPHAOPERATION@ 00566740     d3dx8d:d3dx8core.obj
 0004:0002dd48       ??_C@_09NMKLNOAF@E_NOTIMPL?$AA@ 00566768     d3dx8d:d3dx8core.obj
 0004:0002dd54       ??_C@_06FOOEOEIK@E_FAIL?$AA@ 00566774     d3dx8d:d3dx8core.obj
 0004:0002dd5c       ??_C@_0O@MNIAMCLP@E_OUTOFMEMORY?$AA@ 0056677c     d3dx8d:d3dx8core.obj
 0004:0002dd6c       ??_C@_0BI@GJDGNNKD@D3DERR_OUTOFVIDEOMEMORY?$AA@ 0056678c     d3dx8d:d3dx8core.obj
 0004:0002dd88       ??_C@_0BK@BPHFHCLE@D3DERR_WRONGTEXTUREFORMAT?$AA@ 005667a8     d3dx8d:d3dx8core.obj
 0004:0002dda8       ??_C@_0CB@CGHHLPPG@D3DERR_UNSUPPORTEDCOLOROPERATION@ 005667c8     d3dx8d:d3dx8core.obj
 0004:0002ddd0       ??_C@_0BL@CDKLBBHI@D3DERR_UNSUPPORTEDCOLORARG?$AA@ 005667f0     d3dx8d:d3dx8core.obj
 0004:0002ddf0       ??_C@_0CE@IIEHOLCO@Could?5not?5generate?5wide?5char?5str@ 00566810     d3dx8d:d3dx8core.obj
 0004:0002de1c       ??_C@_0BM@NLHDADLH@ppSprite?5pointer?5is?5invalid?$AA@ 0056683c     d3dx8d:d3dx8core.obj
 0004:0002de40       ??_C@_0CF@BEDBPPHM@ppRenderToSurface?5pointer?5is?5inv@ 00566860     d3dx8d:d3dx8core.obj
 0004:0002de6c       ??_C@_0CE@NJOACCBG@ppRenderToEnvMap?5pointer?5is?5inva@ 0056688c     d3dx8d:d3dx8core.obj
 0004:0002e0f4       ??_C@_0CL@OCGBAKPF@Application?5transferred?5too?5many@ 00566b14     d3dx8d:jerror.obj
 0004:0002e128       ??_C@_0CL@BAKCGOKJ@Invalid?5SOS?5parameters?5for?5seque@ 00566b48     d3dx8d:jerror.obj
 0004:0002e15c       ??_C@_0DI@NFMBADOH@Corrupt?5JPEG?5data?3?5found?5marker?5@ 00566b7c     d3dx8d:jerror.obj
 0004:0002e1a0       ??_C@_0BL@DPFPFMLM@Premature?5end?5of?5JPEG?5file?$AA@ 00566bc0     d3dx8d:jerror.obj
 0004:0002e1c0       ??_C@_0CO@ODCCEDLN@Warning?3?5unknown?5JFIF?5revision?5n@ 00566be0     d3dx8d:jerror.obj
 0004:0002e1f8       ??_C@_0CE@PBLDOPKB@Corrupt?5JPEG?5data?3?5bad?5Huffman?5c@ 00566c18     d3dx8d:jerror.obj
 0004:0002e224       ??_C@_0DB@PGMEPGHN@Corrupt?5JPEG?5data?3?5premature?5end@ 00566c44     d3dx8d:jerror.obj
 0004:0002e260       ??_C@_0DM@PCOGCKJB@Corrupt?5JPEG?5data?3?5?$CFu?5extraneous@ 00566c80     d3dx8d:jerror.obj
 0004:0002e2a8       ??_C@_0EC@CBCJOINE@Inconsistent?5progression?5sequenc@ 00566cc8     d3dx8d:jerror.obj
 0004:0002e2f8       ??_C@_0CG@KEGHCDOM@Unknown?5Adobe?5color?5transform?5co@ 00566d18     d3dx8d:jerror.obj
 0004:0002e328       ??_C@_0BH@LJLGPEFF@Obtained?5XMS?5handle?5?$CFu?$AA@ 00566d48     d3dx8d:jerror.obj
 0004:0002e344       ??_C@_0BE@FOGGKKAO@Freed?5XMS?5handle?5?$CFu?$AA@ 00566d64     d3dx8d:jerror.obj
 0004:0002e35c       ??_C@_0DE@EEJCDLOO@Unrecognized?5component?5IDs?5?$CFd?5?$CFd@ 00566d7c     d3dx8d:jerror.obj
 0004:0002e39c       ??_C@_0BJ@GOCABEP@Opened?5temporary?5file?5?$CFs?$AA@ 00566dbc     d3dx8d:jerror.obj
 0004:0002e3bc       ??_C@_0BJ@KDCGAOJB@Closed?5temporary?5file?5?$CFs?$AA@ 00566ddc     d3dx8d:jerror.obj
 0004:0002e3dc       ??_C@_0BN@GAMIJLDC@?5?5Ss?$DN?$CFd?0?5Se?$DN?$CFd?0?5Ah?$DN?$CFd?0?5Al?$DN?$CFd?$AA@ 00566dfc     d3dx8d:jerror.obj
 0004:0002e400       ??_C@_0BO@CDEKFGLC@?5?5?5?5Component?5?$CFd?3?5dc?$DN?$CFd?5ac?$DN?$CFd?$AA@ 00566e20     d3dx8d:jerror.obj
 0004:0002e424       ??_C@_0BN@BLOOHNC@Start?5Of?5Scan?3?5?$CFd?5components?$AA@ 00566e44     d3dx8d:jerror.obj
 0004:0002e448       ??_C@_0P@JLCHJELA@Start?5of?5Image?$AA@ 00566e68     d3dx8d:jerror.obj
 0004:0002e45c       ??_C@_0BP@EDCAMHHE@?5?5?5?5Component?5?$CFd?3?5?$CFdhx?$CFdv?5q?$DN?$CFd?$AA@ 00566e7c     d3dx8d:jerror.obj
 0004:0002e484       ??_C@_0DK@DMINKOGN@Start?5Of?5Frame?50x?$CF02x?3?5width?$DN?$CFu?0@ 00566ea4     d3dx8d:jerror.obj
 0004:0002e4cc       ??_C@_0DJ@PCBCLFML@Smoothing?5not?5supported?5with?5non@ 00566eec     d3dx8d:jerror.obj
 0004:0002e510       ??_C@_05LLAPAOG@RST?$CFd?$AA@ 00566f30     d3dx8d:jerror.obj
 0004:0002e518       ??_C@_0CF@NIMOLBCP@At?5marker?50x?$CF02x?0?5recovery?5actio@ 00566f38     d3dx8d:jerror.obj
 0004:0002e544       ??_C@_0CE@FDPBEAOO@Selected?5?$CFd?5colors?5for?5quantizat@ 00566f64     d3dx8d:jerror.obj
 0004:0002e570       ??_C@_0BI@NEIBNACE@Quantizing?5to?5?$CFd?5colors?$AA@ 00566f90     d3dx8d:jerror.obj
 0004:0002e58c       ??_C@_0CD@CNNAOOFA@Quantizing?5to?5?$CFd?5?$DN?5?$CFd?$CK?$CFd?$CK?$CFd?5colo@ 00566fac     d3dx8d:jerror.obj
 0004:0002e5b8       ??_C@_0CI@GHPOCOCL@?5?5?5?5?5?5?5?5?$CF4u?5?$CF4u?5?$CF4u?5?$CF4u?5?$CF4u?5?$CF4u?5@ 00566fd8     d3dx8d:jerror.obj
 0004:0002e5e8       ??_C@_0BJ@COPODLDN@Unexpected?5marker?50x?$CF02x?$AA@ 00567008     d3dx8d:jerror.obj
 0004:0002e608       ??_C@_0CC@KHCAAFMC@Skipping?5marker?50x?$CF02x?0?5length?5?$CF@ 00567028     d3dx8d:jerror.obj
 0004:0002e630       ??_C@_0CB@BADBMAAB@?5?5?5?5with?5?$CFd?5x?5?$CFd?5thumbnail?5image@ 00567050     d3dx8d:jerror.obj
 0004:0002e658       ??_C@_0CL@BJMGIDLN@Unknown?5JFIF?5minor?5revision?5numb@ 00567078     d3dx8d:jerror.obj
 0004:0002e68c       ??_C@_0DM@JLHNPIBE@Warning?3?5thumbnail?5image?5size?5do@ 005670ac     d3dx8d:jerror.obj
 0004:0002e6d4       ??_C@_0CE@MKDBBMLI@JFIF?5APP0?5marker?0?5density?5?$CFdx?$CFd?5@ 005670f4     d3dx8d:jerror.obj
 0004:0002e700       ??_C@_0CI@FKGPAJC@?5?5?5?5?5?5?5?5?$CF3d?5?$CF3d?5?$CF3d?5?$CF3d?5?$CF3d?5?$CF3d?5@ 00567120     d3dx8d:jerror.obj
 0004:0002e730       ??_C@_0N@HJHFKELG@End?5Of?5Image?$AA@ 00567150     d3dx8d:jerror.obj
 0004:0002e740       ??_C@_0BH@GIPOLIGC@Obtained?5EMS?5handle?5?$CFu?$AA@ 00567160     d3dx8d:jerror.obj
 0004:0002e75c       ??_C@_0BE@IPCOOGDJ@Freed?5EMS?5handle?5?$CFu?$AA@ 0056717c     d3dx8d:jerror.obj
 0004:0002e774       ??_C@_0BL@EMFIKBEK@Define?5Restart?5Interval?5?$CFu?$AA@ 00567194     d3dx8d:jerror.obj
 0004:0002e794       ??_C@_0CL@KLDOJIKN@Define?5Quantization?5Table?5?$CFd?5?5pr@ 005671b4     d3dx8d:jerror.obj
 0004:0002e7c8       ??_C@_0BM@MDIEILCE@Define?5Huffman?5Table?50x?$CF02x?$AA@ 005671e8     d3dx8d:jerror.obj
 0004:0002e7ec       ??_C@_0CH@KIJGKPAA@Define?5Arithmetic?5Table?50x?$CF02x?3?5@ 0056720c     d3dx8d:jerror.obj
 0004:0002e81c       ??_C@_0CM@CAEPHFAA@Unknown?5APP14?5marker?5?$CInot?5Adobe?$CJ@ 0056723c     d3dx8d:jerror.obj
 0004:0002e850       ??_C@_0CK@HCPFFNKJ@Unknown?5APP0?5marker?5?$CInot?5JFIF?$CJ?0?5@ 00567270     d3dx8d:jerror.obj
 0004:0002e888       ??_C@_0EC@EHPKAOHA@Adobe?5APP14?5marker?3?5version?5?$CFd?0?5@ 005672a8     d3dx8d:jerror.obj
 0004:0002e8d8       ??_C@_0DO@EGLODMBB@Caution?3?5quantization?5tables?5are@ 005672f8     d3dx8d:jerror.obj
 0004:0002e924       ??_C@_0N@GJOMDPHN@6a?5?57?9Feb?996?$AA@ 00567344     d3dx8d:jerror.obj
 0004:0002e934       ??_C@_0CD@JFDHJBKK@Copyright?5?$CIC?$CJ?51996?0?5Thomas?5G?4?5La@ 00567354     d3dx8d:jerror.obj
 0004:0002e960       ??_C@_0BE@FDPDCBIN@Write?5to?5XMS?5failed?$AA@ 00567380     d3dx8d:jerror.obj
 0004:0002e978       ??_C@_0BF@EKLGFGNM@Read?5from?5XMS?5failed?$AA@ 00567398     d3dx8d:jerror.obj
 0004:0002e994       ??_C@_0CH@LJLHCCHC@Image?5too?5wide?5for?5this?5implemen@ 005673b4     d3dx8d:jerror.obj
 0004:0002e9c4       ??_C@_0CD@GCLFJCHC@Virtual?5array?5controller?5messed?5@ 005673e4     d3dx8d:jerror.obj
 0004:0002e9f0       ??_C@_0BP@BPKOBOIP@Unsupported?5marker?5type?50x?$CF02x?$AA@ 00567410     d3dx8d:jerror.obj
 0004:0002ea18       ??_C@_0CK@EPADOAKC@Application?5transferred?5too?5few?5@ 00567438     d3dx8d:jerror.obj
 0004:0002ea4c       ??_C@_0DG@KALDLIJB@Write?5failed?5on?5temporary?5file?5?9@ 0056746c     d3dx8d:jerror.obj
 0004:0002ea8c       ??_C@_0BO@GOBJOAAI@Seek?5failed?5on?5temporary?5file?$AA@ 005674ac     d3dx8d:jerror.obj
 0004:0002eab0       ??_C@_0BO@EEPJGHHI@Read?5failed?5on?5temporary?5file?$AA@ 005674d0     d3dx8d:jerror.obj
 0004:0002ead4       ??_C@_0CD@POKNOPOF@Failed?5to?5create?5temporary?5file?5@ 005674f4     d3dx8d:jerror.obj
 0004:0002eb00       ??_C@_0CM@HONLBDPH@Invalid?5JPEG?5file?5structure?3?5SOS@ 00567520     d3dx8d:jerror.obj
 0004:0002eb34       ??_C@_0CN@HGJCMLNE@Invalid?5JPEG?5file?5structure?3?5two@ 00567554     d3dx8d:jerror.obj
 0004:0002eb6c       ??_C@_0CK@HMKECJK@Unsupported?5JPEG?5process?3?5SOF?5ty@ 0056758c     d3dx8d:jerror.obj
 0004:0002eba0       ??_C@_0DA@GJIJGINK@Invalid?5JPEG?5file?5structure?3?5mis@ 005675c0     d3dx8d:jerror.obj
 0004:0002ebdc       ??_C@_0CN@IHJJJAFJ@Invalid?5JPEG?5file?5structure?3?5two@ 005675fc     d3dx8d:jerror.obj
 0004:0002ec14       ??_C@_0CH@NHMNHHIB@Cannot?5quantize?5to?5more?5than?5?$CFd?5@ 00567634     d3dx8d:jerror.obj
 0004:0002ec44       ??_C@_0CI@PLMPLCNO@Cannot?5quantize?5to?5fewer?5than?5?$CFd@ 00567664     d3dx8d:jerror.obj
 0004:0002ec74       ??_C@_0CO@HPDBAEEA@Cannot?5quantize?5more?5than?5?$CFd?5col@ 00567694     d3dx8d:jerror.obj
 0004:0002ecac       ??_C@_0BO@DJPLELIB@Insufficient?5memory?5?$CIcase?5?$CFd?$CJ?$AA@ 005676cc     d3dx8d:jerror.obj
 0004:0002ecd0       ??_C@_0CL@GNLFDFCL@Not?5a?5JPEG?5file?3?5starts?5with?50x?$CF@ 005676f0     d3dx8d:jerror.obj
 0004:0002ed04       ??_C@_0CK@CCHKIENB@Quantization?5table?50x?$CF02x?5was?5no@ 00567724     d3dx8d:jerror.obj
 0004:0002ed38       ??_C@_0CC@BKPLBDLJ@JPEG?5datastream?5contains?5no?5imag@ 00567758     d3dx8d:jerror.obj
 0004:0002ed60       ??_C@_0CF@BKANFCCL@Huffman?5table?50x?$CF02x?5was?5not?5def@ 00567780     d3dx8d:jerror.obj
 0004:0002ed8c       ??_C@_0BM@HJHFKLAF@Backing?5store?5not?5supported?$AA@ 005677ac     d3dx8d:jerror.obj
 0004:0002edb0       ??_C@_0CO@BEHINNOI@Requested?5feature?5was?5omitted?5at@ 005677d0     d3dx8d:jerror.obj
 0004:0002ede8       ??_C@_0BE@EOAAHHJ@Not?5implemented?5yet?$AA@ 00567808     d3dx8d:jerror.obj
 0004:0002ee00       ??_C@_0CH@EFBBPPCK@Invalid?5color?5quantization?5mode?5@ 00567820     d3dx8d:jerror.obj
 0004:0002ee30       ??_C@_0CH@NIBDNILP@Scan?5script?5does?5not?5transmit?5al@ 00567850     d3dx8d:jerror.obj
 0004:0002ee60       ??_C@_0DO@OPNPKGO@Cannot?5transcode?5due?5to?5multiple@ 00567880     d3dx8d:jerror.obj
 0004:0002eeac       ??_C@_0BM@KEKMMNGA@Premature?5end?5of?5input?5file?$AA@ 005678cc     d3dx8d:jerror.obj
 0004:0002eed0       ??_C@_0BB@JJAIKFBB@Empty?5input?5file?$AA@ 005678f0     d3dx8d:jerror.obj
 0004:0002eee4       ??_C@_0CP@EKFPGPNP@Maximum?5supported?5image?5dimensio@ 00567904     d3dx8d:jerror.obj
 0004:0002ef1c       ??_C@_0CB@LFBMFPHI@Missing?5Huffman?5code?5table?5entry@ 0056793c     d3dx8d:jerror.obj
 0004:0002ef44       ??_C@_0CB@LLDOGNPJ@Huffman?5code?5size?5table?5overflow@ 00567964     d3dx8d:jerror.obj
 0004:0002ef6c       ??_C@_0CI@EKDDDHFF@Fractional?5sampling?5not?5implemen@ 0056798c     d3dx8d:jerror.obj
 0004:0002ef9c       ??_C@_0CP@IDOBLGGD@Output?5file?5write?5error?5?9?9?9?5out?5@ 005679bc     d3dx8d:jerror.obj
 0004:0002efd4       ??_C@_0BG@BALCKDNL@Input?5file?5read?5error?$AA@ 005679f4     d3dx8d:jerror.obj
 0004:0002eff0       ??_C@_0CB@DMGINPNE@Didn?8t?5expect?5more?5than?5one?5scan@ 00567a10     d3dx8d:jerror.obj
 0004:0002f018       ??_C@_0BE@DGJBKIEB@Write?5to?5EMS?5failed?$AA@ 00567a38     d3dx8d:jerror.obj
 0004:0002f030       ??_C@_0BF@CPNENPBA@Read?5from?5EMS?5failed?$AA@ 00567a50     d3dx8d:jerror.obj
 0004:0002f04c       ??_C@_0CF@DAGGEAPM@Empty?5JPEG?5image?5?$CIDNL?5not?5suppor@ 00567a6c     d3dx8d:jerror.obj
 0004:0002f078       ??_C@_0BD@DIMECAOP@Bogus?5DQT?5index?5?$CFd?$AA@ 00567a98     d3dx8d:jerror.obj
 0004:0002f090       ??_C@_0BD@KJHFPHIC@Bogus?5DHT?5index?5?$CFd?$AA@ 00567ab0     d3dx8d:jerror.obj
 0004:0002f0a8       ??_C@_0BB@GDNEPMHL@Bogus?5DHT?5counts?$AA@ 00567ac8     d3dx8d:jerror.obj
 0004:0002f0bc       ??_C@_0BF@CLIOOJFM@Bogus?5DAC?5value?50x?$CFx?$AA@ 00567adc     d3dx8d:jerror.obj
 0004:0002f0d8       ??_C@_0BD@LDBBBMFL@Bogus?5DAC?5index?5?$CFd?$AA@ 00567af8     d3dx8d:jerror.obj
 0004:0002f0f0       ??_C@_0CF@JDLOPNGO@Unsupported?5color?5conversion?5req@ 00567b10     d3dx8d:jerror.obj
 0004:0002f11c       ??_C@_0CG@BEBDNOCG@Too?5many?5color?5components?3?5?$CFd?0?5m@ 00567b3c     d3dx8d:jerror.obj
 0004:0002f14c       ??_C@_0CF@LAEFHNAH@CCIR601?5sampling?5not?5implemented@ 00567b6c     d3dx8d:jerror.obj
 0004:0002f178       ??_C@_0BM@PKHCPJDH@Suspension?5not?5allowed?5here?$AA@ 00567b98     d3dx8d:jerror.obj
 0004:0002f19c       ??_C@_0CL@JKHIPJLJ@Buffer?5passed?5to?5JPEG?5library?5is@ 00567bbc     d3dx8d:jerror.obj
 0004:0002f1d0       ??_C@_0BL@CBOEEPLK@Bogus?5virtual?5array?5access?$AA@ 00567bf0     d3dx8d:jerror.obj
 0004:0002f1f0       ??_C@_0EN@DKAEGIBH@JPEG?5parameter?5struct?5mismatch?3?5@ 00567c10     d3dx8d:jerror.obj
 0004:0002f24c       ??_C@_0CK@BAMFIBMM@Improper?5call?5to?5JPEG?5library?5in@ 00567c6c     d3dx8d:jerror.obj
 0004:0002f280       ??_C@_0CA@MJDDICLK@Invalid?5scan?5script?5at?5entry?5?$CFd?$AA@ 00567ca0     d3dx8d:jerror.obj
 0004:0002f2a8       ??_C@_0BH@HMMHPOPE@Bogus?5sampling?5factors?$AA@ 00567cc8     d3dx8d:jerror.obj
 0004:0002f2c4       ??_C@_0DH@HIKEGPKP@Invalid?5progressive?5parameters?5a@ 00567ce4     d3dx8d:jerror.obj
 0004:0002f308       ??_C@_0DH@LNGGEGOL@Invalid?5progressive?5parameters?5S@ 00567d28     d3dx8d:jerror.obj
 0004:0002f34c       ??_C@_0CD@LDBDNLHK@Unsupported?5JPEG?5data?5precision?5@ 00567d6c     d3dx8d:jerror.obj
 0004:0002f378       ??_C@_0BM@OEMICEFD@Invalid?5memory?5pool?5code?5?$CFd?$AA@ 00567d98     d3dx8d:jerror.obj
 0004:0002f39c       ??_C@_0DA@HLEOHNPA@Sampling?5factors?5too?5large?5for?5i@ 00567dbc     d3dx8d:jerror.obj
 0004:0002f3d8       ??_C@_0DN@ELFKFKL@Wrong?5JPEG?5library?5version?3?5libr@ 00567df8     d3dx8d:jerror.obj
 0004:0002f424       ??_C@_0BE@OGLAEMOG@Bogus?5marker?5length?$AA@ 00567e44     d3dx8d:jerror.obj
 0004:0002f43c       ??_C@_0BG@NEGIHEMC@Bogus?5JPEG?5colorspace?$AA@ 00567e5c     d3dx8d:jerror.obj
 0004:0002f458       ??_C@_0BH@BGDIGLHC@Bogus?5input?5colorspace?$AA@ 00567e78     d3dx8d:jerror.obj
 0004:0002f474       ??_C@_0CI@MBJANLAP@IDCT?5output?5block?5size?5?$CFd?5not?5su@ 00567e94     d3dx8d:jerror.obj
 0004:0002f4a4       ??_C@_0BP@ONFLCDHG@Invalid?5component?5ID?5?$CFd?5in?5SOS?$AA@ 00567ec4     d3dx8d:jerror.obj
 0004:0002f4cc       ??_C@_0BK@DKALDNKG@Bogus?5buffer?5control?5mode?$AA@ 00567eec     d3dx8d:jerror.obj
 0004:0002f4ec       ??_C@_0CF@DENLILGA@MAX_ALLOC_CHUNK?5is?5wrong?0?5please@ 00567f0c     d3dx8d:jerror.obj
 0004:0002f518       ??_C@_0CA@FDMPGPNI@ALIGN_TYPE?5is?5wrong?0?5please?5fix?$AA@ 00567f38     d3dx8d:jerror.obj
 0004:0002f540       ??_C@_0DJ@KONAFFHE@Sorry?0?5there?5are?5legal?5restricti@ 00567f60     d3dx8d:jerror.obj
 0004:0002f584       ??_C@_0BG@MIBALFBH@Bogus?5message?5code?5?$CFd?$AA@ 00567fa4     d3dx8d:jerror.obj
 0004:0002f634       ??_C@_0BD@LBMCPKOE@zlib?5version?5error?$AA@ 00568054     d3dx8d:pngread.obj
 0004:0002f64c       ??_C@_0BC@MCPIPOGP@zlib?5memory?5error?$AA@ 0056806c     d3dx8d:pngread.obj
 0004:0002f664       ??_C@_0BD@CPDHIJBA@Unknown?5zlib?5error?$AA@ 00568084     d3dx8d:pngread.obj
 0004:0002f67c       ??_C@_05DOIEBMOI@1?41?44?$AA@ 0056809c     d3dx8d:pngread.obj
 0004:0002f684       ??_C@_0DH@LDFDLODO@Incompatible?5libpng?5version?5in?5a@ 005680a4     d3dx8d:pngread.obj
 0004:0002f6c8       ??_C@_0N@JEPAMDDI@zlib?5version?$AA@ 005680e8     d3dx8d:pngread.obj
 0004:0002f6d8       ??_C@_0M@KPLPCJNA@zlib?5memory?$AA@ 005680f8     d3dx8d:pngread.obj
 0004:0002f6e8       ??_C@_0BJ@LAKDHAPN@Missing?5PLTE?5before?5IDAT?$AA@ 00568108     d3dx8d:pngread.obj
 0004:0002f708       ??_C@_0BJ@FFGICIDJ@Missing?5IHDR?5before?5IDAT?$AA@ 00568128     d3dx8d:pngread.obj
 0004:0002f728       ??_C@_0CH@NMANOLCN@PNG?5file?5corrupted?5by?5ASCII?5conv@ 00568148     d3dx8d:pngread.obj
 0004:0002f758       ??_C@_0P@KIMIGLKH@Not?5a?5PNG?5file?$AA@ 00568178     d3dx8d:pngread.obj
 0004:0002f76c       ??_C@_0BG@OKGHHCLP@Extra?5compressed?5data?$AA@ 0056818c     d3dx8d:pngread.obj
 0004:0002f788       ??_C@_0BE@JMOGBNJB@Decompression?5error?$AA@ 005681a8     d3dx8d:pngread.obj
 0004:0002f7a0       ??_C@_0BG@EIEOOJHA@Not?5enough?5image?5data?$AA@ 005681c0     d3dx8d:pngread.obj
 0004:0002f7bc       ??_C@_0CB@KCPNIGFM@Invalid?5attempt?5to?5read?5row?5data@ 005681dc     d3dx8d:pngread.obj
 0004:0002f7e4       ??_C@_0BG@JAHFDNP@Too?5many?5IDAT?8s?5found?$AA@ 00568204     d3dx8d:pngread.obj
 0004:0002f800       ??_C@_0DC@MHGEAIEM@Width?5too?5large?5for?5libpng?5to?5pr@ 00568220     d3dx8d:pngget.obj
 0004:0002f83c       ??_C@_0CK@BDBGBGO@Can?8t?5discard?5critical?5data?5on?5C@ 0056825c     d3dx8d:pngrtran.obj
 0004:0002f870       ??_C@_0CC@JEAKIKEF@png_do_dither?5returned?5rowbytes?$DN@ 00568290     d3dx8d:pngrtran.obj
 0004:0002f898       ??_C@_0BA@DBGPKIA@NULL?5row?5buffer?$AA@ 005682b8     d3dx8d:pngrtran.obj
 0004:0002f8ac       ??_C@_0DP@GHHOJINM@Width?5too?5large?5to?5process?5image@ 005682cc     d3dx8d:pngset.obj
 0004:0002f8f8       ??_C@_0BL@GPADEDKN@Call?5to?5NULL?5read?5function?$AA@ 00568318     d3dx8d:pngrio.obj
 0004:0002f918       ??_C@_0DC@EOBOCMJO@same?5structure?4?5?5Resetting?5write@ 00568338     d3dx8d:pngrio.obj
 0004:0002f958       ??_C@_0EB@NJKELLKM@It?8s?5an?5error?5to?5set?5both?5read_d@ 00568378     d3dx8d:pngrio.obj
 0004:0002f9b4       ??_C@_0DE@EGBLPLND@?6?5libpng?5version?51?40?45?5?9?5October@ 005683d4     d3dx8d:png.obj
 0004:0002f9f4       ??_C@_0CC@CMIPDMOP@Too?5many?5bytes?5for?5PNG?5signature@ 00568414     d3dx8d:png.obj
 0004:0002fa20       ??_C@_0MG@PPOOLDBG@?6?5libpng?5version?51?40?45?5?9?5October@ 00568440     d3dx8d:png.obj
 0004:0002fb10       ??_C@_0BH@GOHAILGE@ppv?5pointer?5is?5invalid?$AA@ 00568530     d3dx8d:cd3dxsprite.obj
 0004:0002fb2c       ??_C@_0BM@KOLDECM@ppDevice?5pointer?5is?5invalid?$AA@ 0056854c     d3dx8d:cd3dxsprite.obj
 0004:0002fb50       ??_C@_0CB@DDIGPLGI@BeginScene?5called?5inside?5a?5scene@ 00568570     d3dx8d:cd3dxsprite.obj
 0004:0002fb78       ??_C@_0BJ@MKLFEEAD@Begin?5was?5not?5yet?5called?$AA@ 00568598     d3dx8d:cd3dxsprite.obj
 0004:0002fb98       ??_C@_0CG@LDMKNOIK@Source?5rect?5is?5outside?5surface?5l@ 005685b8     d3dx8d:cd3dxsprite.obj
 0004:0002fbc8       ??_C@_0BP@CJNKKBCB@pSrcTexture?5pointer?5is?5invalid?$AA@ 005685e8     d3dx8d:cd3dxsprite.obj
 0004:0002fbf0       ??_C@_0BJ@IMDDMCIM@pDesc?5pointer?5is?5invalid?$AA@ 00568610     d3dx8d:cd3dxrendertosurface.obj
 0004:0002fc10       ??_C@_0CK@HFOFGGPE@Surface?5size?5does?5not?5match?5rend@ 00568630     d3dx8d:cd3dxrendertosurface.obj
 0004:0002fc44       ??_C@_0CB@FMNBOFPF@CreateDepthStencilSurface?5failed@ 00568664     d3dx8d:cd3dxrendertosurface.obj
 0004:0002fc6c       ??_C@_0BK@LHBBNIPG@CreateRenderTarget?5failed?$AA@ 0056868c     d3dx8d:cd3dxrendertosurface.obj
 0004:0002fc8c       ??_C@_0CA@MLILKKBF@Viewport?5outside?5surface?5limits?$AA@ 005686ac     d3dx8d:cd3dxrendertosurface.obj
 0004:0002fcb4       ??_C@_0CM@DFCLOIDG@Surface?5format?5does?5not?5match?5re@ 005686d4     d3dx8d:cd3dxrendertosurface.obj
 0004:0002fce8       ??_C@_0BM@COJJOFMG@pSurface?5pointer?5is?5invalid?$AA@ 00568708     d3dx8d:cd3dxrendertosurface.obj
 0004:0002fd0c       ??_C@_0CA@IOBANOMA@EndScene?5called?5outside?5a?5scene?$AA@ 0056872c     d3dx8d:cd3dxrendertosurface.obj
 0004:0002fd38       ??_C@_0EN@NGDMNGIL@d?3?2xbox?9dec03?2private?2windows?2di@ 00568758     d3dx8d:cd3dxrendertoenvmap.obj
 0004:0002fd94       ??_C@_0BC@KKOBBGGF@m_pDevice?5?$DN?$DN?5NULL?$AA@ 005687b4     d3dx8d:cd3dxrendertoenvmap.obj
 0004:0002fdac       ??_C@_0BM@PFMEFHK@Begin?5called?5inside?5a?5scene?$AA@ 005687cc     d3dx8d:cd3dxrendertoenvmap.obj
 0004:0002fdd0       ??_C@_0BM@HJJIMHHJ@pCubeTex?5pointer?5is?5invalid?$AA@ 005687f0     d3dx8d:cd3dxrendertoenvmap.obj
 0004:0002fdf4       ??_C@_0BI@CLHIACMI@pTex?5pointer?5is?5invalid?$AA@ 00568814     d3dx8d:cd3dxrendertoenvmap.obj
 0004:0002fe10       ??_C@_0DA@LJDPOAOP@pTexZPos?5and?5pTexZNeg?5pointers?5a@ 00568830     d3dx8d:cd3dxrendertoenvmap.obj
 0004:0002fe50       ?jpeg_zigzag_order@D3DX@@3QBHB 00568870     d3dx8d:jutils.obj
 0004:0002ff50       ?jpeg_natural_order@D3DX@@3QBHB 00568970     d3dx8d:jutils.obj
 0004:00030118       ??_C@_0BA@MOKMMFOD@need?5dictionary?$AA@ 00568b38     d3dx8d:inflate.obj
 0004:0003012c       ??_C@_0BF@MEIGEHBE@incorrect?5data?5check?$AA@ 00568b4c     d3dx8d:inflate.obj
 0004:00030148       ??_C@_0BH@LIBMMIGA@incorrect?5header?5check?$AA@ 00568b68     d3dx8d:inflate.obj
 0004:00030164       ??_C@_0BE@EMOGCLGO@invalid?5window?5size?$AA@ 00568b84     d3dx8d:inflate.obj
 0004:0003017c       ??_C@_0BL@IHKGDAEE@unknown?5compression?5method?$AA@ 00568b9c     d3dx8d:inflate.obj
 0004:000301a0       ??_C@_0O@BPALFKAJ@Out?5of?5Memory?$AA@ 00568bc0     d3dx8d:pngmem.obj
 0004:0003023c       ??_C@_0BD@GFBMLKLH@invalid?5chunk?5type?$AA@ 00568c5c     d3dx8d:pngrutil.obj
 0004:00030254       ??_C@_0CC@FECADCN@Ignoring?5bad?5adaptive?5filter?5typ@ 00568c74     d3dx8d:pngrutil.obj
 0004:0003027c       ??_C@_09BJGMGMHA@CRC?5error?$AA@ 00568c9c     d3dx8d:pngrutil.obj
 0004:00030288       ??_C@_0BO@KOOEGEDO@Unknown?5filter?5method?5in?5IHDR?$AA@ 00568ca8     d3dx8d:pngrutil.obj
 0004:000302ac       ??_C@_0CD@DDOOCEDP@Unknown?5compression?5method?5in?5IH@ 00568ccc     d3dx8d:pngrutil.obj
 0004:000302d8       ??_C@_0CB@EMHJMLOA@Unknown?5interlace?5method?5in?5IHDR@ 00568cf8     d3dx8d:pngrutil.obj
 0004:00030300       ??_C@_0DB@FGMBGHOJ@Invalid?5color?5type?1bit?5depth?5com@ 00568d20     d3dx8d:pngrutil.obj
 0004:0003033c       ??_C@_0BL@KPIFPGMP@Invalid?5color?5type?5in?5IHDR?$AA@ 00568d5c     d3dx8d:pngrutil.obj
 0004:0003035c       ??_C@_0BK@OAKOLNFJ@Invalid?5bit?5depth?5in?5IHDR?$AA@ 00568d7c     d3dx8d:pngrutil.obj
 0004:0003037c       ??_C@_0BL@PKEOJJBA@Invalid?5image?5size?5in?5IHDR?$AA@ 00568d9c     d3dx8d:pngrutil.obj
 0004:0003039c       ??_C@_0BD@CLODLFAN@Invalid?5IHDR?5chunk?$AA@ 00568dbc     d3dx8d:pngrutil.obj
 0004:000303b4       ??_C@_0BC@KBAKFAAH@Out?5of?5place?5IHDR?$AA@ 00568dd4     d3dx8d:pngrutil.obj
 0004:000303cc       ??_C@_0CH@GNNEJFAH@Truncating?5incorrect?5tRNS?5chunk?5@ 00568dec     d3dx8d:pngrutil.obj
 0004:000303fc       ??_C@_0BG@HHEHMEJK@Invalid?5palette?5chunk?$AA@ 00568e1c     d3dx8d:pngrutil.obj
 0004:00030418       ??_C@_0BF@PMKDIIMG@Duplicate?5PLTE?5chunk?$AA@ 00568e38     d3dx8d:pngrutil.obj
 0004:00030434       ??_C@_0BI@GEKPHPN@Invalid?5PLTE?5after?5IDAT?$AA@ 00568e54     d3dx8d:pngrutil.obj
 0004:00030450       ??_C@_0BJ@LEBILHKO@Missing?5IHDR?5before?5PLTE?$AA@ 00568e70     d3dx8d:pngrutil.obj
 0004:00030470       ??_C@_0BM@PFCLLCBO@Incorrect?5IEND?5chunk?5length?$AA@ 00568e90     d3dx8d:pngrutil.obj
 0004:00030494       ??_C@_0BB@BLPFHNNN@No?5image?5in?5file?$AA@ 00568eb4     d3dx8d:pngrutil.obj
 0004:000304a8       ??_C@_0DI@KINMKNNO@Ignoring?5incorrect?5gAMA?5value?5wh@ 00568ec8     d3dx8d:pngrutil.obj
 0004:000304ec       ??_C@_0BF@IMCFKHDJ@Duplicate?5gAMA?5chunk?$AA@ 00568f0c     d3dx8d:pngrutil.obj
 0004:00030508       ??_C@_0BI@JEEHFLME@Out?5of?5place?5gAMA?5chunk?$AA@ 00568f28     d3dx8d:pngrutil.obj
 0004:00030524       ??_C@_0BI@POPIJBNN@Invalid?5gAMA?5after?5IDAT?$AA@ 00568f44     d3dx8d:pngrutil.obj
 0004:00030540       ??_C@_0BM@NIAHDFBB@Incorrect?5gAMA?5chunk?5length?$AA@ 00568f60     d3dx8d:pngrutil.obj
 0004:00030564       ??_C@_0BJ@CCOIFGBO@Missing?5IHDR?5before?5gAMA?$AA@ 00568f84     d3dx8d:pngrutil.obj
 0004:00030584       ??_C@_0BE@CEGOJHBA@Unknown?5sRGB?5intent?$AA@ 00568fa4     d3dx8d:pngrutil.obj
 0004:0003059c       ??_C@_0BF@EFDCKHOG@Duplicate?5sRGB?5chunk?$AA@ 00568fbc     d3dx8d:pngrutil.obj
 0004:000305b8       ??_C@_0BI@FNFAFLBL@Out?5of?5place?5sRGB?5chunk?$AA@ 00568fd8     d3dx8d:pngrutil.obj
 0004:000305d4       ??_C@_0BI@PGAMKAKH@Invalid?5sRGB?5after?5IDAT?$AA@ 00568ff4     d3dx8d:pngrutil.obj
 0004:000305f0       ??_C@_0BM@FMAJKMKD@Incorrect?5sRGB?5chunk?5length?$AA@ 00569010     d3dx8d:pngrutil.obj
 0004:00030614       ??_C@_0BJ@NDJOEJDI@Missing?5IHDR?5before?5sRGB?$AA@ 00569034     d3dx8d:pngrutil.obj
 0004:00030634       ??_C@_0CK@JMGMOHJA@tRNS?5chunk?5not?5allowed?5with?5alph@ 00569054     d3dx8d:pngrutil.obj
 0004:00030668       ??_C@_0BM@JNMFOMLO@Incorrect?5tRNS?5chunk?5length?$AA@ 00569088     d3dx8d:pngrutil.obj
 0004:0003068c       ??_C@_0BF@HALLDFIL@Duplicate?5tRNS?5chunk?$AA@ 005690ac     d3dx8d:pngrutil.obj
 0004:000306a8       ??_C@_0BI@MMDCNIMN@Invalid?5tRNS?5after?5IDAT?$AA@ 005690c8     d3dx8d:pngrutil.obj
 0004:000306c4       ??_C@_0BH@JJNMONHM@Zero?5length?5tRNS?5chunk?$AA@ 005690e4     d3dx8d:pngrutil.obj
 0004:000306e0       ??_C@_0BJ@NIHNNFHD@Missing?5PLTE?5before?5tRNS?$AA@ 00569100     d3dx8d:pngrutil.obj
 0004:00030700       ??_C@_0BJ@DNLGINLH@Missing?5IHDR?5before?5tRNS?$AA@ 00569120     d3dx8d:pngrutil.obj
 0004:00030720       ??_C@_0BH@OMJPKJPP@unknown?5critical?5chunk?$AA@ 00569140     d3dx8d:pngrutil.obj
 0004:0003073c       ??_C@_0BH@KJLLHDND@Extra?5compression?5data?$AA@ 0056915c     d3dx8d:pngrutil.obj
 0004:00030758       ??_C@_0BE@JLEKBIKH@Decompression?5Error?$AA@ 00569178     d3dx8d:pngrutil.obj
 0004:0003108c       ??_C@_0BK@BMMPFBBH@invalid?5bit?5length?5repeat?$AA@ 00569aac     d3dx8d:infblock.obj
 0004:000310ac       ??_C@_0CE@GMIGFPBB@too?5many?5length?5or?5distance?5symb@ 00569acc     d3dx8d:infblock.obj
 0004:000310d8       ??_C@_0BN@LGAADGOK@invalid?5stored?5block?5lengths?$AA@ 00569af8     d3dx8d:infblock.obj
 0004:000310fc       ??_C@_0BD@PJCBIDD@invalid?5block?5type?$AA@ 00569b1c     d3dx8d:infblock.obj
 0004:00031114       ??_C@_0BF@CJFPCCEG@incompatible?5version?$AA@ 00569b34     d3dx8d:zutil.obj
 0004:00031130       ??_C@_0N@DFPGLBGC@buffer?5error?$AA@ 00569b50     d3dx8d:zutil.obj
 0004:00031140       ??_C@_0BE@OGGJBMCE@insufficient?5memory?$AA@ 00569b60     d3dx8d:zutil.obj
 0004:00031158       ??_C@_0L@HAHMBNLP@data?5error?$AA@ 00569b78     d3dx8d:zutil.obj
 0004:00031168       ??_C@_0N@MKKNPMJD@stream?5error?$AA@ 00569b88     d3dx8d:zutil.obj
 0004:00031178       ??_C@_0L@KIJFAKBJ@file?5error?$AA@ 00569b98     d3dx8d:zutil.obj
 0004:00031188       ??_C@_0L@FNAOCBOG@stream?5end?$AA@ 00569ba8     d3dx8d:zutil.obj
 0004:00031198       ??_C@_0BG@LBKINIKP@invalid?5distance?5code?$AA@ 00569bb8     d3dx8d:infcodes.obj
 0004:000311b4       ??_C@_0BM@FFFLPBBC@invalid?5literal?1length?5code?$AA@ 00569bd4     d3dx8d:infcodes.obj
 0004:0003142c       ??_C@_0CE@LOHAHEGK@incomplete?5dynamic?5bit?5lengths?5t@ 00569e4c     d3dx8d:inftrees.obj
 0004:00031458       ??_C@_0CI@CGMOPDPD@oversubscribed?5dynamic?5bit?5lengt@ 00569e78     d3dx8d:inftrees.obj
 0004:00031488       ??_C@_0BP@NEEEJJNA@incomplete?5literal?1length?5tree?$AA@ 00569ea8     d3dx8d:inftrees.obj
 0004:000314b0       ??_C@_0CD@GJIDGCKE@oversubscribed?5literal?1length?5tr@ 00569ed0     d3dx8d:inftrees.obj
 0004:000314dc       ??_C@_0CB@KPKKKLFO@empty?5distance?5tree?5with?5lengths@ 00569efc     d3dx8d:inftrees.obj
 0004:00031504       ??_C@_0BJ@CBCPDPJF@incomplete?5distance?5tree?$AA@ 00569f24     d3dx8d:inftrees.obj
 0004:00031524       ??_C@_0BN@KBLCDIAI@oversubscribed?5distance?5tree?$AA@ 00569f44     d3dx8d:inftrees.obj
 0005:00000000       ??0Swizzler@@QAE@XZ        0056b580 f i xgraphicsd:swizzler.obj
 0005:00000026       ?Init@Swizzler@@QAEXKKK@Z  0056b5a6 f i xgraphicsd:swizzler.obj
 0005:0000009f       ?SwizzleU@Swizzler@@QAEKK@Z 0056b61f f i xgraphicsd:swizzler.obj
 0005:000000d4       ?SwizzleV@Swizzler@@QAEKK@Z 0056b654 f i xgraphicsd:swizzler.obj
 0005:00000109       ?SwizzleW@Swizzler@@QAEKK@Z 0056b689 f i xgraphicsd:swizzler.obj
 0005:0000013e       ?SetU@Swizzler@@QAEKK@Z    0056b6be f i xgraphicsd:swizzler.obj
 0005:0000014e       ?SetV@Swizzler@@QAEKK@Z    0056b6ce f i xgraphicsd:swizzler.obj
 0005:0000015e       ?SetW@Swizzler@@QAEKK@Z    0056b6de f i xgraphicsd:swizzler.obj
 0005:0000016e       ?IncU@Swizzler@@QAEKXZ     0056b6ee f i xgraphicsd:swizzler.obj
 0005:0000017f       ?IncV@Swizzler@@QAEKXZ     0056b6ff f i xgraphicsd:swizzler.obj
 0005:00000190       ?IncW@Swizzler@@QAEKXZ     0056b710 f i xgraphicsd:swizzler.obj
 0005:000001a1       ?Get2D@Swizzler@@QAEKXZ    0056b721 f i xgraphicsd:swizzler.obj
 0005:000001a8       ?Get3D@Swizzler@@QAEKXZ    0056b728 f i xgraphicsd:swizzler.obj
 0005:000001b4       _SupportsSSE@0             0056b734 f   xgraphicsd:swizzler.obj
 0005:00000206       ?Log2@XGRAPHICS@@YIKK@Z    0056b786 f i xgraphicsd:swizzler.obj
 0005:00000216       ?GetMasks2@XGRAPHICS@@YGXHHPAK0@Z 0056b796 f i xgraphicsd:swizzler.obj
 0005:000002a7       ?swiz2d_8bit@XGRAPHICS@@YGXPBXPAXHH@Z 0056b827 f   xgraphicsd:swizzler.obj
 0005:000003e7       ?swiz2d_16bit@XGRAPHICS@@YGXPBXPAXHH@Z 0056b967 f   xgraphicsd:swizzler.obj
 0005:00000538       ?swiz2d_32bit@XGRAPHICS@@YGXPBXPAXHH@Z 0056bab8 f   xgraphicsd:swizzler.obj
 0005:00000683       ?unswiz2d_8bit@XGRAPHICS@@YGXPBXPAXHH@Z 0056bc03 f   xgraphicsd:swizzler.obj
 0005:0000079e       ?unswiz2d_16bit@XGRAPHICS@@YGXPBXPAXHH@Z 0056bd1e f   xgraphicsd:swizzler.obj
 0005:00000930       ?unswiz2d_32bit@XGRAPHICS@@YGXPBXPAXHH@Z 0056beb0 f   xgraphicsd:swizzler.obj
 0005:00000a8e       _XGIsSwizzledFormat@4      0056c00e f   xgraphicsd:swizzler.obj
 0005:00000ae6       _XGBytesPerPixelFromFormat@4 0056c066 f   xgraphicsd:swizzler.obj
 0005:00000b84       ??0XGINTERNALSWIZZLE@XGRAPHICS@@QAE@XZ 0056c104 f i xgraphicsd:swizzler.obj
 0005:00000b96       ?Swizzle1x1Column@?$XGInternalSwizzler@K@XGRAPHICS@@SGXPAUXGINTERNALSWIZZLE@2@@Z 0056c116 f i xgraphicsd:swizzler.obj
 0005:00000c37       ?Unswizzle1x1Column@?$XGInternalSwizzler@K@XGRAPHICS@@SGXPAUXGINTERNALSWIZZLE@2@@Z 0056c1b7 f i xgraphicsd:swizzler.obj
 0005:00000cd8       ?Swizzle2x1@?$XGInternalSwizzler@K@XGRAPHICS@@SGXPAUXGINTERNALSWIZZLE@2@@Z 0056c258 f i xgraphicsd:swizzler.obj
 0005:00000de1       ?Unswizzle2x1@?$XGInternalSwizzler@K@XGRAPHICS@@SGXPAUXGINTERNALSWIZZLE@2@@Z 0056c361 f i xgraphicsd:swizzler.obj
 0005:00000eea       ?Swizzle1x1Column@?$XGInternalSwizzler@G@XGRAPHICS@@SGXPAUXGINTERNALSWIZZLE@2@@Z 0056c46a f i xgraphicsd:swizzler.obj
 0005:00000f8d       ?Unswizzle1x1Column@?$XGInternalSwizzler@G@XGRAPHICS@@SGXPAUXGINTERNALSWIZZLE@2@@Z 0056c50d f i xgraphicsd:swizzler.obj
 0005:00001030       ?Swizzle2x1@?$XGInternalSwizzler@G@XGRAPHICS@@SGXPAUXGINTERNALSWIZZLE@2@@Z 0056c5b0 f i xgraphicsd:swizzler.obj
 0005:0000112f       ?Unswizzle2x1@?$XGInternalSwizzler@G@XGRAPHICS@@SGXPAUXGINTERNALSWIZZLE@2@@Z 0056c6af f i xgraphicsd:swizzler.obj
 0005:0000122e       ?Swizzle1x1Column@?$XGInternalSwizzler@E@XGRAPHICS@@SGXPAUXGINTERNALSWIZZLE@2@@Z 0056c7ae f i xgraphicsd:swizzler.obj
 0005:000012c7       ?Unswizzle1x1Column@?$XGInternalSwizzler@E@XGRAPHICS@@SGXPAUXGINTERNALSWIZZLE@2@@Z 0056c847 f i xgraphicsd:swizzler.obj
 0005:00001360       ?Swizzle2x1@?$XGInternalSwizzler@_J@XGRAPHICS@@SGXPAUXGINTERNALSWIZZLE@2@@Z 0056c8e0 f i xgraphicsd:swizzler.obj
 0005:00001473       ?Unswizzle2x1@?$XGInternalSwizzler@_J@XGRAPHICS@@SGXPAUXGINTERNALSWIZZLE@2@@Z 0056c9f3 f i xgraphicsd:swizzler.obj
 0005:00001586       ??0Swizzler@@QAE@KKK@Z     0056cb06 f i xgraphicsd:swizzler.obj
 0005:000015a7       ?XGInternalSwizzle1x1Column@XGRAPHICS@@YGXPAUXGINTERNALSWIZZLE@1@@Z 0056cb27 f i xgraphicsd:swizzler.obj
 0005:000015dc       ?XGInternalSwizzle2x1@XGRAPHICS@@YGXPAUXGINTERNALSWIZZLE@1@@Z 0056cb5c f i xgraphicsd:swizzler.obj
 0005:00001611       ?XGInternalUnswizzle1x1Column@XGRAPHICS@@YGXPAUXGINTERNALSWIZZLE@1@@Z 0056cb91 f i xgraphicsd:swizzler.obj
 0005:00001646       ?XGInternalUnswizzle2x1@XGRAPHICS@@YGXPAUXGINTERNALSWIZZLE@1@@Z 0056cbc6 f i xgraphicsd:swizzler.obj
 0005:0000167b       _XGSwizzleRect@32          0056cbfb f   xgraphicsd:swizzler.obj
 0005:000020b4       _XGUnswizzleRect@32        0056d634 f   xgraphicsd:swizzler.obj
 0005:00002acb       _XGSwizzleBox@40           0056e04b f   xgraphicsd:swizzler.obj
 0005:00002e1e       _XGUnswizzleBox@40         0056e39e f   xgraphicsd:swizzler.obj
 0005:00003177       ?Epsilon@XGRAPHICS@@YG_NMMM@Z 0056e6f7 f   xgraphicsd:api.obj
 0005:000031b4       _XGBuffer_AddRef@4         0056e734 f   xgraphicsd:api.obj
 0005:000031c5       _XGBuffer_GetBufferPointer@4 0056e745 f   xgraphicsd:api.obj
 0005:000031d5       _XGBuffer_GetBufferSize@4  0056e755 f   xgraphicsd:api.obj
 0005:000031e5       ??0Buffer@XGRAPHICS@@QAE@XZ 0056e765 f   xgraphicsd:api.obj
 0005:000031f5       ?GetText@Buffer@XGRAPHICS@@QAEPADXZ 0056e775 f   xgraphicsd:api.obj
 0005:000031f9       ?GetTextEnd@Buffer@XGRAPHICS@@QAEPADXZ 0056e779 f   xgraphicsd:api.obj
 0005:00003200       ?GetUsed@Buffer@XGRAPHICS@@QAEKXZ 0056e780 f   xgraphicsd:api.obj
 0005:00003204       ?Clear@Buffer@XGRAPHICS@@QAEXXZ 0056e784 f   xgraphicsd:api.obj
 0005:00003216       ?PrintVerOpcode@XGRAPHICS@@YGXW4VerOpcode@1@@Z 0056e796 f   xgraphicsd:api.obj
 0005:000035b6       ?VerOpParamCount@XGRAPHICS@@YGHW4VerOpcode@1@@Z 0056eb36 f   xgraphicsd:api.obj
 0005:000036ac       ??0VerConstTableList@XGRAPHICS@@QAE@XZ 0056ec2c f i xgraphicsd:api.obj
 0005:000036b8       ??0VerOpList@XGRAPHICS@@QAE@XZ 0056ec38 f i xgraphicsd:api.obj
 0005:000036c4       ?FindData@VerOpList@XGRAPHICS@@QAE_NPAVVerOp@2@@Z 0056ec44 f i xgraphicsd:api.obj
 0005:000036e8       ??1VerOpList@XGRAPHICS@@QAE@XZ 0056ec68 f i xgraphicsd:api.obj
 0005:0000370b       ??0VerOp@XGRAPHICS@@AAE@XZ 0056ec8b f i xgraphicsd:api.obj
 0005:0000371f       ?AddRef@VerOp@XGRAPHICS@@QAEHXZ 0056ec9f f i xgraphicsd:api.obj
 0005:00003724       ??0VerNode@XGRAPHICS@@QAE@XZ 0056eca4 f i xgraphicsd:api.obj
 0005:00003749       ??1VerNode@XGRAPHICS@@QAE@XZ 0056ecc9 f i xgraphicsd:api.obj
 0005:0000374e       ?TinyValidate@VerNode@XGRAPHICS@@QAE_NXZ 0056ecce f i xgraphicsd:api.obj
 0005:00003797       ?Copy@VerOp@XGRAPHICS@@QAEPAV12@XZ 0056ed17 f   xgraphicsd:api.obj
 0005:0000379c       ??0VerTable@XGRAPHICS@@AAE@XZ 0056ed1c f i xgraphicsd:api.obj
 0005:0000379f       ??0TLEngineSim@XGRAPHICS@@QAE@XZ 0056ed1f f i xgraphicsd:api.obj
 0005:000037a2       ??1TLEngineSim@XGRAPHICS@@QAE@XZ 0056ed22 f i xgraphicsd:api.obj
 0005:000037a3       ?CalculateFinalStall@TLEngineSim@XGRAPHICS@@QAEMAAW4StallType@2@@Z 0056ed23 f i xgraphicsd:api.obj
 0005:0000385d       ?MacOpType@TLEngineSim@XGRAPHICS@@QAE?AW4OpType@12@PBU_D3DVsInstruction@@@Z 0056eddd f i xgraphicsd:api.obj
 0005:0000388b       ?ILUOpType@TLEngineSim@XGRAPHICS@@QAE?AW4OpType@12@PBU_D3DVsInstruction@@@Z 0056ee0b f i xgraphicsd:api.obj
 0005:000038a7       ?Bank@TLEngineSim@XGRAPHICS@@CG_NK@Z 0056ee27 f i xgraphicsd:api.obj
 0005:000038bb       ?Clear@STRegScoreboard@TLEngineSim@XGRAPHICS@@QAEXXZ 0056ee3b f i xgraphicsd:api.obj
 0005:000038e9       ?Start@STRegScoreboard@TLEngineSim@XGRAPHICS@@QAEXW4OpType@23@EEH@Z 0056ee69 f i xgraphicsd:api.obj
 0005:00003936       ?Ready@STRegScoreboard@TLEngineSim@XGRAPHICS@@QAE_NEHH@Z 0056eeb6 f i xgraphicsd:api.obj
 0005:0000395b       ?Clear@RegScoreboard@TLEngineSim@XGRAPHICS@@QAEXH@Z 0056eedb f i xgraphicsd:api.obj
 0005:000039f8       ?StartNewInstruction@RegScoreboard@TLEngineSim@XGRAPHICS@@QAEXXZ 0056ef78 f i xgraphicsd:api.obj
 0005:00003a93       ?Start@RegScoreboard@TLEngineSim@XGRAPHICS@@QAEXW4OpType@23@EEMW4StallType@3@@Z 0056f013 f i xgraphicsd:api.obj
 0005:000041c8       ?Ready@RegScoreboard@TLEngineSim@XGRAPHICS@@QAEMEH_NAAW4StallType@3@@Z 0056f748 f i xgraphicsd:api.obj
 0005:00004210       ?CombinedWriteMask@OutRegMaskSet@DeadCodeStripper@XGRAPHICS@@QBEEXZ 0056f790 f i xgraphicsd:api.obj
 0005:00004227       ?MacWriteMask@OutRegMaskSet@DeadCodeStripper@XGRAPHICS@@QBEEXZ 0056f7a7 f i xgraphicsd:api.obj
 0005:0000423d       ?IluWriteMask@OutRegMaskSet@DeadCodeStripper@XGRAPHICS@@QBEEXZ 0056f7bd f i xgraphicsd:api.obj
 0005:00004253       ??0DeadCodeStripper@XGRAPHICS@@QAE@XZ 0056f7d3 f i xgraphicsd:api.obj
 0005:00004256       ??1DeadCodeStripper@XGRAPHICS@@QAE@XZ 0056f7d6 f i xgraphicsd:api.obj
 0005:00004257       ?IsMacMovRegNOP@DeadCodeStripper@XGRAPHICS@@SG_NABU_D3DVsInstruction@@@Z 0056f7d7 f i xgraphicsd:api.obj
 0005:000042fa       ?IsMacMovConstNOP@DeadCodeStripper@XGRAPHICS@@SG_NABU_D3DVsInstruction@@@Z 0056f87a f i xgraphicsd:api.obj
 0005:000043c0       ?IsIluMovRegNOP@DeadCodeStripper@XGRAPHICS@@SG_NABU_D3DVsInstruction@@@Z 0056f940 f i xgraphicsd:api.obj
 0005:00004492       ?IsIluMovConstNOP@DeadCodeStripper@XGRAPHICS@@SG_NABU_D3DVsInstruction@@@Z 0056fa12 f i xgraphicsd:api.obj
 0005:00004564       ?RemoveNullMoves@DeadCodeStripper@XGRAPHICS@@SGJAAU_D3DVsInstruction@@@Z 0056fae4 f i xgraphicsd:api.obj
 0005:000045bf       ?IsNOP@DeadCodeStripper@XGRAPHICS@@SG_NABU_D3DVsInstruction@@@Z 0056fb3f f i xgraphicsd:api.obj
 0005:0000468f       ?CalcOutputMasks@DeadCodeStripper@XGRAPHICS@@SGJABU_D3DVsInstruction@@AAUOutRegMaskSet@12@@Z 0056fc0f f i xgraphicsd:api.obj
 0005:000047b9       ?UpdateCode@DeadCodeStripper@XGRAPHICS@@SGJAAU_D3DVsInstruction@@ABUOutRegMaskSet@12@@Z 0056fd39 f i xgraphicsd:api.obj
 0005:00004938       ?UnswizzleMask@DeadCodeStripper@XGRAPHICS@@SGJAAEEGGGG@Z 0056feb8 f i xgraphicsd:api.obj
 0005:000049ab       ?CalcInputReg@DeadCodeStripper@XGRAPHICS@@SGJEAAUInRegMaskSet@12@AAEABU_D3DVsInstruction@@GG@Z 0056ff2b f i xgraphicsd:api.obj
 0005:00004a30       ?NarrowOutputMask@DeadCodeStripper@XGRAPHICS@@QAEJABU_D3DVsInstruction@@AAURegMask@12@@Z 0056ffb0 f i xgraphicsd:api.obj
 0005:00004aa8       ?RecordOutputMask@DeadCodeStripper@XGRAPHICS@@QAEJABU_D3DVsInstruction@@ABURegMask@12@@Z 00570028 f i xgraphicsd:api.obj
 0005:00004af6       ?RecordInputMask@DeadCodeStripper@XGRAPHICS@@QAEJABU_D3DVsInstruction@@ABURegMask@12@PBD@Z 00570076 f i xgraphicsd:api.obj
 0005:00004b73       ?InitRegisters@DeadCodeStripper@XGRAPHICS@@QAEJK@Z 005700f3 f i xgraphicsd:api.obj
 0005:00004bda       ??0RegSet@Reorderer@XGRAPHICS@@QAE@XZ 0057015a f i xgraphicsd:api.obj
 0005:00004bdd       ?Clear@RegSet@Reorderer@XGRAPHICS@@QAEXXZ 0057015d f i xgraphicsd:api.obj
 0005:00004c17       ?DirtyConflictTest@RegSet@Reorderer@XGRAPHICS@@QBE_NPBE0K@Z 00570197 f i xgraphicsd:api.obj
 0005:00004c4e       ?DirtyOut@RegSet@Reorderer@XGRAPHICS@@QAEJPAU_D3DVsInstruction@@@Z 005701ce f i xgraphicsd:api.obj
 0005:00004d68       ?MuxReadDirty@RegSet@Reorderer@XGRAPHICS@@AAE_NPBU_D3DVsInstruction@@KKKKKKKE@Z 005702e8 f i xgraphicsd:api.obj
 0005:00004e26       ??0Reorderer@XGRAPHICS@@QAE@XZ 005703a6 f i xgraphicsd:api.obj
 0005:00004e29       ?MoveInstruction@Reorderer@XGRAPHICS@@AAEJHH@Z 005703a9 f i xgraphicsd:api.obj
 0005:00004efc       ?PairInstructions@Reorderer@XGRAPHICS@@AAEJHHPBU_D3DVsInstruction@@@Z 0057047c f i xgraphicsd:api.obj
 0005:00004f5d       ??0InstructionDisassembler@XGRAPHICS@@QAE@XZ 005704dd f i xgraphicsd:api.obj
 0005:00004f60       ??1InstructionDisassembler@XGRAPHICS@@QAE@XZ 005704e0 f i xgraphicsd:api.obj
 0005:00004f61       ?RegisterWriteMask@InstructionDisassembler@XGRAPHICS@@CGPBDK@Z 005704e1 f i xgraphicsd:api.obj
 0005:00005015       ??0Renamer@XGRAPHICS@@QAE@XZ 00570595 f i xgraphicsd:api.obj
 0005:00005018       ?EligableInstructions@Renamer@XGRAPHICS@@AAEJPBU_D3DVertexShaderProgram@@PA_N@Z 00570598 f i xgraphicsd:api.obj
 0005:000050c8       ?UpdateInput@Renamer@XGRAPHICS@@AAEXEEEEEEEPAGPBGG@Z 00570648 f i xgraphicsd:api.obj
 0005:000053f9       ?UpdateComponentUse@Renamer@XGRAPHICS@@AAEXGGE_N@Z 00570979 f i xgraphicsd:api.obj
 0005:0000546f       ?IsRegFree@Renamer@XGRAPHICS@@AAE_NPBGEG@Z 005709ef f i xgraphicsd:api.obj
 0005:00005506       ?AssignReg@Renamer@XGRAPHICS@@AAEJPAGEG@Z 00570a86 f i xgraphicsd:api.obj
 0005:000055e9       ?AssignFreeReg@Renamer@XGRAPHICS@@AAEJPAGG_N@Z 00570b69 f i xgraphicsd:api.obj
 0005:00005695       ?RemapVRegs2End@Renamer@XGRAPHICS@@AAEJPAG0G@Z 00570c15 f i xgraphicsd:api.obj
 0005:00005732       ?CalcSwizzledWriteMask@Renamer@XGRAPHICS@@AAEEEPBUVRegInfo@12@@Z 00570cb2 f i xgraphicsd:api.obj
 0005:0000577a       ?ConvertPackedDWordsToUCode@XGRAPHICS@@YGXPBKPAU_D3DVsInstruction@@@Z 00570cfa f   xgraphicsd:api.obj
 0005:0000581c       ?OutputsConflict_MAC_ILU@XGRAPHICS@@YG_NPBU_D3DVsInstruction@@0@Z 00570d9c f   xgraphicsd:api.obj
 0005:00005882       ?ConvertToImv@XGRAPHICS@@YG_NPAU_D3DVsInstruction@@PBU2@@Z 00570e02 f   xgraphicsd:api.obj
 0005:00005a30       ?SwapAC@XGRAPHICS@@YG_NPAU_D3DVsInstruction@@PBU2@@Z 00570fb0 f   xgraphicsd:api.obj
 0005:00005b89       ?StripMacInstruction@XGRAPHICS@@YGXPAU_D3DVsInstruction@@@Z 00571109 f   xgraphicsd:api.obj
 0005:00005bfd       ?NullSwizzle@XGRAPHICS@@YG_NKKKKKK@Z 0057117d f   xgraphicsd:api.obj
 0005:00005c4b       ?ReadsFromConst@XGRAPHICS@@YG_NPBU_D3DVsInstruction@@@Z 005711cb f   xgraphicsd:api.obj
 0005:00005cd8       ?CompatableConstUsage@XGRAPHICS@@YG_NPBU_D3DVsInstruction@@0@Z 00571258 f   xgraphicsd:api.obj
 0005:00005d28       ?PairableMasks2@XGRAPHICS@@YG_NPAU_D3DVsInstruction@@PBU2@1@Z 005712a8 f   xgraphicsd:api.obj
 0005:00005e8b       ?SourcesEqual@XGRAPHICS@@YG_NKKKPBU_D3DVsInstruction@@KKK0@Z 0057140b f   xgraphicsd:api.obj
 0005:00005f05       ?ComputePostSwizzleUseMasks@XGRAPHICS@@YGXPBU_D3DVsInstruction@@PAE@Z 00571485 f   xgraphicsd:api.obj
 0005:00005fc9       ?ComputeEffectiveSwizzle@XGRAPHICS@@YGXEEEEEPAD@Z 00571549 f   xgraphicsd:api.obj
 0005:0000602d       ?ComputeEffectiveSwizzles@XGRAPHICS@@YGXPBU_D3DVsInstruction@@PAD@Z 005715ad f   xgraphicsd:api.obj
 0005:000060fd       ?ComputeEffectiveReadMask@XGRAPHICS@@YGEEEEE@Z 0057167d f   xgraphicsd:api.obj
 0005:00006157       ?ComputeEffectiveReadMask@XGRAPHICS@@YGEPBU_D3DVsInstruction@@H@Z 005716d7 f   xgraphicsd:api.obj
 0005:000061e0       ?CanUseXYZW@XGRAPHICS@@YG_NPBD@Z 00571760 f   xgraphicsd:api.obj
 0005:0000622c       ?PickDefault@XGRAPHICS@@YGDPBD@Z 005717ac f   xgraphicsd:api.obj
 0005:00006261       ?ChooseBestSwizzle@XGRAPHICS@@YGKDDD@Z 005717e1 f   xgraphicsd:api.obj
 0005:00006282       ?SetSwizzles@XGRAPHICS@@YGXPAU_D3DVsInstruction@@PBD@Z 00571802 f   xgraphicsd:api.obj
 0005:000064a3       ?MergeSwizzles@XGRAPHICS@@YG_NPAU_D3DVsInstruction@@PBU2@1@Z 00571a23 f   xgraphicsd:api.obj
 0005:00006511       ?MacUsesMX@XGRAPHICS@@YG_NPBU_D3DVsInstruction@@K@Z 00571a91 f   xgraphicsd:api.obj
 0005:00006587       ?IluUsesMX@XGRAPHICS@@YG_NPBU_D3DVsInstruction@@K@Z 00571b07 f   xgraphicsd:api.obj
 0005:000065b4       ?UsesMX@XGRAPHICS@@YG_NPBU_D3DVsInstruction@@K@Z 00571b34 f   xgraphicsd:api.obj
 0005:000065eb       ?UsesCA@XGRAPHICS@@YG_NPBU_D3DVsInstruction@@@Z 00571b6b f   xgraphicsd:api.obj
 0005:00006600       ?UsesVA@XGRAPHICS@@YG_NPBU_D3DVsInstruction@@@Z 00571b80 f   xgraphicsd:api.obj
 0005:00006615       ?PairableMulAdd@XGRAPHICS@@YG_NPAU_D3DVsInstruction@@PBU2@1@Z 00571b95 f   xgraphicsd:api.obj
 0005:00006a02       ?UsesA@XGRAPHICS@@YG_NPBU_D3DVsInstruction@@@Z 00571f82 f   xgraphicsd:api.obj
 0005:00006a21       ?UsesB@XGRAPHICS@@YG_NPBU_D3DVsInstruction@@@Z 00571fa1 f   xgraphicsd:api.obj
 0005:00006a40       ?UsesC@XGRAPHICS@@YG_NPBU_D3DVsInstruction@@@Z 00571fc0 f   xgraphicsd:api.obj
 0005:00006a77       ?ExpandRegisterOutputMasks@XGRAPHICS@@YGXPAUOutPair@1@PBU_D3DVsInstruction@@@Z 00571ff7 f   xgraphicsd:api.obj
 0005:00006b17       ?SetRegisterOutputMasks@XGRAPHICS@@YG_NPAU_D3DVsInstruction@@PBUOutPair@1@@Z 00572097 f   xgraphicsd:api.obj
 0005:00006ba4       ?MergeRegisterOutputMasks@XGRAPHICS@@YG_NPAU_D3DVsInstruction@@PBU2@1@Z 00572124 f   xgraphicsd:api.obj
 0005:00006c78       ?ForcedPair2@XGRAPHICS@@YG_NPAU_D3DVsInstruction@@PBU2@1PAK@Z 005721f8 f   xgraphicsd:api.obj
 0005:00007053       ?ForcedPair@XGRAPHICS@@YG_NPAU_D3DVsInstruction@@PBU2@1PAK@Z 005725d3 f   xgraphicsd:api.obj
 0005:000070e2       ??0XD3DXErrorLog@XGRAPHICS@@QAE@XZ 00572662 f i xgraphicsd:api.obj
 0005:000070ed       ??1Reorderer@XGRAPHICS@@QAE@XZ 0057266d f i xgraphicsd:api.obj
 0005:000070ee       ?ConvertMicrocodeToVsInstructions@Assembler@XGRAPHICS@@SGJ_NKPBXPAU_D3DVertexShaderProgram@@PAKPAUXD3DXErrorLog@2@@Z 0057266e f i xgraphicsd:api.obj
 0005:0000726b       ?ConvertMicrocodeToVsInstructions@Assembler@XGRAPHICS@@AAEJPAU_D3DVertexShaderProgram@@PAKPAUXD3DXErrorLog@2@@Z 005727eb f i xgraphicsd:api.obj
 0005:00007294       ?AddRef@XGBuffer@@QAGKXZ   00572814 f i xgraphicsd:api.obj
 0005:0000729f       ?Release@XGBuffer@@QAGKXZ  0057281f f i xgraphicsd:api.obj
 0005:000072aa       ?GetBufferPointer@XGBuffer@@QAGPAXXZ 0057282a f i xgraphicsd:api.obj
 0005:000072b5       ?GetBufferSize@XGBuffer@@QAGKXZ 00572835 f i xgraphicsd:api.obj
 0005:000072c0       _XGSUCode_GetVertexShaderType@4 00572840 f   xgraphicsd:api.obj
 0005:00007308       _XGSUCode_GetVertexShaderLength@4 00572888 f   xgraphicsd:api.obj
 0005:00007381       ?BASE_REG@XGRAPHICS@@YGKK@Z 00572901 f   xgraphicsd:api.obj
 0005:00007429       ?MapDX8ToUcode@XGRAPHICS@@YGHK@Z 005729a9 f   xgraphicsd:api.obj
 0005:00007454       ?GetEnumeratedReg@XGRAPHICS@@YG?AW4Register_Enum@@K@Z 005729d4 f   xgraphicsd:api.obj
 0005:000074ca       ?IsTempReg@XGRAPHICS@@YG_NW4Register_Enum@@@Z 00572a4a f   xgraphicsd:api.obj
 0005:000074f2       ?IsConstantReg@XGRAPHICS@@YG_NW4Register_Enum@@@Z 00572a72 f   xgraphicsd:api.obj
 0005:00007516       ?IsInputReg@XGRAPHICS@@YG_NW4Register_Enum@@@Z 00572a96 f   xgraphicsd:api.obj
 0005:00007530       ?IsOutputReg@XGRAPHICS@@YG_NW4Register_Enum@@@Z 00572ab0 f   xgraphicsd:api.obj
 0005:00007550       ?MarkAsUsed@XGRAPHICS@@YGXKPAD@Z 00572ad0 f   xgraphicsd:api.obj
 0005:0000758d       ?HasYBeenUsed@XGRAPHICS@@YG_ND@Z 00572b0d f   xgraphicsd:api.obj
 0005:000075a1       ?HasZBeenUsed@XGRAPHICS@@YG_ND@Z 00572b21 f   xgraphicsd:api.obj
 0005:000075b6       ?IsScalarIluInstruction@XGRAPHICS@@YG_NH@Z 00572b36 f   xgraphicsd:api.obj
 0005:000075d5       ?D3DTokensToUCode@XGRAPHICS@@YGJPBKPAU_D3DVertexShaderProgram@@PAUXD3DXErrorLog@1@@Z 00572b55 f   xgraphicsd:api.obj
 0005:000084c1       _XGraphicsBuildVersion@0   00573a41 f   xgraphicsd:api.obj
 0005:000084c7       _XGBuffer_Release@4        00573a47 f   xgraphicsd:api.obj
 0005:0000850d       _XGBufferCreate@8          00573a8d f   xgraphicsd:api.obj
 0005:00008582       ??1Buffer@XGRAPHICS@@QAE@XZ 00573b02 f   xgraphicsd:api.obj
 0005:00008599       ?GrowTo@Buffer@XGRAPHICS@@QAEJK@Z 00573b19 f   xgraphicsd:api.obj
 0005:00008636       ?Printf@Buffer@XGRAPHICS@@QAAJPBDZZ 00573bb6 f   xgraphicsd:api.obj
 0005:0000869c       ?Append@Buffer@XGRAPHICS@@QAEJPBXK@Z 00573c1c f   xgraphicsd:api.obj
 0005:000086f6       ?Append@Buffer@XGRAPHICS@@QAEJD@Z 00573c76 f   xgraphicsd:api.obj
 0005:0000870c       ?Append@Buffer@XGRAPHICS@@QAEJPBD@Z 00573c8c f   xgraphicsd:api.obj
 0005:00008735       ?Append@Buffer@XGRAPHICS@@QAEJAAV12@@Z 00573cb5 f   xgraphicsd:api.obj
 0005:00008751       ?SetData@VerOpList@XGRAPHICS@@QAEXPAVVerOp@2@@Z 00573cd1 f i xgraphicsd:api.obj
 0005:000087a3       ??_GVerOpList@XGRAPHICS@@QAEPAXI@Z 00573d23 f i xgraphicsd:api.obj
 0005:000087d3       ?EncaseOpWithNode@VerNode@XGRAPHICS@@SGPAV12@PAVVerOp@2@@Z 00573d53 f i xgraphicsd:api.obj
 0005:00008835       ??_GVerNode@XGRAPHICS@@QAEPAXI@Z 00573db5 f i xgraphicsd:api.obj
 0005:00008865       ?ClobberSameList@XGRAPHICS@@YG_NPAVVerNode@1@@Z 00573de5 f   xgraphicsd:api.obj
 0005:000088a1       ??_EVerNode@XGRAPHICS@@QAEPAXI@Z 00573e21 f i xgraphicsd:api.obj
 0005:00008914       ?Propegate2@VerTable@XGRAPHICS@@AAE_NP6G_NPAVVerNode@2@@Z0PAX@Z 00573e94 f i xgraphicsd:api.obj
 0005:00008a00       ?Propegate@VerTable@XGRAPHICS@@QAE_NP6G_NPAVVerNode@2@@Z@Z 00573f80 f i xgraphicsd:api.obj
 0005:00008a51       ?Cleanup@VerTable@XGRAPHICS@@QAEXXZ 00573fd1 f i xgraphicsd:api.obj
 0005:00008a71       ?Clear@TLEngineSim@XGRAPHICS@@QAEJH@Z 00573ff1 f i xgraphicsd:api.obj
 0005:00008ab9       ?STDoOut@TLEngineSim@XGRAPHICS@@AAEJPBU_D3DVsInstruction@@@Z 00574039 f i xgraphicsd:api.obj
 0005:00008c53       ?DoOut@TLEngineSim@XGRAPHICS@@AAEJPBU_D3DVsInstruction@@W4StallType@2@@Z 005741d3 f i xgraphicsd:api.obj
 0005:00008de5       ?RegReady@TLEngineSim@XGRAPHICS@@AAEMPBU_D3DVsInstruction@@EEEMAAW4StallType@2@@Z 00574365 f i xgraphicsd:api.obj
 0005:00008e85       ?TakeBypass@STRegScoreboard@TLEngineSim@XGRAPHICS@@QAE_NPBU_D3DVsInstruction@@KEEH@Z 00574405 f i xgraphicsd:api.obj
 0005:00008f67       ?CalcInputMasks@DeadCodeStripper@XGRAPHICS@@SGJABU_D3DVsInstruction@@ABUOutRegMaskSet@12@AAUInRegMaskSet@12@@Z 005744e7 f i xgraphicsd:api.obj
 0005:0000926f       ?NarrowOutputMasks@DeadCodeStripper@XGRAPHICS@@QAEJABU_D3DVsInstruction@@AAUOutRegMaskSet@12@@Z 005747ef f i xgraphicsd:api.obj
 0005:000092ed       ?RecordOutputMasks@DeadCodeStripper@XGRAPHICS@@QAEJABU_D3DVsInstruction@@ABUOutRegMaskSet@12@@Z 0057486d f i xgraphicsd:api.obj
 0005:0000936b       ?RecordInputMasks@DeadCodeStripper@XGRAPHICS@@QAEJABU_D3DVsInstruction@@ABUInRegMaskSet@12@@Z 005748eb f i xgraphicsd:api.obj
 0005:000093e3       ?DirtyConflict@RegSet@Reorderer@XGRAPHICS@@QBE_NPBV123@@Z 00574963 f i xgraphicsd:api.obj
 0005:00009461       ?ADirty@RegSet@Reorderer@XGRAPHICS@@AAE_NPBU_D3DVsInstruction@@E@Z 005749e1 f i xgraphicsd:api.obj
 0005:000094c8       ?BDirty@RegSet@Reorderer@XGRAPHICS@@AAE_NPBU_D3DVsInstruction@@E@Z 00574a48 f i xgraphicsd:api.obj
 0005:00009532       ?CDirty@RegSet@Reorderer@XGRAPHICS@@AAE_NPBU_D3DVsInstruction@@E@Z 00574ab2 f i xgraphicsd:api.obj
 0005:00009598       ?DoMac@RegSet@Reorderer@XGRAPHICS@@AAEJPBU_D3DVsInstruction@@AA_N@Z 00574b18 f i xgraphicsd:api.obj
 0005:00009744       ?DoILU@RegSet@Reorderer@XGRAPHICS@@AAEJPBU_D3DVsInstruction@@AA_N@Z 00574cc4 f i xgraphicsd:api.obj
 0005:000097bd       ?ParseOut@InstructionDisassembler@XGRAPHICS@@AAEJPBU_D3DVsInstruction@@_N1@Z 00574d3d f i xgraphicsd:api.obj
 0005:0000995c       ?ParseMux@InstructionDisassembler@XGRAPHICS@@AAEJDHHHHHHHPBU_D3DVsInstruction@@_N@Z 00574edc f i xgraphicsd:api.obj
 0005:00009bc3       ?UpdateOutput@Renamer@XGRAPHICS@@AAEXEEPAG0G_N@Z 00575143 f i xgraphicsd:api.obj
 0005:00009ca4       ?RemapVRegs2Start@Renamer@XGRAPHICS@@AAEJGPAGG@Z 00575224 f i xgraphicsd:api.obj
 0005:00009d53       ?RemapCode@Renamer@XGRAPHICS@@AAEJXZ 005752d3 f i xgraphicsd:api.obj
 0005:0000a02f       ?InputsConflict_MAC_ILU@XGRAPHICS@@YG_NPBU_D3DVsInstruction@@0@Z 005755af f   xgraphicsd:api.obj
 0005:0000a1ed       ?InputOutputDependency@XGRAPHICS@@YG_NPBU_D3DVsInstruction@@0@Z 0057576d f   xgraphicsd:api.obj
 0005:0000a62a       ?Pairable@XGRAPHICS@@YG_NPAU_D3DVsInstruction@@PBU2@1@Z 00575baa f   xgraphicsd:api.obj
 0005:0000a6b9       ?PairableMasks1@XGRAPHICS@@YG_NPAU_D3DVsInstruction@@PBU2@1@Z 00575c39 f   xgraphicsd:api.obj
 0005:0000a980       ?PairableMasks3@XGRAPHICS@@YG_NPAU_D3DVsInstruction@@PBU2@1@Z 00575f00 f   xgraphicsd:api.obj
 0005:0000abde       ?PairableMasks@XGRAPHICS@@YG_NPAU_D3DVsInstruction@@PBU2@1@Z 0057615e f   xgraphicsd:api.obj
 0005:0000ac1c       ?PeepholePairOutputMasks@XGRAPHICS@@YGJPAU_D3DVertexShaderProgram@@@Z 0057619c f   xgraphicsd:api.obj
 0005:0000acbe       ?SequentialPairable@XGRAPHICS@@YG_NPAU_D3DVsInstruction@@PBU2@1@Z 0057623e f   xgraphicsd:api.obj
 0005:0000ad1e       ?PeepholePair1@XGRAPHICS@@YGJPAU_D3DVertexShaderProgram@@@Z 0057629e f   xgraphicsd:api.obj
 0005:0000add0       ?PeepholePair2@XGRAPHICS@@YGJPAU_D3DVertexShaderProgram@@@Z 00576350 f   xgraphicsd:api.obj
 0005:0000ae82       ?ListD3DTokens@XGRAPHICS@@YGJPAVBuffer@1@PBKK@Z 00576402 f   xgraphicsd:api.obj
 0005:0000aec1       ??0MyErrorLog@XGRAPHICS@@QAE@XZ 00576441 f i xgraphicsd:api.obj
 0005:0000aed6       ?Log@MyErrorLog@XGRAPHICS@@UAEJ_NKPBDK1@Z 00576456 f i xgraphicsd:api.obj
 0005:0000af5d       ??_GBuffer@XGRAPHICS@@QAEPAXI@Z 005764dd f i xgraphicsd:api.obj
 0005:0000af8d       ?XGBufferCreateFromBuffer@XGRAPHICS@@YGJPAVBuffer@1@PAPAUXGBuffer@@@Z 0057650d f   xgraphicsd:api.obj
 0005:0000aff1       ?StripDebugInfo@Assembler@XGRAPHICS@@AAEJPAUXGBuffer@@@Z 00576571 f i xgraphicsd:api.obj
 0005:0000b217       ?Initialize@Buffer@XGRAPHICS@@QAEJK@Z 00576797 f   xgraphicsd:api.obj
 0005:0000b227       ?Copy@VerNode@XGRAPHICS@@QAEPAV12@XZ 005767a7 f i xgraphicsd:api.obj
 0005:0000b2b6       ?Cleanup@VerNode@XGRAPHICS@@QAEXXZ 00576836 f i xgraphicsd:api.obj
 0005:0000b315       ?Cleanup@VerOp@XGRAPHICS@@AAEXXZ 00576895 f   xgraphicsd:api.obj
 0005:0000b37e       ??1VerTable@XGRAPHICS@@QAE@XZ 005768fe f i xgraphicsd:api.obj
 0005:0000b383       ??_GVerTable@XGRAPHICS@@QAEPAXI@Z 00576903 f i xgraphicsd:api.obj
 0005:0000b3b3       ??1VerConstTableList@XGRAPHICS@@QAE@XZ 00576933 f   xgraphicsd:api.obj
 0005:0000b3f4       ?Initialize@TLEngineSim@XGRAPHICS@@QAEJKH@Z 00576974 f i xgraphicsd:api.obj
 0005:0000b418       ?MuxReady@TLEngineSim@XGRAPHICS@@AAEMPBU_D3DVsInstruction@@KEKKKKKEEMAAW4StallType@2@@Z 00576998 f i xgraphicsd:api.obj
 0005:0000b482       ?STRegReady@TLEngineSim@XGRAPHICS@@AAE_NPBU_D3DVsInstruction@@EEEH@Z 00576a02 f i xgraphicsd:api.obj
 0005:0000b4ed       ?ProcessInstruction@DeadCodeStripper@XGRAPHICS@@QAEJPBU_D3DVsInstruction@@AAPAU3@@Z 00576a6d f i xgraphicsd:api.obj
 0005:0000b612       ?IsReadDirty@RegSet@Reorderer@XGRAPHICS@@QAE_NPAU_D3DVsInstruction@@@Z 00576b92 f i xgraphicsd:api.obj
 0005:0000b6b0       ?OKToMoveConditionC@Reorderer@XGRAPHICS@@ABE_NPBVRegSet@12@HH@Z 00576c30 f i xgraphicsd:api.obj
 0005:0000b751       ?FindPairableInstruction@Reorderer@XGRAPHICS@@AAE_NHPAHPAU_D3DVsInstruction@@@Z 00576cd1 f i xgraphicsd:api.obj
 0005:0000b847       ?Disassemble@InstructionDisassembler@XGRAPHICS@@AAEJPBU_D3DVsInstruction@@_N1@Z 00576dc7 f i xgraphicsd:api.obj
 0005:0000ba40       ?MapRegisterUse@Renamer@XGRAPHICS@@AAEJXZ 00576fc0 f i xgraphicsd:api.obj
 0005:0000bcd5       ?RemapVRegs@Renamer@XGRAPHICS@@AAEJXZ 00577255 f i xgraphicsd:api.obj
 0005:0000bd9f       ??1MyErrorLog@XGRAPHICS@@QAE@XZ 0057731f f i xgraphicsd:api.obj
 0005:0000bdb9       ?Initialize@MyErrorLog@XGRAPHICS@@QAEJPBD@Z 00577339 f i xgraphicsd:api.obj
 0005:0000be18       ??1VerOp@XGRAPHICS@@AAE@XZ 00577398 f i xgraphicsd:api.obj
 0005:0000be1d       ??_GVerOp@XGRAPHICS@@AAEPAXI@Z 0057739d f i xgraphicsd:api.obj
 0005:0000be4d       ?CopyFrom@VerNode@XGRAPHICS@@QAE_NPAV12@@Z 005773cd f i xgraphicsd:api.obj
 0005:0000bec6       ?UseOp@VerNode@XGRAPHICS@@QAEXPAVVerOp@2@@Z 00577446 f i xgraphicsd:api.obj
 0005:0000beee       ?MakeTable@VerTable@XGRAPHICS@@SGPAV12@H@Z 0057746e f i xgraphicsd:api.obj
 0005:0000bfd1       ?InitTable@VerTable@XGRAPHICS@@QAE_NHPAVVerNode@2@@Z 00577551 f i xgraphicsd:api.obj
 0005:0000c074       ??_GVerConstTableList@XGRAPHICS@@QAEPAXI@Z 005775f4 f i xgraphicsd:api.obj
 0005:0000c0a4       ?SetData@VerConstTableList@XGRAPHICS@@QAE_NPAVVerTable@2@@Z 00577624 f   xgraphicsd:api.obj
 0005:0000c172       ?AReady@TLEngineSim@XGRAPHICS@@AAEMPBU_D3DVsInstruction@@EMAAW4StallType@2@@Z 005776f2 f i xgraphicsd:api.obj
 0005:0000c1ef       ?BReady@TLEngineSim@XGRAPHICS@@AAEMPBU_D3DVsInstruction@@EMAAW4StallType@2@@Z 0057776f f i xgraphicsd:api.obj
 0005:0000c271       ?CReady@TLEngineSim@XGRAPHICS@@AAEMPBU_D3DVsInstruction@@EMAAW4StallType@2@@Z 005777f1 f i xgraphicsd:api.obj
 0005:0000c2ec       ?STMuxReady@TLEngineSim@XGRAPHICS@@AAE_NPBU_D3DVsInstruction@@KEKKKKKEEH@Z 0057786c f i xgraphicsd:api.obj
 0005:0000c346       ?Run@DeadCodeStripper@XGRAPHICS@@QAEJKPAU_D3DVertexShaderProgram@@@Z 005778c6 f i xgraphicsd:api.obj
 0005:0000c42d       ?Disassemble@InstructionDisassembler@XGRAPHICS@@QAEJPBU_D3DVsInstruction@@AAVBuffer@2@@Z 005779ad f i xgraphicsd:api.obj
 0005:0000c58c       ?DisassembleInstruction@XGRAPHICS@@YGJPBU_D3DVsInstruction@@AAVBuffer@1@@Z 00577b0c f   xgraphicsd:api.obj
 0005:0000c5a6       ?PrintInstruction@XGRAPHICS@@YGXHPBU_D3DVsInstruction@@@Z 00577b26 f   xgraphicsd:api.obj
 0005:0000c61e       ?PrintInstruction@XGRAPHICS@@YGXHPBU_D3DVertexShaderProgram@@@Z 00577b9e f   xgraphicsd:api.obj
 0005:0000c63f       ?Rename@Renamer@XGRAPHICS@@AAEJPAU_D3DVertexShaderProgram@@@Z 00577bbf f i xgraphicsd:api.obj
 0005:0000c7c3       ?Release@VerOp@XGRAPHICS@@QAEHXZ 00577d43 f i xgraphicsd:api.obj
 0005:0000c7d7       ?MakeEmptyOp@VerOp@XGRAPHICS@@SGPAV12@W4VerOpcode@2@H@Z 00577d57 f   xgraphicsd:api.obj
 0005:0000c904       ?CopyTree@VerOp@XGRAPHICS@@QAEPAV12@XZ 00577e84 f   xgraphicsd:api.obj
 0005:0000c9db       ?STAReady@TLEngineSim@XGRAPHICS@@AAEKPBU_D3DVsInstruction@@EH@Z 00577f5b f i xgraphicsd:api.obj
 0005:0000ca53       ?STBReady@TLEngineSim@XGRAPHICS@@AAEKPBU_D3DVsInstruction@@EH@Z 00577fd3 f i xgraphicsd:api.obj
 0005:0000cad0       ?STCReady@TLEngineSim@XGRAPHICS@@AAEKPBU_D3DVsInstruction@@EH@Z 00578050 f i xgraphicsd:api.obj
 0005:0000cb46       ?Disassemble@InstructionDisassembler@XGRAPHICS@@QAEJPBU_D3DVsInstruction@@PADK@Z 005780c6 f i xgraphicsd:api.obj
 0005:0000cbd9       _DisassembleInstruction@12 00578159 f   xgraphicsd:api.obj
 0005:0000cbf7       ?Run@Renamer@XGRAPHICS@@QAEJKPAU_D3DVertexShaderProgram@@@Z 00578177 f i xgraphicsd:api.obj
 0005:0000cc2e       ?Print@XGRAPHICS@@YGXAAU_D3DVsInstruction@@@Z 005781ae f   xgraphicsd:api.obj
 0005:0000cc60       ?MakeOpV@VerOp@XGRAPHICS@@SGPAV12@W4VerOpcode@2@HPAPAVVerNode@2@@Z 005781e0 f   xgraphicsd:api.obj
 0005:0000cd37       ?MakeOp@VerOp@XGRAPHICS@@SAPAV12@W4VerOpcode@2@HZZ 005782b7 f   xgraphicsd:api.obj
 0005:0000cd79       ?Interpret@VerTable@XGRAPHICS@@QAEHPAU_D3DVsInstruction@@PAV12@@Z 005782f9 f i xgraphicsd:api.obj
 0005:0000e0de       ?CalculateRealStall@TLEngineSim@XGRAPHICS@@AAEMPBU_D3DVsInstruction@@AAW4StallType@2@@Z 0057965e f i xgraphicsd:api.obj
 0005:0000e275       ?BreakUpMad@XGRAPHICS@@YG_NPAVVerNode@1@@Z 005797f5 f   xgraphicsd:api.obj
 0005:0000e37f       ?BuildTable@VerTable@XGRAPHICS@@SGJPAU_D3DVertexShaderProgram@@HPAPAVVerConstTableList@2@PAPAV12@@Z 005798ff f i xgraphicsd:api.obj
 0005:0000e562       ?Compare@XGRAPHICS@@YG_NPAVVerNode@1@0@Z 00579ae2 f   xgraphicsd:api.obj
 0005:0000e857       ?Verify@XGRAPHICS@@YG_NPAVVerTable@1@0PAUXD3DXErrorLog@1@H@Z 00579dd7 f   xgraphicsd:api.obj
 0005:0000ea2e       ?Verify@XGRAPHICS@@YG_NPAVVerTable@1@PAU_D3DVertexShaderProgram@@PBDH@Z 00579fae f   xgraphicsd:api.obj
 0005:0000eb2b       ?Verify@XGRAPHICS@@YG_NPAU_D3DVertexShaderProgram@@0PAUXD3DXErrorLog@1@H@Z 0057a0ab f   xgraphicsd:api.obj
 0005:0000ec3f       ?Do@TLEngineSim@XGRAPHICS@@QAEJPBU_D3DVsInstruction@@AAMAAW4StallType@2@@Z 0057a1bf f i xgraphicsd:api.obj
 0005:0000ed54       ?CalculateStall@TLEngineSim@XGRAPHICS@@QAEMPBU_D3DVsInstruction@@AAW4StallType@2@@Z 0057a2d4 f i xgraphicsd:api.obj
 0005:0000ed6a       _DisassembleVertexShader@12 0057a2ea f   xgraphicsd:api.obj
 0005:0000efd1       ?Print@XGRAPHICS@@YGXKAAU_D3DVertexShaderProgram@@@Z 0057a551 f   xgraphicsd:api.obj
 0005:0000f127       ?PeepholeOptimize@XGRAPHICS@@YGJKPAU_D3DVertexShaderProgram@@@Z 0057a6a7 f   xgraphicsd:api.obj
 0005:0000f214       ?EstimateCycles@XGRAPHICS@@YGJKPAU_D3DVertexShaderProgram@@PAM@Z 0057a794 f   xgraphicsd:api.obj
 0005:0000f2f2       _XGSUCode_CompareVertexShaders@12 0057a872 f   xgraphicsd:api.obj
 0005:0000f489       ?IsStall@TLEngineSim@XGRAPHICS@@QAE_NPBU_D3DVsInstruction@@@Z 0057aa09 f i xgraphicsd:api.obj
 0005:0000f4c3       ?FindInstruction@Reorderer@XGRAPHICS@@AAE_NHPAH@Z 0057aa43 f i xgraphicsd:api.obj
 0005:0000f59a       ?Run@Reorderer@XGRAPHICS@@QAEJKPAU_D3DVertexShaderProgram@@@Z 0057ab1a f i xgraphicsd:api.obj
 0005:0000f76b       _XGOptimizeVertexShader@28 0057aceb f   xgraphicsd:api.obj
 0005:0000fba6       ?InstructionsToMicrocode@Assembler@XGRAPHICS@@AAEJ_N00KPAU_D3DVertexShaderProgram@@PAVBuffer@2@PAUXD3DXErrorLog@2@00@Z 0057b126 f i xgraphicsd:api.obj
 0005:0001012b       ?CompileVertexShaderToUCode@Assembler@XGRAPHICS@@AAEJ_N00KPAUXGBuffer@@PAPAU3@PAVBuffer@2@PAUXD3DXErrorLog@2@00@Z 0057b6ab f i xgraphicsd:api.obj
 0005:000102be       ?CompileShaderToUCode@Assembler@XGRAPHICS@@AAEJ_N0000KPAUXGBuffer@@PAPAU3@PAVBuffer@2@PAUXD3DXErrorLog@2@00@Z 0057b83e f i xgraphicsd:api.obj
 0005:00010391       ?XGAssembleShader@Assembler@XGRAPHICS@@QAGJPBDPBXIKPAPAUXGBuffer@@222P6GJPAXH00PADK2@Z3PAK@Z 0057b911 f i xgraphicsd:api.obj
 0005:00010a4b       _XGAssembleShader@44       0057bfcb f   xgraphicsd:api.obj
 0005:00010a8c       _XGSpliceVertexShaders@24  0057c00c f   xgraphicsd:api.obj
 0005:00010da0       ?DXGRIP@XGRAPHICS@@YAXPADZZ 0057c320 f   xgraphicsd:debug.obj
 0005:00010de4       ?DPF3@XGRAPHICS@@YGXPBDPAD@Z 0057c364 f   xgraphicsd:debug.obj
 0005:00010e31       ?DPF2@XGRAPHICS@@YAXPBDZZ  0057c3b1 f   xgraphicsd:debug.obj
 0005:00010e46       ?DPF@XGRAPHICS@@YAXHPBDZZ  0057c3c6 f   xgraphicsd:debug.obj
 0005:00010e5b       ??EVS_GRAPH_OPTIMIZER@XGRAPHICS@@YG?AW4InputIndex@01@AAW4201@H@Z 0057c3db f i xgraphicsd:instructiongraph.obj
 0005:00010e6c       ??EVS_GRAPH_OPTIMIZER@XGRAPHICS@@YG?AW4CompIndex@01@AAW4201@H@Z 0057c3ec f i xgraphicsd:instructiongraph.obj
 0005:00010e7d       ??FVS_GRAPH_OPTIMIZER@XGRAPHICS@@YG?AW4CompIndex@01@AAW4201@H@Z 0057c3fd f i xgraphicsd:instructiongraph.obj
 0005:00010e8e       ??4?$collection@PAVGraphOptimizerObject@VS_GRAPH_OPTIMIZER@XGRAPHICS@@@VS_GRAPH_OPTIMIZER@XGRAPHICS@@QAEAAV012@ABV012@@Z 0057c40e f i xgraphicsd:instructiongraph.obj
 0005:00010e93       ??0CompMask@VS_GRAPH_OPTIMIZER@XGRAPHICS@@QAE@_N000@Z 0057c413 f i xgraphicsd:instructiongraph.obj
 0005:00010ec3       ??1CompMask@VS_GRAPH_OPTIMIZER@XGRAPHICS@@UAE@XZ 0057c443 f i xgraphicsd:instructiongraph.obj
 0005:00010eca       ??BCompMask@VS_GRAPH_OPTIMIZER@XGRAPHICS@@QBEHXZ 0057c44a f i xgraphicsd:instructiongraph.obj
 0005:00010f02       ?Get@CompMask@VS_GRAPH_OPTIMIZER@XGRAPHICS@@QBE_NW4CompIndex@23@@Z 0057c482 f i xgraphicsd:instructiongraph.obj
 0005:00010f13       ?Set@CompMask@VS_GRAPH_OPTIMIZER@XGRAPHICS@@QAE_NW4CompIndex@23@_N@Z 0057c493 f i xgraphicsd:instructiongraph.obj
 0005:00010f28       ?Set@CompMask@VS_GRAPH_OPTIMIZER@XGRAPHICS@@QAEXH@Z 0057c4a8 f i xgraphicsd:instructiongraph.obj
 0005:00010f50       ?Clear@CompMask@VS_GRAPH_OPTIMIZER@XGRAPHICS@@QAE_NW4CompIndex@23@@Z 0057c4d0 f i xgraphicsd:instructiongraph.obj
 0005:00010f65       ??UCompMask@VS_GRAPH_OPTIMIZER@XGRAPHICS@@QAE?AV012@V012@@Z 0057c4e5 f i xgraphicsd:instructiongraph.obj
 0005:00010fdb       ??ICompMask@VS_GRAPH_OPTIMIZER@XGRAPHICS@@QAE?AV012@V012@@Z 0057c55b f i xgraphicsd:instructiongraph.obj
 0005:0001104f       ??SCompMask@VS_GRAPH_OPTIMIZER@XGRAPHICS@@QBE?AV012@XZ 0057c5cf f i xgraphicsd:instructiongraph.obj
 0005:00011090       ??0Swizzle@VS_GRAPH_OPTIMIZER@XGRAPHICS@@QAE@XZ 0057c610 f i xgraphicsd:instructiongraph.obj
 0005:000110af       ??0Swizzle@VS_GRAPH_OPTIMIZER@XGRAPHICS@@QAE@W4CompIndex@12@000@Z 0057c62f f i xgraphicsd:instructiongraph.obj
 0005:000110df       ??1Swizzle@VS_GRAPH_OPTIMIZER@XGRAPHICS@@UAE@XZ 0057c65f f i xgraphicsd:instructiongraph.obj
 0005:000110e6       ?Get@Swizzle@VS_GRAPH_OPTIMIZER@XGRAPHICS@@QBE?AW4CompIndex@23@W4423@@Z 0057c666 f i xgraphicsd:instructiongraph.obj
 0005:000110fd       ?Set@Swizzle@VS_GRAPH_OPTIMIZER@XGRAPHICS@@QAE?AW4CompIndex@23@W4423@0@Z 0057c67d f i xgraphicsd:instructiongraph.obj
 0005:00011112       ?Contains@Swizzle@VS_GRAPH_OPTIMIZER@XGRAPHICS@@QBE_NW4CompIndex@23@@Z 0057c692 f i xgraphicsd:instructiongraph.obj
 0005:0001113c       ?FindNotContained@Swizzle@VS_GRAPH_OPTIMIZER@XGRAPHICS@@QBE?AW4CompIndex@23@XZ 0057c6bc f i xgraphicsd:instructiongraph.obj
 0005:00011166       ?Redundant@Swizzle@VS_GRAPH_OPTIMIZER@XGRAPHICS@@QBE_NW4CompIndex@23@@Z 0057c6e6 f i xgraphicsd:instructiongraph.obj
 0005:000111b3       ?FindRedundant@Swizzle@VS_GRAPH_OPTIMIZER@XGRAPHICS@@QBE?AW4CompIndex@23@XZ 0057c733 f i xgraphicsd:instructiongraph.obj
 0005:000111dd       ?ClearRedundant@Swizzle@VS_GRAPH_OPTIMIZER@XGRAPHICS@@QAEXXZ 0057c75d f i xgraphicsd:instructiongraph.obj
 0005:000111fe       ?Identity@Swizzle@VS_GRAPH_OPTIMIZER@XGRAPHICS@@QBE_NW4CompIndex@23@@Z 0057c77e f i xgraphicsd:instructiongraph.obj
 0005:00011229       ?FindNotIdentity@Swizzle@VS_GRAPH_OPTIMIZER@XGRAPHICS@@QBE?AW4CompIndex@23@XZ 0057c7a9 f i xgraphicsd:instructiongraph.obj
 0005:00011253       ?Find@Swizzle@VS_GRAPH_OPTIMIZER@XGRAPHICS@@QBE?AW4CompIndex@23@W4423@@Z 0057c7d3 f i xgraphicsd:instructiongraph.obj
 0005:00011280       ?Invertible@Swizzle@VS_GRAPH_OPTIMIZER@XGRAPHICS@@QBE_NXZ 0057c800 f i xgraphicsd:instructiongraph.obj
 0005:000112a9       ?Invert@Swizzle@VS_GRAPH_OPTIMIZER@XGRAPHICS@@QBE?AV123@XZ 0057c829 f i xgraphicsd:instructiongraph.obj
 0005:000112fa       ?Swap@Swizzle@VS_GRAPH_OPTIMIZER@XGRAPHICS@@QAEXW4CompIndex@23@0@Z 0057c87a f i xgraphicsd:instructiongraph.obj
 0005:00011320       ?Combinable@Swizzle@VS_GRAPH_OPTIMIZER@XGRAPHICS@@QBE_NV123@@Z 0057c8a0 f i xgraphicsd:instructiongraph.obj
 0005:0001135e       ??0CompMask@VS_GRAPH_OPTIMIZER@XGRAPHICS@@QAE@ABV012@@Z 0057c8de f i xgraphicsd:instructiongraph.obj
 0005:0001137c       ??0Swizzle@VS_GRAPH_OPTIMIZER@XGRAPHICS@@QAE@ABV012@@Z 0057c8fc f i xgraphicsd:instructiongraph.obj
 0005:000113a4       ?GetType@Register@VS_GRAPH_OPTIMIZER@XGRAPHICS@@QBE?AW4RegType@23@XZ 0057c924 f i xgraphicsd:instructiongraph.obj
 0005:000113a8       ?SetType@Register@VS_GRAPH_OPTIMIZER@XGRAPHICS@@QAE?AW4RegType@23@W4423@@Z 0057c928 f i xgraphicsd:instructiongraph.obj
 0005:000113b8       ?GetIndex@Register@VS_GRAPH_OPTIMIZER@XGRAPHICS@@QBEHXZ 0057c938 f i xgraphicsd:instructiongraph.obj
 0005:000113bc       ?SetIndex@Register@VS_GRAPH_OPTIMIZER@XGRAPHICS@@QAEHH@Z 0057c93c f i xgraphicsd:instructiongraph.obj
 0005:000113cc       ?GetA0xReader@Register@VS_GRAPH_OPTIMIZER@XGRAPHICS@@QBEPAVReader@23@XZ 0057c94c f i xgraphicsd:instructiongraph.obj
 0005:000113d0       ?SetA0xReader@Register@VS_GRAPH_OPTIMIZER@XGRAPHICS@@QAEPAVReader@23@PAV423@@Z 0057c950 f i xgraphicsd:instructiongraph.obj
 0005:000113e0       ?GetNext@Register@VS_GRAPH_OPTIMIZER@XGRAPHICS@@QBEPAV123@XZ 0057c960 f i xgraphicsd:instructiongraph.obj
 0005:000113e4       ?SetNext@Register@VS_GRAPH_OPTIMIZER@XGRAPHICS@@QAEPAV123@PAV123@@Z 0057c964 f i xgraphicsd:instructiongraph.obj
 0005:000113f4       ?GetPrev@Register@VS_GRAPH_OPTIMIZER@XGRAPHICS@@QBEPAV123@XZ 0057c974 f i xgraphicsd:instructiongraph.obj
 0005:000113f8       ?SetPrev@Register@VS_GRAPH_OPTIMIZER@XGRAPHICS@@QAEPAV123@PAV123@@Z 0057c978 f i xgraphicsd:instructiongraph.obj
 0005:00011408       ?LinkPrev@Register@VS_GRAPH_OPTIMIZER@XGRAPHICS@@QAEPAV123@PAV123@@Z 0057c988 f i xgraphicsd:instructiongraph.obj
 0005:0001142e       ?PrevContains@Register@VS_GRAPH_OPTIMIZER@XGRAPHICS@@QBE_NPBV123@@Z 0057c9ae f i xgraphicsd:instructiongraph.obj
 0005:0001145d       ?RemoveReader@Register@VS_GRAPH_OPTIMIZER@XGRAPHICS@@QAEXPAVReader@23@@Z 0057c9dd f i xgraphicsd:instructiongraph.obj
 0005:0001146a       ?GetReaders@Register@VS_GRAPH_OPTIMIZER@XGRAPHICS@@QAEPAV?$set@PAVReader@VS_GRAPH_OPTIMIZER@XGRAPHICS@@U?$less@PAVReader@VS_GRAPH_OPTIMIZER@XGRAPHICS@@@23@@23@XZ 0057c9ea f i xgraphicsd:instructiongraph.obj
 0005:0001146e       ?GetSource@Register@VS_GRAPH_OPTIMIZER@XGRAPHICS@@QBEPAVInstruction@23@W4CompIndex@23@@Z 0057c9ee f i xgraphicsd:instructiongraph.obj
 0005:0001147f       ?GetSourceNext@Register@VS_GRAPH_OPTIMIZER@XGRAPHICS@@QBEPAVInstruction@23@W4CompIndex@23@@Z 0057c9ff f i xgraphicsd:instructiongraph.obj
 0005:000114af       ?GetInstr@Reader@VS_GRAPH_OPTIMIZER@XGRAPHICS@@QBEPAVInstruction@23@XZ 0057ca2f f i xgraphicsd:instructiongraph.obj
 0005:000114b3       ?SetIndex@Reader@VS_GRAPH_OPTIMIZER@XGRAPHICS@@QAEXW4InputIndex@23@@Z 0057ca33 f i xgraphicsd:instructiongraph.obj
 0005:000114c3       ?GetReg@Reader@VS_GRAPH_OPTIMIZER@XGRAPHICS@@QBEPAVRegister@23@XZ 0057ca43 f i xgraphicsd:instructiongraph.obj
 0005:000114c7       ?GetNeg@Reader@VS_GRAPH_OPTIMIZER@XGRAPHICS@@QBE_NXZ 0057ca47 f i xgraphicsd:instructiongraph.obj
 0005:000114cb       ?SetNeg@Reader@VS_GRAPH_OPTIMIZER@XGRAPHICS@@QAE_N_N@Z 0057ca4b f i xgraphicsd:instructiongraph.obj
 0005:000114db       ?ToggleNeg@Reader@VS_GRAPH_OPTIMIZER@XGRAPHICS@@QAE_NXZ 0057ca5b f i xgraphicsd:instructiongraph.obj
 0005:000114e8       ?GetSource@Reader@VS_GRAPH_OPTIMIZER@XGRAPHICS@@QBEPAVRegister@23@XZ 0057ca68 f i xgraphicsd:instructiongraph.obj
 0005:000114ec       ?GetSwizzle@Reader@VS_GRAPH_OPTIMIZER@XGRAPHICS@@QBE?AW4CompIndex@23@W4423@@Z 0057ca6c f i xgraphicsd:instructiongraph.obj
 0005:00011503       ?GetSwizzle@Reader@VS_GRAPH_OPTIMIZER@XGRAPHICS@@QAE?AVSwizzle@23@XZ 0057ca83 f i xgraphicsd:instructiongraph.obj
 0005:00011524       ?SetSwizzle@Reader@VS_GRAPH_OPTIMIZER@XGRAPHICS@@QAE?AW4CompIndex@23@W4423@0@Z 0057caa4 f i xgraphicsd:instructiongraph.obj
 0005:00011539       ??4Swizzle@VS_GRAPH_OPTIMIZER@XGRAPHICS@@QAEAAV012@ABV012@@Z 0057cab9 f i xgraphicsd:instructiongraph.obj
 0005:00011564       ?GetInput@Instruction@VS_GRAPH_OPTIMIZER@XGRAPHICS@@QBEPAVReader@23@W4InputIndex@23@@Z 0057cae4 f i xgraphicsd:instructiongraph.obj
 0005:00011575       ?SetInput@Instruction@VS_GRAPH_OPTIMIZER@XGRAPHICS@@QAEPAVReader@23@W4InputIndex@23@PAV423@@Z 0057caf5 f i xgraphicsd:instructiongraph.obj
 0005:0001158a       ?OutFromILU@Instruction@VS_GRAPH_OPTIMIZER@XGRAPHICS@@QBE_NXZ 0057cb0a f i xgraphicsd:instructiongraph.obj
 0005:0001158e       ?SetOutFromILU@Instruction@VS_GRAPH_OPTIMIZER@XGRAPHICS@@QAEX_N@Z 0057cb0e f i xgraphicsd:instructiongraph.obj
 0005:0001159e       ?GetOutIndex@Instruction@VS_GRAPH_OPTIMIZER@XGRAPHICS@@QBEHXZ 0057cb1e f i xgraphicsd:instructiongraph.obj
 0005:000115af       ?GetTempIndex@Instruction@VS_GRAPH_OPTIMIZER@XGRAPHICS@@QBEHXZ 0057cb2f f i xgraphicsd:instructiongraph.obj
 0005:000115d3       ?GetOutMask@Instruction@VS_GRAPH_OPTIMIZER@XGRAPHICS@@QBE?AVCompMask@23@XZ 0057cb53 f i xgraphicsd:instructiongraph.obj
 0005:000115f4       ?GetMACMask@Instruction@VS_GRAPH_OPTIMIZER@XGRAPHICS@@QBE?AVCompMask@23@XZ 0057cb74 f i xgraphicsd:instructiongraph.obj
 0005:00011615       ?GetILUMask@Instruction@VS_GRAPH_OPTIMIZER@XGRAPHICS@@QBE?AVCompMask@23@XZ 0057cb95 f i xgraphicsd:instructiongraph.obj
 0005:00011636       ?MACWritesComp@Instruction@VS_GRAPH_OPTIMIZER@XGRAPHICS@@QBE_NW4CompIndex@23@@Z 0057cbb6 f i xgraphicsd:instructiongraph.obj
 0005:00011663       ?ILUWritesComp@Instruction@VS_GRAPH_OPTIMIZER@XGRAPHICS@@QBE_NW4CompIndex@23@@Z 0057cbe3 f i xgraphicsd:instructiongraph.obj
 0005:00011690       ?GetMACOp@Instruction@VS_GRAPH_OPTIMIZER@XGRAPHICS@@QBE?AW4MACOpCode@23@XZ 0057cc10 f i xgraphicsd:instructiongraph.obj
 0005:00011694       ?GetILUOp@Instruction@VS_GRAPH_OPTIMIZER@XGRAPHICS@@QBE?AW4ILUOpCode@23@XZ 0057cc14 f i xgraphicsd:instructiongraph.obj
 0005:00011698       ?GetOutResult@Instruction@VS_GRAPH_OPTIMIZER@XGRAPHICS@@QBEPAVRegister@23@XZ 0057cc18 f i xgraphicsd:instructiongraph.obj
 0005:0001169c       ?GetMACResult@Instruction@VS_GRAPH_OPTIMIZER@XGRAPHICS@@QBEPAVRegister@23@XZ 0057cc1c f i xgraphicsd:instructiongraph.obj
 0005:000116a0       ?GetILUResult@Instruction@VS_GRAPH_OPTIMIZER@XGRAPHICS@@QBEPAVRegister@23@XZ 0057cc20 f i xgraphicsd:instructiongraph.obj
 0005:000116a4       ?UsesALU@Instruction@VS_GRAPH_OPTIMIZER@XGRAPHICS@@QBE_NXZ 0057cc24 f i xgraphicsd:instructiongraph.obj
 0005:000116c9       ?UsesILU@Instruction@VS_GRAPH_OPTIMIZER@XGRAPHICS@@QBE_NXZ 0057cc49 f i xgraphicsd:instructiongraph.obj
 0005:000116d4       ?MACReadsC@Instruction@VS_GRAPH_OPTIMIZER@XGRAPHICS@@QBE_NXZ 0057cc54 f i xgraphicsd:instructiongraph.obj
 0005:000116ed       ?IsSimpleMove@Instruction@VS_GRAPH_OPTIMIZER@XGRAPHICS@@QBE_NXZ 0057cc6d f i xgraphicsd:instructiongraph.obj
 0005:00011713       ?GetOrigOrder@Instruction@VS_GRAPH_OPTIMIZER@XGRAPHICS@@QBEHXZ 0057cc93 f i xgraphicsd:instructiongraph.obj
 0005:00011717       ??4CompMask@VS_GRAPH_OPTIMIZER@XGRAPHICS@@QAEAAV012@ABV012@@Z 0057cc97 f i xgraphicsd:instructiongraph.obj
 0005:00011740       ?GetA0x@InstructionSequence@VS_GRAPH_OPTIMIZER@XGRAPHICS@@QBEPAVRegister@23@XZ 0057ccc0 f i xgraphicsd:instructiongraph.obj
 0005:00011744       ?Error@VS_GRAPH_OPTIMIZER@XGRAPHICS@@YGXXZ 0057ccc4 f   xgraphicsd:instructiongraph.obj
 0005:00011760       ??RInstructionLess@VS_GRAPH_OPTIMIZER@XGRAPHICS@@QBE_NPBVInstruction@12@0@Z 0057cce0 f   xgraphicsd:instructiongraph.obj
 0005:00011793       ?GetA0x@Register@VS_GRAPH_OPTIMIZER@XGRAPHICS@@QBEPAV123@XZ 0057cd13 f i xgraphicsd:instructiongraph.obj
 0005:000117ad       ?CompFromMove@Register@VS_GRAPH_OPTIMIZER@XGRAPHICS@@QBE_NW4CompIndex@23@@Z 0057cd2d f   xgraphicsd:instructiongraph.obj
 0005:00011804       ?ReadsInput@Instruction@VS_GRAPH_OPTIMIZER@XGRAPHICS@@QBE_NW4InputIndex@23@@Z 0057cd84 f   xgraphicsd:instructiongraph.obj
 0005:00011870       ?ReadsInputComp@Instruction@VS_GRAPH_OPTIMIZER@XGRAPHICS@@QBE_NW4InputIndex@23@W4CompIndex@23@@Z 0057cdf0 f   xgraphicsd:instructiongraph.obj
 0005:00011a3c       ?ReadsInputComps@Instruction@VS_GRAPH_OPTIMIZER@XGRAPHICS@@QBE?AVCompMask@23@W4InputIndex@23@@Z 0057cfbc f   xgraphicsd:instructiongraph.obj
 0005:00011a98       ?StallsForInit@Instruction@VS_GRAPH_OPTIMIZER@XGRAPHICS@@QBE_NXZ 0057d018 f   xgraphicsd:instructiongraph.obj
 0005:00011b02       ?RedundantResults@Instruction@VS_GRAPH_OPTIMIZER@XGRAPHICS@@QBE_NPBVRegister@23@W4CompIndex@23@1@Z 0057d082 f   xgraphicsd:instructiongraph.obj
 0005:00011d17       ?NegateResult@Instruction@VS_GRAPH_OPTIMIZER@XGRAPHICS@@QAE_NPAVRegister@23@@Z 0057d297 f   xgraphicsd:instructiongraph.obj
 0005:00011d8a       ?SwapResultComps@Instruction@VS_GRAPH_OPTIMIZER@XGRAPHICS@@QAE_NPAVRegister@23@W4CompIndex@23@1_N@Z 0057d30a f   xgraphicsd:instructiongraph.obj
 0005:00011fd5       ?MoveResultComp@Instruction@VS_GRAPH_OPTIMIZER@XGRAPHICS@@QAE_NPAVRegister@23@W4CompIndex@23@1_N@Z 0057d555 f   xgraphicsd:instructiongraph.obj
 0005:000121bd       ??0?$collection@PAVRegister@VS_GRAPH_OPTIMIZER@XGRAPHICS@@@VS_GRAPH_OPTIMIZER@XGRAPHICS@@QAE@XZ 0057d73d f i xgraphicsd:instructiongraph.obj
 0005:000121c8       ?FixUnusedIndexes@InstructionSequence@VS_GRAPH_OPTIMIZER@XGRAPHICS@@QAEXPAU_D3DVertexShaderProgram@@@Z 0057d748 f   xgraphicsd:instructiongraph.obj
 0005:000122ea       ?empty@?$set@PAVGraphOptimizerObject@VS_GRAPH_OPTIMIZER@XGRAPHICS@@U?$less@PAVGraphOptimizerObject@VS_GRAPH_OPTIMIZER@XGRAPHICS@@@23@@VS_GRAPH_OPTIMIZER@XGRAPHICS@@QBE_NXZ 0057d86a f i xgraphicsd:instructiongraph.obj
 0005:000122f5       ??Diterator@?$set@PAVGraphOptimizerObject@VS_GRAPH_OPTIMIZER@XGRAPHICS@@U?$less@PAVGraphOptimizerObject@VS_GRAPH_OPTIMIZER@XGRAPHICS@@@23@@VS_GRAPH_OPTIMIZER@XGRAPHICS@@QAEAAPAVGraphOptimizerObject@23@XZ 0057d875 f i xgraphicsd:instructiongraph.obj
 0005:000122fb       ?empty@?$set@PAVReader@VS_GRAPH_OPTIMIZER@XGRAPHICS@@U?$less@PAVReader@VS_GRAPH_OPTIMIZER@XGRAPHICS@@@23@@VS_GRAPH_OPTIMIZER@XGRAPHICS@@QBE_NXZ 0057d87b f i xgraphicsd:instructiongraph.obj
 0005:0001233a       ??Diterator@?$set@PAV?$collection@PAVRegister@VS_GRAPH_OPTIMIZER@XGRAPHICS@@@VS_GRAPH_OPTIMIZER@XGRAPHICS@@U?$less@PAV?$collection@PAVRegister@VS_GRAPH_OPTIMIZER@XGRAPHICS@@@VS_GRAPH_OPTIMIZER@XGRAPHICS@@@23@@VS_GRAPH_OPTIMIZER@XGRAPHICS@@QAEAAPAV?$collection@PAVRegister@VS_GRAPH_OPTIMIZER@XGRAPHICS@@@23@XZ 0057d8ba f i xgraphicsd:instructiongraph.obj
 0005:00012340       ??0const_iterator@?$set@PAVReader@VS_GRAPH_OPTIMIZER@XGRAPHICS@@U?$less@PAVReader@VS_GRAPH_OPTIMIZER@XGRAPHICS@@@23@@VS_GRAPH_OPTIMIZER@XGRAPHICS@@QAE@AAV0123@@Z 0057d8c0 f i xgraphicsd:instructiongraph.obj
 0005:00012354       ??Dconst_iterator@?$set@PAVReader@VS_GRAPH_OPTIMIZER@XGRAPHICS@@U?$less@PAVReader@VS_GRAPH_OPTIMIZER@XGRAPHICS@@@23@@VS_GRAPH_OPTIMIZER@XGRAPHICS@@QBEABQAVReader@23@XZ 0057d8d4 f i xgraphicsd:instructiongraph.obj
 0005:0001235a       ??8const_iterator@?$set@PAVReader@VS_GRAPH_OPTIMIZER@XGRAPHICS@@U?$less@PAVReader@VS_GRAPH_OPTIMIZER@XGRAPHICS@@@23@@VS_GRAPH_OPTIMIZER@XGRAPHICS@@QBE_NAAV0123@@Z 0057d8da f i xgraphicsd:instructiongraph.obj
 0005:00012371       ??9const_iterator@?$set@PAVReader@VS_GRAPH_OPTIMIZER@XGRAPHICS@@U?$less@PAVReader@VS_GRAPH_OPTIMIZER@XGRAPHICS@@@23@@VS_GRAPH_OPTIMIZER@XGRAPHICS@@QBE_NAAV0123@@Z 0057d8f1 f i xgraphicsd:instructiongraph.obj
 0005:0001238b       ??Diterator@?$set@PAVReader@VS_GRAPH_OPTIMIZER@XGRAPHICS@@U?$less@PAVReader@VS_GRAPH_OPTIMIZER@XGRAPHICS@@@23@@VS_GRAPH_OPTIMIZER@XGRAPHICS@@QAEAAPAVReader@23@XZ 0057d90b f i xgraphicsd:instructiongraph.obj
 0005:00012391       ?empty@?$list@PAVInstruction@VS_GRAPH_OPTIMIZER@XGRAPHICS@@@VS_GRAPH_OPTIMIZER@XGRAPHICS@@QBE_NXZ 0057d911 f i xgraphicsd:instructiongraph.obj
 0005:0001239c       ?back@?$list@PAVInstruction@VS_GRAPH_OPTIMIZER@XGRAPHICS@@@VS_GRAPH_OPTIMIZER@XGRAPHICS@@QBEAAPAVInstruction@23@XZ 0057d91c f i xgraphicsd:instructiongraph.obj
 0005:000123a3       ??Diterator@?$set@PAV?$collection@PAVInstruction@VS_GRAPH_OPTIMIZER@XGRAPHICS@@@VS_GRAPH_OPTIMIZER@XGRAPHICS@@U?$less@PAV?$collection@PAVInstruction@VS_GRAPH_OPTIMIZER@XGRAPHICS@@@VS_GRAPH_OPTIMIZER@XGRAPHICS@@@23@@VS_GRAPH_OPTIMIZER@XGRAPHICS@@QAEAAPAV?$collection@PAVInstruction@VS_GRAPH_OPTIMIZER@XGRAPHICS@@@23@XZ 0057d923 f i xgraphicsd:instructiongraph.obj
 0005:000123a9       ?empty@?$set@PAVInstruction@VS_GRAPH_OPTIMIZER@XGRAPHICS@@UInstructionLess@23@@VS_GRAPH_OPTIMIZER@XGRAPHICS@@QBE_NXZ 0057d929 f i xgraphicsd:instructiongraph.obj
 0005:000123b4       ?size@?$set@PAVInstruction@VS_GRAPH_OPTIMIZER@XGRAPHICS@@UInstructionLess@23@@VS_GRAPH_OPTIMIZER@XGRAPHICS@@QBEHXZ 0057d934 f i xgraphicsd:instructiongraph.obj
 0005:000123b8       ??Diterator@?$set@PAVInstruction@VS_GRAPH_OPTIMIZER@XGRAPHICS@@UInstructionLess@23@@VS_GRAPH_OPTIMIZER@XGRAPHICS@@QAEAAPAVInstruction@23@XZ 0057d938 f i xgraphicsd:instructiongraph.obj
 0005:000123be       ??0const_iterator@?$set@PAVInstruction@VS_GRAPH_OPTIMIZER@XGRAPHICS@@UInstructionLess@23@@VS_GRAPH_OPTIMIZER@XGRAPHICS@@QAE@AAV0123@@Z 0057d93e f i xgraphicsd:instructiongraph.obj
 0005:000123d2       ??Dconst_iterator@?$set@PAVInstruction@VS_GRAPH_OPTIMIZER@XGRAPHICS@@UInstructionLess@23@@VS_GRAPH_OPTIMIZER@XGRAPHICS@@QBEABQAVInstruction@23@XZ 0057d952 f i xgraphicsd:instructiongraph.obj
 0005:000123d8       ??8const_iterator@?$set@PAVInstruction@VS_GRAPH_OPTIMIZER@XGRAPHICS@@UInstructionLess@23@@VS_GRAPH_OPTIMIZER@XGRAPHICS@@QBE_NAAV0123@@Z 0057d958 f i xgraphicsd:instructiongraph.obj
 0005:000123ef       ??9const_iterator@?$set@PAVInstruction@VS_GRAPH_OPTIMIZER@XGRAPHICS@@UInstructionLess@23@@VS_GRAPH_OPTIMIZER@XGRAPHICS@@QBE_NAAV0123@@Z 0057d96f f i xgraphicsd:instructiongraph.obj
 0005:00012409       ?size@?$set@V?$pair@HPAVRegister@VS_GRAPH_OPTIMIZER@XGRAPHICS@@@VS_GRAPH_OPTIMIZER@XGRAPHICS@@U?$pair_less@V?$pair@HPAVRegister@VS_GRAPH_OPTIMIZER@XGRAPHICS@@@VS_GRAPH_OPTIMIZER@XGRAPHICS@@@23@@VS_GRAPH_OPTIMIZER@XGRAPHICS@@QBEHXZ 0057d989 f i xgraphicsd:instructiongraph.obj
 0005:0001240d       ??Diterator@?$list@PAVInstruction@VS_GRAPH_OPTIMIZER@XGRAPHICS@@@VS_GRAPH_OPTIMIZER@XGRAPHICS@@QAEAAPAVInstruction@23@XZ 0057d98d f i xgraphicsd:instructiongraph.obj
 0005:00012413       ??0const_iterator@?$list@PAVInstruction@VS_GRAPH_OPTIMIZER@XGRAPHICS@@@VS_GRAPH_OPTIMIZER@XGRAPHICS@@QAE@AAV0123@@Z 0057d993 f i xgraphicsd:instructiongraph.obj
 0005:00012427       ??Dconst_iterator@?$list@PAVInstruction@VS_GRAPH_OPTIMIZER@XGRAPHICS@@@VS_GRAPH_OPTIMIZER@XGRAPHICS@@QBEABQAVInstruction@23@XZ 0057d9a7 f i xgraphicsd:instructiongraph.obj
 0005:0001242d       ??8const_iterator@?$list@PAVInstruction@VS_GRAPH_OPTIMIZER@XGRAPHICS@@@VS_GRAPH_OPTIMIZER@XGRAPHICS@@QBE_NAAV0123@@Z 0057d9ad f i xgraphicsd:instructiongraph.obj
 0005:00012444       ??9const_iterator@?$list@PAVInstruction@VS_GRAPH_OPTIMIZER@XGRAPHICS@@@VS_GRAPH_OPTIMIZER@XGRAPHICS@@QBE_NAAV0123@@Z 0057d9c4 f i xgraphicsd:instructiongraph.obj
 0005:0001245e       ??Diterator@?$set@V?$pair@HPAVRegister@VS_GRAPH_OPTIMIZER@XGRAPHICS@@@VS_GRAPH_OPTIMIZER@XGRAPHICS@@U?$pair_less@V?$pair@HPAVRegister@VS_GRAPH_OPTIMIZER@XGRAPHICS@@@VS_GRAPH_OPTIMIZER@XGRAPHICS@@@23@@VS_GRAPH_OPTIMIZER@XGRAPHICS@@QAEAAV?$pair@HPAVRegister@VS_GRAPH_OPTIMIZER@XGRAPHICS@@@23@XZ 0057d9de f i xgraphicsd:instructiongraph.obj
 0005:00012464       ??0const_iterator@?$set@V?$pair@HPAVRegister@VS_GRAPH_OPTIMIZER@XGRAPHICS@@@VS_GRAPH_OPTIMIZER@XGRAPHICS@@U?$pair_less@V?$pair@HPAVRegister@VS_GRAPH_OPTIMIZER@XGRAPHICS@@@VS_GRAPH_OPTIMIZER@XGRAPHICS@@@23@@VS_GRAPH_OPTIMIZER@XGRAPHICS@@QAE@PAVnode@123@@Z 0057d9e4 f i xgraphicsd:instructiongraph.obj
 0005:00012475       ??0const_iterator@?$set@V?$pair@HPAVRegister@VS_GRAPH_OPTIMIZER@XGRAPHICS@@@VS_GRAPH_OPTIMIZER@XGRAPHICS@@U?$pair_less@V?$pair@HPAVRegister@VS_GRAPH_OPTIMIZER@XGRAPHICS@@@VS_GRAPH_OPTIMIZER@XGRAPHICS@@@23@@VS_GRAPH_OPTIMIZER@XGRAPHICS@@QAE@AAV0123@@Z 0057d9f5 f i xgraphicsd:instructiongraph.obj
 0005:00012489       ??Dconst_iterator@?$set@V?$pair@HPAVRegister@VS_GRAPH_OPTIMIZER@XGRAPHICS@@@VS_GRAPH_OPTIMIZER@XGRAPHICS@@U?$pair_less@V?$pair@HPAVRegister@VS_GRAPH_OPTIMIZER@XGRAPHICS@@@VS_GRAPH_OPTIMIZER@XGRAPHICS@@@23@@VS_GRAPH_OPTIMIZER@XGRAPHICS@@QBEABV?$pair@HPAVRegister@VS_GRAPH_OPTIMIZER@XGRAPHICS@@@23@XZ 0057da09 f i xgraphicsd:instructiongraph.obj
 0005:0001248f       ??8const_iterator@?$set@V?$pair@HPAVRegister@VS_GRAPH_OPTIMIZER@XGRAPHICS@@@VS_GRAPH_OPTIMIZER@XGRAPHICS@@U?$pair_less@V?$pair@HPAVRegister@VS_GRAPH_OPTIMIZER@XGRAPHICS@@@VS_GRAPH_OPTIMIZER@XGRAPHICS@@@23@@VS_GRAPH_OPTIMIZER@XGRAPHICS@@QBE_NAAV0123@@Z 0057da0f f i xgraphicsd:instructiongraph.obj
 0005:000124a6       ??9const_iterator@?$set@V?$pair@HPAVRegister@VS_GRAPH_OPTIMIZER@XGRAPHICS@@@VS_GRAPH_OPTIMIZER@XGRAPHICS@@U?$pair_less@V?$pair@HPAVRegister@VS_GRAPH_OPTIMIZER@XGRAPHICS@@@VS_GRAPH_OPTIMIZER@XGRAPHICS@@@23@@VS_GRAPH_OPTIMIZER@XGRAPHICS@@QBE_NAAV0123@@Z 0057da26 f i xgraphicsd:instructiongraph.obj
 0005:000124c0       ??0?$set@PAVRegister@VS_GRAPH_OPTIMIZER@XGRAPHICS@@U?$less@PAVRegister@VS_GRAPH_OPTIMIZER@XGRAPHICS@@@23@@VS_GRAPH_OPTIMIZER@XGRAPHICS@@QAE@XZ 0057da40 f i xgraphicsd:instructiongraph.obj
 0005:000124d5       ?empty@?$set@PAVRegister@VS_GRAPH_OPTIMIZER@XGRAPHICS@@U?$less@PAVRegister@VS_GRAPH_OPTIMIZER@XGRAPHICS@@@23@@VS_GRAPH_OPTIMIZER@XGRAPHICS@@QBE_NXZ 0057da55 f i xgraphicsd:instructiongraph.obj
 0005:000124e0       ??Diterator@?$set@PAVRegister@VS_GRAPH_OPTIMIZER@XGRAPHICS@@U?$less@PAVRegister@VS_GRAPH_OPTIMIZER@XGRAPHICS@@@23@@VS_GRAPH_OPTIMIZER@XGRAPHICS@@QAEAAPAVRegister@23@XZ 0057da60 f i xgraphicsd:instructiongraph.obj
 0005:000124e6       ??0const_iterator@?$set@PAVRegister@VS_GRAPH_OPTIMIZER@XGRAPHICS@@U?$less@PAVRegister@VS_GRAPH_OPTIMIZER@XGRAPHICS@@@23@@VS_GRAPH_OPTIMIZER@XGRAPHICS@@QAE@AAV0123@@Z 0057da66 f i xgraphicsd:instructiongraph.obj
 0005:000124fa       ??0?$collection@PAVGraphOptimizerObject@VS_GRAPH_OPTIMIZER@XGRAPHICS@@@VS_GRAPH_OPTIMIZER@XGRAPHICS@@QAE@XZ 0057da7a f i xgraphicsd:instructiongraph.obj
 0005:00012505       ??0?$collection@PAV?$collection@PAVRegister@VS_GRAPH_OPTIMIZER@XGRAPHICS@@@VS_GRAPH_OPTIMIZER@XGRAPHICS@@@VS_GRAPH_OPTIMIZER@XGRAPHICS@@QAE@XZ 0057da85 f i xgraphicsd:instructiongraph.obj
 0005:00012510       ??0?$collection@PAVReader@VS_GRAPH_OPTIMIZER@XGRAPHICS@@@VS_GRAPH_OPTIMIZER@XGRAPHICS@@QAE@XZ 0057da90 f i xgraphicsd:instructiongraph.obj
 0005:0001251b       ??0?$collection@PAV?$collection@PAVInstruction@VS_GRAPH_OPTIMIZER@XGRAPHICS@@@VS_GRAPH_OPTIMIZER@XGRAPHICS@@@VS_GRAPH_OPTIMIZER@XGRAPHICS@@QAE@XZ 0057da9b f i xgraphicsd:instructiongraph.obj
 0005:00012526       ??0?$collection@PAVInstruction@VS_GRAPH_OPTIMIZER@XGRAPHICS@@@VS_GRAPH_OPTIMIZER@XGRAPHICS@@QAE@XZ 0057daa6 f i xgraphicsd:instructiongraph.obj
 0005:00012531       ??0?$collection@V?$pair@HPAVRegister@VS_GRAPH_OPTIMIZER@XGRAPHICS@@@VS_GRAPH_OPTIMIZER@XGRAPHICS@@@VS_GRAPH_OPTIMIZER@XGRAPHICS@@QAE@XZ 0057dab1 f i xgraphicsd:instructiongraph.obj
 0005:0001253c       ?least@node@?$set@PAVGraphOptimizerObject@VS_GRAPH_OPTIMIZER@XGRAPHICS@@U?$less@PAVGraphOptimizerObject@VS_GRAPH_OPTIMIZER@XGRAPHICS@@@23@@VS_GRAPH_OPTIMIZER@XGRAPHICS@@QAEPAV1234@XZ 0057dabc f i xgraphicsd:instructiongraph.obj
 0005:0001254d       ?clear_node@?$set@PAV?$collection@PAVRegister@VS_GRAPH_OPTIMIZER@XGRAPHICS@@@VS_GRAPH_OPTIMIZER@XGRAPHICS@@U?$less@PAV?$collection@PAVRegister@VS_GRAPH_OPTIMIZER@XGRAPHICS@@@VS_GRAPH_OPTIMIZER@XGRAPHICS@@@23@@VS_GRAPH_OPTIMIZER@XGRAPHICS@@SGXPAVnode@123@@Z 0057dacd f i xgraphicsd:instructiongraph.obj
 0005:00012584       ??0const_iterator@?$set@PAV?$collection@PAVRegister@VS_GRAPH_OPTIMIZER@XGRAPHICS@@@VS_GRAPH_OPTIMIZER@XGRAPHICS@@U?$less@PAV?$collection@PAVRegister@VS_GRAPH_OPTIMIZER@XGRAPHICS@@@VS_GRAPH_OPTIMIZER@XGRAPHICS@@@23@@VS_GRAPH_OPTIMIZER@XGRAPHICS@@QAE@AAV0123@@Z 0057db04 f i xgraphicsd:instructiongraph.obj
 0005:00012598       ??8const_iterator@?$set@PAV?$collection@PAVRegister@VS_GRAPH_OPTIMIZER@XGRAPHICS@@@VS_GRAPH_OPTIMIZER@XGRAPHICS@@U?$less@PAV?$collection@PAVRegister@VS_GRAPH_OPTIMIZER@XGRAPHICS@@@VS_GRAPH_OPTIMIZER@XGRAPHICS@@@23@@VS_GRAPH_OPTIMIZER@XGRAPHICS@@QBE_NAAV0123@@Z 0057db18 f i xgraphicsd:instructiongraph.obj
 0005:000125af       ?least@node@?$set@PAV?$collection@PAVRegister@VS_GRAPH_OPTIMIZER@XGRAPHICS@@@VS_GRAPH_OPTIMIZER@XGRAPHICS@@U?$less@PAV?$collection@PAVRegister@VS_GRAPH_OPTIMIZER@XGRAPHICS@@@VS_GRAPH_OPTIMIZER@XGRAPHICS@@@23@@VS_GRAPH_OPTIMIZER@XGRAPHICS@@QAEPAV1234@XZ 0057db2f f i xgraphicsd:instructiongraph.obj
 0005:000125c0       ??Eiterator@?$set@PAV?$collection@PAVRegister@VS_GRAPH_OPTIMIZER@XGRAPHICS@@@VS_GRAPH_OPTIMIZER@XGRAPHICS@@U?$less@PAV?$collection@PAVRegister@VS_GRAPH_OPTIMIZER@XGRAPHICS@@@VS_GRAPH_OPTIMIZER@XGRAPHICS@@@23@@VS_GRAPH_OPTIMIZER@XGRAPHICS@@QAEAAV0123@XZ 0057db40 f i xgraphicsd:instructiongraph.obj
 0005:000125f9       ??0const_iterator@?$set@PAVReader@VS_GRAPH_OPTIMIZER@XGRAPHICS@@U?$less@PAVReader@VS_GRAPH_OPTIMIZER@XGRAPHICS@@@23@@VS_GRAPH_OPTIMIZER@XGRAPHICS@@QAE@PAVnode@123@@Z 0057db79 f i xgraphicsd:instructiongraph.obj
 0005:0001260a       ?least@node@?$set@PAVReader@VS_GRAPH_OPTIMIZER@XGRAPHICS@@U?$less@PAVReader@VS_GRAPH_OPTIMIZER@XGRAPHICS@@@23@@VS_GRAPH_OPTIMIZER@XGRAPHICS@@QAEPAV1234@XZ 0057db8a f i xgraphicsd:instructiongraph.obj
 0005:0001261b       ??Eiterator@?$set@PAVReader@VS_GRAPH_OPTIMIZER@XGRAPHICS@@U?$less@PAVReader@VS_GRAPH_OPTIMIZER@XGRAPHICS@@@23@@VS_GRAPH_OPTIMIZER@XGRAPHICS@@QAEAAV0123@XZ 0057db9b f i xgraphicsd:instructiongraph.obj
 0005:00012654       ?clear_node@?$set@PAV?$collection@PAVInstruction@VS_GRAPH_OPTIMIZER@XGRAPHICS@@@VS_GRAPH_OPTIMIZER@XGRAPHICS@@U?$less@PAV?$collection@PAVInstruction@VS_GRAPH_OPTIMIZER@XGRAPHICS@@@VS_GRAPH_OPTIMIZER@XGRAPHICS@@@23@@VS_GRAPH_OPTIMIZER@XGRAPHICS@@SGXPAVnode@123@@Z 0057dbd4 f i xgraphicsd:instructiongraph.obj
 0005:0001268b       ?erase@?$list@PAVInstruction@VS_GRAPH_OPTIMIZER@XGRAPHICS@@@VS_GRAPH_OPTIMIZER@XGRAPHICS@@AAEXPAVnode@123@@Z 0057dc0b f i xgraphicsd:instructiongraph.obj
 0005:000126cd       ??0const_iterator@?$set@PAV?$collection@PAVInstruction@VS_GRAPH_OPTIMIZER@XGRAPHICS@@@VS_GRAPH_OPTIMIZER@XGRAPHICS@@U?$less@PAV?$collection@PAVInstruction@VS_GRAPH_OPTIMIZER@XGRAPHICS@@@VS_GRAPH_OPTIMIZER@XGRAPHICS@@@23@@VS_GRAPH_OPTIMIZER@XGRAPHICS@@QAE@AAV0123@@Z 0057dc4d f i xgraphicsd:instructiongraph.obj
 0005:000126e1       ??8const_iterator@?$set@PAV?$collection@PAVInstruction@VS_GRAPH_OPTIMIZER@XGRAPHICS@@@VS_GRAPH_OPTIMIZER@XGRAPHICS@@U?$less@PAV?$collection@PAVInstruction@VS_GRAPH_OPTIMIZER@XGRAPHICS@@@VS_GRAPH_OPTIMIZER@XGRAPHICS@@@23@@VS_GRAPH_OPTIMIZER@XGRAPHICS@@QBE_NAAV0123@@Z 0057dc61 f i xgraphicsd:instructiongraph.obj
 0005:000126f8       ?least@node@?$set@PAV?$collection@PAVInstruction@VS_GRAPH_OPTIMIZER@XGRAPHICS@@@VS_GRAPH_OPTIMIZER@XGRAPHICS@@U?$less@PAV?$collection@PAVInstruction@VS_GRAPH_OPTIMIZER@XGRAPHICS@@@VS_GRAPH_OPTIMIZER@XGRAPHICS@@@23@@VS_GRAPH_OPTIMIZER@XGRAPHICS@@QAEPAV1234@XZ 0057dc78 f i xgraphicsd:instructiongraph.obj
 0005:00012709       ??Eiterator@?$set@PAV?$collection@PAVInstruction@VS_GRAPH_OPTIMIZER@XGRAPHICS@@@VS_GRAPH_OPTIMIZER@XGRAPHICS@@U?$less@PAV?$collection@PAVInstruction@VS_GRAPH_OPTIMIZER@XGRAPHICS@@@VS_GRAPH_OPTIMIZER@XGRAPHICS@@@23@@VS_GRAPH_OPTIMIZER@XGRAPHICS@@QAEAAV0123@XZ 0057dc89 f i xgraphicsd:instructiongraph.obj
 0005:00012742       ?find_node@?$set@PAVInstruction@VS_GRAPH_OPTIMIZER@XGRAPHICS@@UInstructionLess@23@@VS_GRAPH_OPTIMIZER@XGRAPHICS@@QBEPAVnode@123@PAVInstruction@23@@Z 0057dcc2 f i xgraphicsd:instructiongraph.obj
 0005:0001279e       ??0iterator@?$set@PAVInstruction@VS_GRAPH_OPTIMIZER@XGRAPHICS@@UInstructionLess@23@@VS_GRAPH_OPTIMIZER@XGRAPHICS@@QAE@AAVconst_iterator@123@@Z 0057dd1e f i xgraphicsd:instructiongraph.obj
 0005:000127b2       ??0const_iterator@?$set@PAVInstruction@VS_GRAPH_OPTIMIZER@XGRAPHICS@@UInstructionLess@23@@VS_GRAPH_OPTIMIZER@XGRAPHICS@@QAE@PAVnode@123@@Z 0057dd32 f i xgraphicsd:instructiongraph.obj
 0005:000127c3       ?clear_node@?$set@V?$pair@HPAVRegister@VS_GRAPH_OPTIMIZER@XGRAPHICS@@@VS_GRAPH_OPTIMIZER@XGRAPHICS@@U?$pair_less@V?$pair@HPAVRegister@VS_GRAPH_OPTIMIZER@XGRAPHICS@@@VS_GRAPH_OPTIMIZER@XGRAPHICS@@@23@@VS_GRAPH_OPTIMIZER@XGRAPHICS@@SGXPAVnode@123@@Z 0057dd43 f i xgraphicsd:instructiongraph.obj
 0005:000127fa       ??Eiterator@?$list@PAVInstruction@VS_GRAPH_OPTIMIZER@XGRAPHICS@@@VS_GRAPH_OPTIMIZER@XGRAPHICS@@QAEAAV0123@XZ 0057dd7a f i xgraphicsd:instructiongraph.obj
 0005:00012806       ??0const_iterator@?$list@PAVInstruction@VS_GRAPH_OPTIMIZER@XGRAPHICS@@@VS_GRAPH_OPTIMIZER@XGRAPHICS@@QAE@PAVnode@123@@Z 0057dd86 f i xgraphicsd:instructiongraph.obj
 0005:00012817       ??Econst_iterator@?$list@PAVInstruction@VS_GRAPH_OPTIMIZER@XGRAPHICS@@@VS_GRAPH_OPTIMIZER@XGRAPHICS@@QAEAAV0123@XZ 0057dd97 f i xgraphicsd:instructiongraph.obj
 0005:00012823       ??0iterator@?$set@V?$pair@HPAVRegister@VS_GRAPH_OPTIMIZER@XGRAPHICS@@@VS_GRAPH_OPTIMIZER@XGRAPHICS@@U?$pair_less@V?$pair@HPAVRegister@VS_GRAPH_OPTIMIZER@XGRAPHICS@@@VS_GRAPH_OPTIMIZER@XGRAPHICS@@@23@@VS_GRAPH_OPTIMIZER@XGRAPHICS@@QAE@PAVnode@123@@Z 0057dda3 f i xgraphicsd:instructiongraph.obj
 0005:00012834       ?least@node@?$set@PAVInstruction@VS_GRAPH_OPTIMIZER@XGRAPHICS@@UInstructionLess@23@@VS_GRAPH_OPTIMIZER@XGRAPHICS@@QAEPAV1234@XZ 0057ddb4 f i xgraphicsd:instructiongraph.obj
 0005:00012845       ?least@node@?$set@PAVRegister@VS_GRAPH_OPTIMIZER@XGRAPHICS@@U?$less@PAVRegister@VS_GRAPH_OPTIMIZER@XGRAPHICS@@@23@@VS_GRAPH_OPTIMIZER@XGRAPHICS@@QAEPAV1234@XZ 0057ddc5 f i xgraphicsd:instructiongraph.obj
 0005:00012856       ??0node@?$list@PAVInstruction@VS_GRAPH_OPTIMIZER@XGRAPHICS@@@VS_GRAPH_OPTIMIZER@XGRAPHICS@@QAE@PAVInstruction@23@PAV0123@1@Z 0057ddd6 f i xgraphicsd:instructiongraph.obj
 0005:00012890       ?least@node@?$set@V?$pair@HPAVRegister@VS_GRAPH_OPTIMIZER@XGRAPHICS@@@VS_GRAPH_OPTIMIZER@XGRAPHICS@@U?$pair_less@V?$pair@HPAVRegister@VS_GRAPH_OPTIMIZER@XGRAPHICS@@@VS_GRAPH_OPTIMIZER@XGRAPHICS@@@23@@VS_GRAPH_OPTIMIZER@XGRAPHICS@@QAEPAV1234@XZ 0057de10 f i xgraphicsd:instructiongraph.obj
 0005:000128a1       ??_Enode@?$list@PAVInstruction@VS_GRAPH_OPTIMIZER@XGRAPHICS@@@VS_GRAPH_OPTIMIZER@XGRAPHICS@@UAEPAXI@Z 0057de21 f i xgraphicsd:instructiongraph.obj
 0005:000128a1       ??_Gnode@?$list@PAVInstruction@VS_GRAPH_OPTIMIZER@XGRAPHICS@@@VS_GRAPH_OPTIMIZER@XGRAPHICS@@UAEPAXI@Z 0057de21 f i xgraphicsd:instructiongraph.obj
 0005:000128d1       ??1node@?$list@PAVInstruction@VS_GRAPH_OPTIMIZER@XGRAPHICS@@@VS_GRAPH_OPTIMIZER@XGRAPHICS@@UAE@XZ 0057de51 f i xgraphicsd:instructiongraph.obj
 0005:000128fa       ?assert_root_properties@?$set@PAVGraphOptimizerObject@VS_GRAPH_OPTIMIZER@XGRAPHICS@@U?$less@PAVGraphOptimizerObject@VS_GRAPH_OPTIMIZER@XGRAPHICS@@@23@@VS_GRAPH_OPTIMIZER@XGRAPHICS@@QAEXXZ 0057de7a f i xgraphicsd:instructiongraph.obj
 0005:000128fb       ?clear_node@?$set@PAVGraphOptimizerObject@VS_GRAPH_OPTIMIZER@XGRAPHICS@@U?$less@PAVGraphOptimizerObject@VS_GRAPH_OPTIMIZER@XGRAPHICS@@@23@@VS_GRAPH_OPTIMIZER@XGRAPHICS@@SGXPAVnode@123@@Z 0057de7b f i xgraphicsd:instructiongraph.obj
 0005:00012932       ??R?$less@PAVGraphOptimizerObject@VS_GRAPH_OPTIMIZER@XGRAPHICS@@@VS_GRAPH_OPTIMIZER@XGRAPHICS@@QBE_NPAVGraphOptimizerObject@12@0@Z 0057deb2 f i xgraphicsd:instructiongraph.obj
 0005:00012947       ??0const_iterator@?$set@PAVGraphOptimizerObject@VS_GRAPH_OPTIMIZER@XGRAPHICS@@U?$less@PAVGraphOptimizerObject@VS_GRAPH_OPTIMIZER@XGRAPHICS@@@23@@VS_GRAPH_OPTIMIZER@XGRAPHICS@@QAE@PAVnode@123@@Z 0057dec7 f i xgraphicsd:instructiongraph.obj
 0005:00012958       ??Econst_iterator@?$set@PAVGraphOptimizerObject@VS_GRAPH_OPTIMIZER@XGRAPHICS@@U?$less@PAVGraphOptimizerObject@VS_GRAPH_OPTIMIZER@XGRAPHICS@@@23@@VS_GRAPH_OPTIMIZER@XGRAPHICS@@QAEAAV0123@XZ 0057ded8 f i xgraphicsd:instructiongraph.obj
 0005:000129a4       ?assert_properties@node@?$set@PAVGraphOptimizerObject@VS_GRAPH_OPTIMIZER@XGRAPHICS@@U?$less@PAVGraphOptimizerObject@VS_GRAPH_OPTIMIZER@XGRAPHICS@@@23@@VS_GRAPH_OPTIMIZER@XGRAPHICS@@QAEXXZ 0057df24 f i xgraphicsd:instructiongraph.obj
 0005:000129a5       ?assert_root_properties@?$set@PAV?$collection@PAVRegister@VS_GRAPH_OPTIMIZER@XGRAPHICS@@@VS_GRAPH_OPTIMIZER@XGRAPHICS@@U?$less@PAV?$collection@PAVRegister@VS_GRAPH_OPTIMIZER@XGRAPHICS@@@VS_GRAPH_OPTIMIZER@XGRAPHICS@@@23@@VS_GRAPH_OPTIMIZER@XGRAPHICS@@QAEXXZ 0057df25 f i xgraphicsd:instructiongraph.obj
 0005:000129a6       ??R?$less@PAV?$collection@PAVRegister@VS_GRAPH_OPTIMIZER@XGRAPHICS@@@VS_GRAPH_OPTIMIZER@XGRAPHICS@@@VS_GRAPH_OPTIMIZER@XGRAPHICS@@QBE_NPAV?$collection@PAVRegister@VS_GRAPH_OPTIMIZER@XGRAPHICS@@@12@0@Z 0057df26 f i xgraphicsd:instructiongraph.obj
 0005:000129bb       ?assert_root_properties@?$set@PAVReader@VS_GRAPH_OPTIMIZER@XGRAPHICS@@U?$less@PAVReader@VS_GRAPH_OPTIMIZER@XGRAPHICS@@@23@@VS_GRAPH_OPTIMIZER@XGRAPHICS@@QAEXXZ 0057df3b f i xgraphicsd:instructiongraph.obj
 0005:000129bc       ?clear_node@?$set@PAVReader@VS_GRAPH_OPTIMIZER@XGRAPHICS@@U?$less@PAVReader@VS_GRAPH_OPTIMIZER@XGRAPHICS@@@23@@VS_GRAPH_OPTIMIZER@XGRAPHICS@@SGXPAVnode@123@@Z 0057df3c f i xgraphicsd:instructiongraph.obj
 0005:000129f3       ??R?$less@PAVReader@VS_GRAPH_OPTIMIZER@XGRAPHICS@@@VS_GRAPH_OPTIMIZER@XGRAPHICS@@QBE_NPAVReader@12@0@Z 0057df73 f i xgraphicsd:instructiongraph.obj
 0005:00012a08       ??0const_iterator@?$set@PAV?$collection@PAVRegister@VS_GRAPH_OPTIMIZER@XGRAPHICS@@@VS_GRAPH_OPTIMIZER@XGRAPHICS@@U?$less@PAV?$collection@PAVRegister@VS_GRAPH_OPTIMIZER@XGRAPHICS@@@VS_GRAPH_OPTIMIZER@XGRAPHICS@@@23@@VS_GRAPH_OPTIMIZER@XGRAPHICS@@QAE@PAVnode@123@@Z 0057df88 f i xgraphicsd:instructiongraph.obj
 0005:00012a19       ??Econst_iterator@?$set@PAV?$collection@PAVRegister@VS_GRAPH_OPTIMIZER@XGRAPHICS@@@VS_GRAPH_OPTIMIZER@XGRAPHICS@@U?$less@PAV?$collection@PAVRegister@VS_GRAPH_OPTIMIZER@XGRAPHICS@@@VS_GRAPH_OPTIMIZER@XGRAPHICS@@@23@@VS_GRAPH_OPTIMIZER@XGRAPHICS@@QAEAAV0123@XZ 0057df99 f i xgraphicsd:instructiongraph.obj
 0005:00012a65       ?assert_properties@node@?$set@PAV?$collection@PAVRegister@VS_GRAPH_OPTIMIZER@XGRAPHICS@@@VS_GRAPH_OPTIMIZER@XGRAPHICS@@U?$less@PAV?$collection@PAVRegister@VS_GRAPH_OPTIMIZER@XGRAPHICS@@@VS_GRAPH_OPTIMIZER@XGRAPHICS@@@23@@VS_GRAPH_OPTIMIZER@XGRAPHICS@@QAEXXZ 0057dfe5 f i xgraphicsd:instructiongraph.obj
 0005:00012a66       ?assert_properties@node@?$set@PAVReader@VS_GRAPH_OPTIMIZER@XGRAPHICS@@U?$less@PAVReader@VS_GRAPH_OPTIMIZER@XGRAPHICS@@@23@@VS_GRAPH_OPTIMIZER@XGRAPHICS@@QAEXXZ 0057dfe6 f i xgraphicsd:instructiongraph.obj
 0005:00012a67       ?assert_root_properties@?$set@PAV?$collection@PAVInstruction@VS_GRAPH_OPTIMIZER@XGRAPHICS@@@VS_GRAPH_OPTIMIZER@XGRAPHICS@@U?$less@PAV?$collection@PAVInstruction@VS_GRAPH_OPTIMIZER@XGRAPHICS@@@VS_GRAPH_OPTIMIZER@XGRAPHICS@@@23@@VS_GRAPH_OPTIMIZER@XGRAPHICS@@QAEXXZ 0057dfe7 f i xgraphicsd:instructiongraph.obj
 0005:00012a68       ??R?$less@PAV?$collection@PAVInstruction@VS_GRAPH_OPTIMIZER@XGRAPHICS@@@VS_GRAPH_OPTIMIZER@XGRAPHICS@@@VS_GRAPH_OPTIMIZER@XGRAPHICS@@QBE_NPAV?$collection@PAVInstruction@VS_GRAPH_OPTIMIZER@XGRAPHICS@@@12@0@Z 0057dfe8 f i xgraphicsd:instructiongraph.obj
 0005:00012a7d       ??0const_iterator@?$set@PAV?$collection@PAVInstruction@VS_GRAPH_OPTIMIZER@XGRAPHICS@@@VS_GRAPH_OPTIMIZER@XGRAPHICS@@U?$less@PAV?$collection@PAVInstruction@VS_GRAPH_OPTIMIZER@XGRAPHICS@@@VS_GRAPH_OPTIMIZER@XGRAPHICS@@@23@@VS_GRAPH_OPTIMIZER@XGRAPHICS@@QAE@PAVnode@123@@Z 0057dffd f i xgraphicsd:instructiongraph.obj
 0005:00012a8e       ??Econst_iterator@?$set@PAV?$collection@PAVInstruction@VS_GRAPH_OPTIMIZER@XGRAPHICS@@@VS_GRAPH_OPTIMIZER@XGRAPHICS@@U?$less@PAV?$collection@PAVInstruction@VS_GRAPH_OPTIMIZER@XGRAPHICS@@@VS_GRAPH_OPTIMIZER@XGRAPHICS@@@23@@VS_GRAPH_OPTIMIZER@XGRAPHICS@@QAEAAV0123@XZ 0057e00e f i xgraphicsd:instructiongraph.obj
 0005:00012ada       ?assert_properties@node@?$set@PAV?$collection@PAVInstruction@VS_GRAPH_OPTIMIZER@XGRAPHICS@@@VS_GRAPH_OPTIMIZER@XGRAPHICS@@U?$less@PAV?$collection@PAVInstruction@VS_GRAPH_OPTIMIZER@XGRAPHICS@@@VS_GRAPH_OPTIMIZER@XGRAPHICS@@@23@@VS_GRAPH_OPTIMIZER@XGRAPHICS@@QAEXXZ 0057e05a f i xgraphicsd:instructiongraph.obj
 0005:00012adb       ?assert_root_properties@?$set@PAVInstruction@VS_GRAPH_OPTIMIZER@XGRAPHICS@@UInstructionLess@23@@VS_GRAPH_OPTIMIZER@XGRAPHICS@@QAEXXZ 0057e05b f i xgraphicsd:instructiongraph.obj
 0005:00012adc       ?clear_node@?$set@PAVInstruction@VS_GRAPH_OPTIMIZER@XGRAPHICS@@UInstructionLess@23@@VS_GRAPH_OPTIMIZER@XGRAPHICS@@SGXPAVnode@123@@Z 0057e05c f i xgraphicsd:instructiongraph.obj
 0005:00012b13       ?assert_root_properties@?$set@V?$pair@HPAVRegister@VS_GRAPH_OPTIMIZER@XGRAPHICS@@@VS_GRAPH_OPTIMIZER@XGRAPHICS@@U?$pair_less@V?$pair@HPAVRegister@VS_GRAPH_OPTIMIZER@XGRAPHICS@@@VS_GRAPH_OPTIMIZER@XGRAPHICS@@@23@@VS_GRAPH_OPTIMIZER@XGRAPHICS@@QAEXXZ 0057e093 f i xgraphicsd:instructiongraph.obj
 0005:00012b14       ??R?$pair_less@V?$pair@HPAVRegister@VS_GRAPH_OPTIMIZER@XGRAPHICS@@@VS_GRAPH_OPTIMIZER@XGRAPHICS@@@VS_GRAPH_OPTIMIZER@XGRAPHICS@@QBE_NV?$pair@HPAVRegister@VS_GRAPH_OPTIMIZER@XGRAPHICS@@@12@0@Z 0057e094 f i xgraphicsd:instructiongraph.obj
 0005:00012b2a       ?assert_root_properties@?$set@PAVRegister@VS_GRAPH_OPTIMIZER@XGRAPHICS@@U?$less@PAVRegister@VS_GRAPH_OPTIMIZER@XGRAPHICS@@@23@@VS_GRAPH_OPTIMIZER@XGRAPHICS@@QAEXXZ 0057e0aa f i xgraphicsd:instructiongraph.obj
 0005:00012b2b       ?clear_node@?$set@PAVRegister@VS_GRAPH_OPTIMIZER@XGRAPHICS@@U?$less@PAVRegister@VS_GRAPH_OPTIMIZER@XGRAPHICS@@@23@@VS_GRAPH_OPTIMIZER@XGRAPHICS@@SGXPAVnode@123@@Z 0057e0ab f i xgraphicsd:instructiongraph.obj
 0005:00012b62       ??R?$less@PAVRegister@VS_GRAPH_OPTIMIZER@XGRAPHICS@@@VS_GRAPH_OPTIMIZER@XGRAPHICS@@QBE_NPAVRegister@12@0@Z 0057e0e2 f i xgraphicsd:instructiongraph.obj
 0005:00012b77       ?most@node@?$set@PAVInstruction@VS_GRAPH_OPTIMIZER@XGRAPHICS@@UInstructionLess@23@@VS_GRAPH_OPTIMIZER@XGRAPHICS@@QAEPAV1234@XZ 0057e0f7 f i xgraphicsd:instructiongraph.obj
 0005:00012b88       ?assert_properties@node@?$set@PAVInstruction@VS_GRAPH_OPTIMIZER@XGRAPHICS@@UInstructionLess@23@@VS_GRAPH_OPTIMIZER@XGRAPHICS@@QAEXXZ 0057e108 f i xgraphicsd:instructiongraph.obj
 0005:00012b89       ??0const_iterator@?$set@PAVRegister@VS_GRAPH_OPTIMIZER@XGRAPHICS@@U?$less@PAVRegister@VS_GRAPH_OPTIMIZER@XGRAPHICS@@@23@@VS_GRAPH_OPTIMIZER@XGRAPHICS@@QAE@PAVnode@123@@Z 0057e109 f i xgraphicsd:instructiongraph.obj
 0005:00012b9a       ??Econst_iterator@?$set@PAVRegister@VS_GRAPH_OPTIMIZER@XGRAPHICS@@U?$less@PAVRegister@VS_GRAPH_OPTIMIZER@XGRAPHICS@@@23@@VS_GRAPH_OPTIMIZER@XGRAPHICS@@QAEAAV0123@XZ 0057e11a f i xgraphicsd:instructiongraph.obj
 0005:00012be6       ?assert_properties@node@?$set@PAVRegister@VS_GRAPH_OPTIMIZER@XGRAPHICS@@U?$less@PAVRegister@VS_GRAPH_OPTIMIZER@XGRAPHICS@@@23@@VS_GRAPH_OPTIMIZER@XGRAPHICS@@QAEXXZ 0057e166 f i xgraphicsd:instructiongraph.obj
 0005:00012be7       ?assert_properties@node@?$set@V?$pair@HPAVRegister@VS_GRAPH_OPTIMIZER@XGRAPHICS@@@VS_GRAPH_OPTIMIZER@XGRAPHICS@@U?$pair_less@V?$pair@HPAVRegister@VS_GRAPH_OPTIMIZER@XGRAPHICS@@@VS_GRAPH_OPTIMIZER@XGRAPHICS@@@23@@VS_GRAPH_OPTIMIZER@XGRAPHICS@@QAEXXZ 0057e167 f i xgraphicsd:instructiongraph.obj
 0005:00012be8       ?depth_less@node@?$set@PAVGraphOptimizerObject@VS_GRAPH_OPTIMIZER@XGRAPHICS@@U?$less@PAVGraphOptimizerObject@VS_GRAPH_OPTIMIZER@XGRAPHICS@@@23@@VS_GRAPH_OPTIMIZER@XGRAPHICS@@QAEHXZ 0057e168 f i xgraphicsd:instructiongraph.obj
 0005:00012bf9       ?depth_more@node@?$set@PAVGraphOptimizerObject@VS_GRAPH_OPTIMIZER@XGRAPHICS@@U?$less@PAVGraphOptimizerObject@VS_GRAPH_OPTIMIZER@XGRAPHICS@@@23@@VS_GRAPH_OPTIMIZER@XGRAPHICS@@QAEHXZ 0057e179 f i xgraphicsd:instructiongraph.obj
 0005:00012c0a       ?assert_depth@node@?$set@PAVGraphOptimizerObject@VS_GRAPH_OPTIMIZER@XGRAPHICS@@U?$less@PAVGraphOptimizerObject@VS_GRAPH_OPTIMIZER@XGRAPHICS@@@23@@VS_GRAPH_OPTIMIZER@XGRAPHICS@@QAEXXZ 0057e18a f i xgraphicsd:instructiongraph.obj
 0005:00012c0b       ?assert_order@node@?$set@PAVGraphOptimizerObject@VS_GRAPH_OPTIMIZER@XGRAPHICS@@U?$less@PAVGraphOptimizerObject@VS_GRAPH_OPTIMIZER@XGRAPHICS@@@23@@VS_GRAPH_OPTIMIZER@XGRAPHICS@@QAEXXZ 0057e18b f i xgraphicsd:instructiongraph.obj
 0005:00012c0c       ?assert_links@node@?$set@PAVGraphOptimizerObject@VS_GRAPH_OPTIMIZER@XGRAPHICS@@U?$less@PAVGraphOptimizerObject@VS_GRAPH_OPTIMIZER@XGRAPHICS@@@23@@VS_GRAPH_OPTIMIZER@XGRAPHICS@@QAEXXZ 0057e18c f i xgraphicsd:instructiongraph.obj
 0005:00012c0d       ?depth_less@node@?$set@PAV?$collection@PAVRegister@VS_GRAPH_OPTIMIZER@XGRAPHICS@@@VS_GRAPH_OPTIMIZER@XGRAPHICS@@U?$less@PAV?$collection@PAVRegister@VS_GRAPH_OPTIMIZER@XGRAPHICS@@@VS_GRAPH_OPTIMIZER@XGRAPHICS@@@23@@VS_GRAPH_OPTIMIZER@XGRAPHICS@@QAEHXZ 0057e18d f i xgraphicsd:instructiongraph.obj
 0005:00012c1e       ?depth_more@node@?$set@PAV?$collection@PAVRegister@VS_GRAPH_OPTIMIZER@XGRAPHICS@@@VS_GRAPH_OPTIMIZER@XGRAPHICS@@U?$less@PAV?$collection@PAVRegister@VS_GRAPH_OPTIMIZER@XGRAPHICS@@@VS_GRAPH_OPTIMIZER@XGRAPHICS@@@23@@VS_GRAPH_OPTIMIZER@XGRAPHICS@@QAEHXZ 0057e19e f i xgraphicsd:instructiongraph.obj
 0005:00012c2f       ?assert_depth@node@?$set@PAV?$collection@PAVRegister@VS_GRAPH_OPTIMIZER@XGRAPHICS@@@VS_GRAPH_OPTIMIZER@XGRAPHICS@@U?$less@PAV?$collection@PAVRegister@VS_GRAPH_OPTIMIZER@XGRAPHICS@@@VS_GRAPH_OPTIMIZER@XGRAPHICS@@@23@@VS_GRAPH_OPTIMIZER@XGRAPHICS@@QAEXXZ 0057e1af f i xgraphicsd:instructiongraph.obj
 0005:00012c30       ?assert_order@node@?$set@PAV?$collection@PAVRegister@VS_GRAPH_OPTIMIZER@XGRAPHICS@@@VS_GRAPH_OPTIMIZER@XGRAPHICS@@U?$less@PAV?$collection@PAVRegister@VS_GRAPH_OPTIMIZER@XGRAPHICS@@@VS_GRAPH_OPTIMIZER@XGRAPHICS@@@23@@VS_GRAPH_OPTIMIZER@XGRAPHICS@@QAEXXZ 0057e1b0 f i xgraphicsd:instructiongraph.obj
 0005:00012c31       ?assert_links@node@?$set@PAV?$collection@PAVRegister@VS_GRAPH_OPTIMIZER@XGRAPHICS@@@VS_GRAPH_OPTIMIZER@XGRAPHICS@@U?$less@PAV?$collection@PAVRegister@VS_GRAPH_OPTIMIZER@XGRAPHICS@@@VS_GRAPH_OPTIMIZER@XGRAPHICS@@@23@@VS_GRAPH_OPTIMIZER@XGRAPHICS@@QAEXXZ 0057e1b1 f i xgraphicsd:instructiongraph.obj
 0005:00012c32       ?depth_less@node@?$set@PAVReader@VS_GRAPH_OPTIMIZER@XGRAPHICS@@U?$less@PAVReader@VS_GRAPH_OPTIMIZER@XGRAPHICS@@@23@@VS_GRAPH_OPTIMIZER@XGRAPHICS@@QAEHXZ 0057e1b2 f i xgraphicsd:instructiongraph.obj
 0005:00012c43       ?depth_more@node@?$set@PAVReader@VS_GRAPH_OPTIMIZER@XGRAPHICS@@U?$less@PAVReader@VS_GRAPH_OPTIMIZER@XGRAPHICS@@@23@@VS_GRAPH_OPTIMIZER@XGRAPHICS@@QAEHXZ 0057e1c3 f i xgraphicsd:instructiongraph.obj
 0005:00012c54       ?assert_depth@node@?$set@PAVReader@VS_GRAPH_OPTIMIZER@XGRAPHICS@@U?$less@PAVReader@VS_GRAPH_OPTIMIZER@XGRAPHICS@@@23@@VS_GRAPH_OPTIMIZER@XGRAPHICS@@QAEXXZ 0057e1d4 f i xgraphicsd:instructiongraph.obj
 0005:00012c55       ?assert_order@node@?$set@PAVReader@VS_GRAPH_OPTIMIZER@XGRAPHICS@@U?$less@PAVReader@VS_GRAPH_OPTIMIZER@XGRAPHICS@@@23@@VS_GRAPH_OPTIMIZER@XGRAPHICS@@QAEXXZ 0057e1d5 f i xgraphicsd:instructiongraph.obj
 0005:00012c56       ?assert_links@node@?$set@PAVReader@VS_GRAPH_OPTIMIZER@XGRAPHICS@@U?$less@PAVReader@VS_GRAPH_OPTIMIZER@XGRAPHICS@@@23@@VS_GRAPH_OPTIMIZER@XGRAPHICS@@QAEXXZ 0057e1d6 f i xgraphicsd:instructiongraph.obj
 0005:00012c57       ?depth_less@node@?$set@PAV?$collection@PAVInstruction@VS_GRAPH_OPTIMIZER@XGRAPHICS@@@VS_GRAPH_OPTIMIZER@XGRAPHICS@@U?$less@PAV?$collection@PAVInstruction@VS_GRAPH_OPTIMIZER@XGRAPHICS@@@VS_GRAPH_OPTIMIZER@XGRAPHICS@@@23@@VS_GRAPH_OPTIMIZER@XGRAPHICS@@QAEHXZ 0057e1d7 f i xgraphicsd:instructiongraph.obj
 0005:00012c68       ?depth_more@node@?$set@PAV?$collection@PAVInstruction@VS_GRAPH_OPTIMIZER@XGRAPHICS@@@VS_GRAPH_OPTIMIZER@XGRAPHICS@@U?$less@PAV?$collection@PAVInstruction@VS_GRAPH_OPTIMIZER@XGRAPHICS@@@VS_GRAPH_OPTIMIZER@XGRAPHICS@@@23@@VS_GRAPH_OPTIMIZER@XGRAPHICS@@QAEHXZ 0057e1e8 f i xgraphicsd:instructiongraph.obj
 0005:00012c79       ?assert_depth@node@?$set@PAV?$collection@PAVInstruction@VS_GRAPH_OPTIMIZER@XGRAPHICS@@@VS_GRAPH_OPTIMIZER@XGRAPHICS@@U?$less@PAV?$collection@PAVInstruction@VS_GRAPH_OPTIMIZER@XGRAPHICS@@@VS_GRAPH_OPTIMIZER@XGRAPHICS@@@23@@VS_GRAPH_OPTIMIZER@XGRAPHICS@@QAEXXZ 0057e1f9 f i xgraphicsd:instructiongraph.obj
 0005:00012c7a       ?assert_order@node@?$set@PAV?$collection@PAVInstruction@VS_GRAPH_OPTIMIZER@XGRAPHICS@@@VS_GRAPH_OPTIMIZER@XGRAPHICS@@U?$less@PAV?$collection@PAVInstruction@VS_GRAPH_OPTIMIZER@XGRAPHICS@@@VS_GRAPH_OPTIMIZER@XGRAPHICS@@@23@@VS_GRAPH_OPTIMIZER@XGRAPHICS@@QAEXXZ 0057e1fa f i xgraphicsd:instructiongraph.obj
 0005:00012c7b       ?assert_links@node@?$set@PAV?$collection@PAVInstruction@VS_GRAPH_OPTIMIZER@XGRAPHICS@@@VS_GRAPH_OPTIMIZER@XGRAPHICS@@U?$less@PAV?$collection@PAVInstruction@VS_GRAPH_OPTIMIZER@XGRAPHICS@@@VS_GRAPH_OPTIMIZER@XGRAPHICS@@@23@@VS_GRAPH_OPTIMIZER@XGRAPHICS@@QAEXXZ 0057e1fb f i xgraphicsd:instructiongraph.obj
 0005:00012c7c       ?depth_less@node@?$set@PAVInstruction@VS_GRAPH_OPTIMIZER@XGRAPHICS@@UInstructionLess@23@@VS_GRAPH_OPTIMIZER@XGRAPHICS@@QAEHXZ 0057e1fc f i xgraphicsd:instructiongraph.obj
 0005:00012c8d       ?depth_more@node@?$set@PAVInstruction@VS_GRAPH_OPTIMIZER@XGRAPHICS@@UInstructionLess@23@@VS_GRAPH_OPTIMIZER@XGRAPHICS@@QAEHXZ 0057e20d f i xgraphicsd:instructiongraph.obj
 0005:00012c9e       ?assert_depth@node@?$set@PAVInstruction@VS_GRAPH_OPTIMIZER@XGRAPHICS@@UInstructionLess@23@@VS_GRAPH_OPTIMIZER@XGRAPHICS@@QAEXXZ 0057e21e f i xgraphicsd:instructiongraph.obj
 0005:00012c9f       ?assert_order@node@?$set@PAVInstruction@VS_GRAPH_OPTIMIZER@XGRAPHICS@@UInstructionLess@23@@VS_GRAPH_OPTIMIZER@XGRAPHICS@@QAEXXZ 0057e21f f i xgraphicsd:instructiongraph.obj
 0005:00012ca0       ?assert_links@node@?$set@PAVInstruction@VS_GRAPH_OPTIMIZER@XGRAPHICS@@UInstructionLess@23@@VS_GRAPH_OPTIMIZER@XGRAPHICS@@QAEXXZ 0057e220 f i xgraphicsd:instructiongraph.obj
 0005:00012ca1       ?depth_less@node@?$set@PAVRegister@VS_GRAPH_OPTIMIZER@XGRAPHICS@@U?$less@PAVRegister@VS_GRAPH_OPTIMIZER@XGRAPHICS@@@23@@VS_GRAPH_OPTIMIZER@XGRAPHICS@@QAEHXZ 0057e221 f i xgraphicsd:instructiongraph.obj
 0005:00012cb2       ?depth_more@node@?$set@PAVRegister@VS_GRAPH_OPTIMIZER@XGRAPHICS@@U?$less@PAVRegister@VS_GRAPH_OPTIMIZER@XGRAPHICS@@@23@@VS_GRAPH_OPTIMIZER@XGRAPHICS@@QAEHXZ 0057e232 f i xgraphicsd:instructiongraph.obj
 0005:00012cc3       ?assert_depth@node@?$set@PAVRegister@VS_GRAPH_OPTIMIZER@XGRAPHICS@@U?$less@PAVRegister@VS_GRAPH_OPTIMIZER@XGRAPHICS@@@23@@VS_GRAPH_OPTIMIZER@XGRAPHICS@@QAEXXZ 0057e243 f i xgraphicsd:instructiongraph.obj
 0005:00012cc4       ?assert_order@node@?$set@PAVRegister@VS_GRAPH_OPTIMIZER@XGRAPHICS@@U?$less@PAVRegister@VS_GRAPH_OPTIMIZER@XGRAPHICS@@@23@@VS_GRAPH_OPTIMIZER@XGRAPHICS@@QAEXXZ 0057e244 f i xgraphicsd:instructiongraph.obj
 0005:00012cc5       ?assert_links@node@?$set@PAVRegister@VS_GRAPH_OPTIMIZER@XGRAPHICS@@U?$less@PAVRegister@VS_GRAPH_OPTIMIZER@XGRAPHICS@@@23@@VS_GRAPH_OPTIMIZER@XGRAPHICS@@QAEXXZ 0057e245 f i xgraphicsd:instructiongraph.obj
 0005:00012cc6       ?depth_less@node@?$set@V?$pair@HPAVRegister@VS_GRAPH_OPTIMIZER@XGRAPHICS@@@VS_GRAPH_OPTIMIZER@XGRAPHICS@@U?$pair_less@V?$pair@HPAVRegister@VS_GRAPH_OPTIMIZER@XGRAPHICS@@@VS_GRAPH_OPTIMIZER@XGRAPHICS@@@23@@VS_GRAPH_OPTIMIZER@XGRAPHICS@@QAEHXZ 0057e246 f i xgraphicsd:instructiongraph.obj
 0005:00012cd7       ?depth_more@node@?$set@V?$pair@HPAVRegister@VS_GRAPH_OPTIMIZER@XGRAPHICS@@@VS_GRAPH_OPTIMIZER@XGRAPHICS@@U?$pair_less@V?$pair@HPAVRegister@VS_GRAPH_OPTIMIZER@XGRAPHICS@@@VS_GRAPH_OPTIMIZER@XGRAPHICS@@@23@@VS_GRAPH_OPTIMIZER@XGRAPHICS@@QAEHXZ 0057e257 f i xgraphicsd:instructiongraph.obj
 0005:00012ce8       ?assert_depth@node@?$set@V?$pair@HPAVRegister@VS_GRAPH_OPTIMIZER@XGRAPHICS@@@VS_GRAPH_OPTIMIZER@XGRAPHICS@@U?$pair_less@V?$pair@HPAVRegister@VS_GRAPH_OPTIMIZER@XGRAPHICS@@@VS_GRAPH_OPTIMIZER@XGRAPHICS@@@23@@VS_GRAPH_OPTIMIZER@XGRAPHICS@@QAEXXZ 0057e268 f i xgraphicsd:instructiongraph.obj
 0005:00012ce9       ?assert_order@node@?$set@V?$pair@HPAVRegister@VS_GRAPH_OPTIMIZER@XGRAPHICS@@@VS_GRAPH_OPTIMIZER@XGRAPHICS@@U?$pair_less@V?$pair@HPAVRegister@VS_GRAPH_OPTIMIZER@XGRAPHICS@@@VS_GRAPH_OPTIMIZER@XGRAPHICS@@@23@@VS_GRAPH_OPTIMIZER@XGRAPHICS@@QAEXXZ 0057e269 f i xgraphicsd:instructiongraph.obj
 0005:00012cea       ?assert_links@node@?$set@V?$pair@HPAVRegister@VS_GRAPH_OPTIMIZER@XGRAPHICS@@@VS_GRAPH_OPTIMIZER@XGRAPHICS@@U?$pair_less@V?$pair@HPAVRegister@VS_GRAPH_OPTIMIZER@XGRAPHICS@@@VS_GRAPH_OPTIMIZER@XGRAPHICS@@@23@@VS_GRAPH_OPTIMIZER@XGRAPHICS@@QAEXXZ 0057e26a f i xgraphicsd:instructiongraph.obj
 0005:00012ceb       ??4?$set@PAVGraphOptimizerObject@VS_GRAPH_OPTIMIZER@XGRAPHICS@@U?$less@PAVGraphOptimizerObject@VS_GRAPH_OPTIMIZER@XGRAPHICS@@@23@@VS_GRAPH_OPTIMIZER@XGRAPHICS@@QAEAAV012@ABV012@@Z 0057e26b f i xgraphicsd:instructiongraph.obj
 0005:00012d09       ??0CompMask@VS_GRAPH_OPTIMIZER@XGRAPHICS@@QAE@H@Z 0057e289 f i xgraphicsd:instructiongraph.obj
 0005:00012d2a       ??0CompMask@VS_GRAPH_OPTIMIZER@XGRAPHICS@@QAE@W4CompIndex@12@@Z 0057e2aa f i xgraphicsd:instructiongraph.obj
 0005:00012d55       ??_GCompMask@VS_GRAPH_OPTIMIZER@XGRAPHICS@@UAEPAXI@Z 0057e2d5 f i xgraphicsd:instructiongraph.obj
 0005:00012d55       ??_ECompMask@VS_GRAPH_OPTIMIZER@XGRAPHICS@@UAEPAXI@Z 0057e2d5 f i xgraphicsd:instructiongraph.obj
 0005:00012d82       ?Contains@Swizzle@VS_GRAPH_OPTIMIZER@XGRAPHICS@@QBE?AVCompMask@23@XZ 0057e302 f i xgraphicsd:instructiongraph.obj
 0005:00012dd0       ?Identity@Swizzle@VS_GRAPH_OPTIMIZER@XGRAPHICS@@QBE_NXZ 0057e350 f i xgraphicsd:instructiongraph.obj
 0005:00012df9       ?CleanCompNones@Swizzle@VS_GRAPH_OPTIMIZER@XGRAPHICS@@QBE?AV123@XZ 0057e379 f i xgraphicsd:instructiongraph.obj
 0005:00012e9a       ?Compound@Swizzle@VS_GRAPH_OPTIMIZER@XGRAPHICS@@QBE?AV123@V123@@Z 0057e41a f i xgraphicsd:instructiongraph.obj
 0005:00012f00       ??_GSwizzle@VS_GRAPH_OPTIMIZER@XGRAPHICS@@UAEPAXI@Z 0057e480 f i xgraphicsd:instructiongraph.obj
 0005:00012f00       ??_ESwizzle@VS_GRAPH_OPTIMIZER@XGRAPHICS@@UAEPAXI@Z 0057e480 f i xgraphicsd:instructiongraph.obj
 0005:00012f2d       ?Eq@Register@VS_GRAPH_OPTIMIZER@XGRAPHICS@@QBE_NPBV123@@Z 0057e4ad f i xgraphicsd:instructiongraph.obj
 0005:00012f92       ?LinkNext@Register@VS_GRAPH_OPTIMIZER@XGRAPHICS@@QAEPAV123@PAV123@@Z 0057e512 f i xgraphicsd:instructiongraph.obj
 0005:00012fb8       ?CompIsReadStrictlyNext@Register@VS_GRAPH_OPTIMIZER@XGRAPHICS@@QBE_NW4CompIndex@23@@Z 0057e538 f i xgraphicsd:instructiongraph.obj
 0005:00012fff       ?CompOverwritten@Register@VS_GRAPH_OPTIMIZER@XGRAPHICS@@QBE_NW4CompIndex@23@@Z 0057e57f f i xgraphicsd:instructiongraph.obj
 0005:00013032       ?CompWrittenPrev@Register@VS_GRAPH_OPTIMIZER@XGRAPHICS@@QBE_NW4CompIndex@23@@Z 0057e5b2 f i xgraphicsd:instructiongraph.obj
 0005:00013065       ?HasSource@Register@VS_GRAPH_OPTIMIZER@XGRAPHICS@@QBE?AVCompMask@23@XZ 0057e5e5 f i xgraphicsd:instructiongraph.obj
 0005:000130b7       ?SetSwizzle@Reader@VS_GRAPH_OPTIMIZER@XGRAPHICS@@QAE?AVSwizzle@23@V423@@Z 0057e637 f i xgraphicsd:instructiongraph.obj
 0005:000130e4       ?SetOutResult@Instruction@VS_GRAPH_OPTIMIZER@XGRAPHICS@@QAEPAVRegister@23@PAV423@VCompMask@23@@Z 0057e664 f i xgraphicsd:instructiongraph.obj
 0005:000131bb       ?SetMACResult@Instruction@VS_GRAPH_OPTIMIZER@XGRAPHICS@@QAEPAVRegister@23@PAV423@VCompMask@23@@Z 0057e73b f i xgraphicsd:instructiongraph.obj
 0005:00013292       ?SetILUResult@Instruction@VS_GRAPH_OPTIMIZER@XGRAPHICS@@QAEPAVRegister@23@PAV423@VCompMask@23@@Z 0057e812 f i xgraphicsd:instructiongraph.obj
 0005:00013369       ??0iterator@?$list@PAVInstruction@VS_GRAPH_OPTIMIZER@XGRAPHICS@@@VS_GRAPH_OPTIMIZER@XGRAPHICS@@QAE@AAV0123@@Z 0057e8e9 f i xgraphicsd:instructiongraph.obj
 0005:0001337d       ?RedundantComps@Register@VS_GRAPH_OPTIMIZER@XGRAPHICS@@QBE_NW4CompIndex@23@0@Z 0057e8fd f   xgraphicsd:instructiongraph.obj
 0005:000133bf       ?InstrWantsComp@Reader@VS_GRAPH_OPTIMIZER@XGRAPHICS@@QBE_NW4CompIndex@23@@Z 0057e93f f   xgraphicsd:instructiongraph.obj
 0005:000133ed       ?SwizzleMask@Reader@VS_GRAPH_OPTIMIZER@XGRAPHICS@@QBE?AVCompMask@23@V423@@Z 0057e96d f   xgraphicsd:instructiongraph.obj
 0005:0001344c       ?GetUCode@Instruction@VS_GRAPH_OPTIMIZER@XGRAPHICS@@QBE?AU_D3DVsInstruction@@XZ 0057e9cc f   xgraphicsd:instructiongraph.obj
 0005:00013891       ?ReadsResultOfMAC@Instruction@VS_GRAPH_OPTIMIZER@XGRAPHICS@@QBE_NW4InputIndex@23@PBV123@@Z 0057ee11 f   xgraphicsd:instructiongraph.obj
 0005:00013a30       ?ReadsResultOfILU@Instruction@VS_GRAPH_OPTIMIZER@XGRAPHICS@@QBE_NW4InputIndex@23@PBV123@@Z 0057efb0 f   xgraphicsd:instructiongraph.obj
 0005:00013bcf       ?StallsOnlyForA0x@Instruction@VS_GRAPH_OPTIMIZER@XGRAPHICS@@QBE_NPBV123@@Z 0057f14f f   xgraphicsd:instructiongraph.obj
 0005:00013c6d       ?PutMoveInMAC@Instruction@VS_GRAPH_OPTIMIZER@XGRAPHICS@@QAE_NXZ 0057f1ed f   xgraphicsd:instructiongraph.obj
 0005:00013d01       ?PutMoveInILU@Instruction@VS_GRAPH_OPTIMIZER@XGRAPHICS@@QAE_NXZ 0057f281 f   xgraphicsd:instructiongraph.obj
 0005:00013e38       ??0iterator@?$set@PAVInstruction@VS_GRAPH_OPTIMIZER@XGRAPHICS@@UInstructionLess@23@@VS_GRAPH_OPTIMIZER@XGRAPHICS@@QAE@AAV0123@@Z 0057f3b8 f i xgraphicsd:instructiongraph.obj
 0005:00013e4c       ??0iterator@?$set@V?$pair@HPAVRegister@VS_GRAPH_OPTIMIZER@XGRAPHICS@@@VS_GRAPH_OPTIMIZER@XGRAPHICS@@U?$pair_less@V?$pair@HPAVRegister@VS_GRAPH_OPTIMIZER@XGRAPHICS@@@VS_GRAPH_OPTIMIZER@XGRAPHICS@@@23@@VS_GRAPH_OPTIMIZER@XGRAPHICS@@QAE@AAV0123@@Z 0057f3cc f i xgraphicsd:instructiongraph.obj
 0005:00013e60       ??0iterator@?$set@PAVReader@VS_GRAPH_OPTIMIZER@XGRAPHICS@@U?$less@PAVReader@VS_GRAPH_OPTIMIZER@XGRAPHICS@@@23@@VS_GRAPH_OPTIMIZER@XGRAPHICS@@QAE@AAV0123@@Z 0057f3e0 f i xgraphicsd:instructiongraph.obj
 0005:00013e74       ??0iterator@?$set@PAVRegister@VS_GRAPH_OPTIMIZER@XGRAPHICS@@U?$less@PAVRegister@VS_GRAPH_OPTIMIZER@XGRAPHICS@@@23@@VS_GRAPH_OPTIMIZER@XGRAPHICS@@QAE@AAV0123@@Z 0057f3f4 f i xgraphicsd:instructiongraph.obj
 0005:00013e88       ??0?$set@PAVGraphOptimizerObject@VS_GRAPH_OPTIMIZER@XGRAPHICS@@U?$less@PAVGraphOptimizerObject@VS_GRAPH_OPTIMIZER@XGRAPHICS@@@23@@VS_GRAPH_OPTIMIZER@XGRAPHICS@@QAE@XZ 0057f408 f i xgraphicsd:instructiongraph.obj
 0005:00013e9d       ??0?$set@PAV?$collection@PAVRegister@VS_GRAPH_OPTIMIZER@XGRAPHICS@@@VS_GRAPH_OPTIMIZER@XGRAPHICS@@U?$less@PAV?$collection@PAVRegister@VS_GRAPH_OPTIMIZER@XGRAPHICS@@@VS_GRAPH_OPTIMIZER@XGRAPHICS@@@23@@VS_GRAPH_OPTIMIZER@XGRAPHICS@@QAE@XZ 0057f41d f i xgraphicsd:instructiongraph.obj
 0005:00013eb2       ?clear@?$set@PAV?$collection@PAVRegister@VS_GRAPH_OPTIMIZER@XGRAPHICS@@@VS_GRAPH_OPTIMIZER@XGRAPHICS@@U?$less@PAV?$collection@PAVRegister@VS_GRAPH_OPTIMIZER@XGRAPHICS@@@VS_GRAPH_OPTIMIZER@XGRAPHICS@@@23@@VS_GRAPH_OPTIMIZER@XGRAPHICS@@QAEXXZ 0057f432 f i xgraphicsd:instructiongraph.obj
 0005:00013ecc       ??0?$set@PAVReader@VS_GRAPH_OPTIMIZER@XGRAPHICS@@U?$less@PAVReader@VS_GRAPH_OPTIMIZER@XGRAPHICS@@@23@@VS_GRAPH_OPTIMIZER@XGRAPHICS@@QAE@XZ 0057f44c f i xgraphicsd:instructiongraph.obj
 0005:00013ee1       ?begin@?$set@PAVReader@VS_GRAPH_OPTIMIZER@XGRAPHICS@@U?$less@PAVReader@VS_GRAPH_OPTIMIZER@XGRAPHICS@@@23@@VS_GRAPH_OPTIMIZER@XGRAPHICS@@QBE?AVconst_iterator@123@XZ 0057f461 f i xgraphicsd:instructiongraph.obj
 0005:00013f06       ?end@?$set@PAVReader@VS_GRAPH_OPTIMIZER@XGRAPHICS@@U?$less@PAVReader@VS_GRAPH_OPTIMIZER@XGRAPHICS@@@23@@VS_GRAPH_OPTIMIZER@XGRAPHICS@@QBE?AVconst_iterator@123@XZ 0057f486 f i xgraphicsd:instructiongraph.obj
 0005:00013f16       ??9const_iterator@?$set@PAV?$collection@PAVRegister@VS_GRAPH_OPTIMIZER@XGRAPHICS@@@VS_GRAPH_OPTIMIZER@XGRAPHICS@@U?$less@PAV?$collection@PAVRegister@VS_GRAPH_OPTIMIZER@XGRAPHICS@@@VS_GRAPH_OPTIMIZER@XGRAPHICS@@@23@@VS_GRAPH_OPTIMIZER@XGRAPHICS@@QBE_NAAV0123@@Z 0057f496 f i xgraphicsd:instructiongraph.obj
 0005:00013f30       ??0iterator@?$set@PAVReader@VS_GRAPH_OPTIMIZER@XGRAPHICS@@U?$less@PAVReader@VS_GRAPH_OPTIMIZER@XGRAPHICS@@@23@@VS_GRAPH_OPTIMIZER@XGRAPHICS@@QAE@PAVnode@123@@Z 0057f4b0 f i xgraphicsd:instructiongraph.obj
 0005:00013f41       ??Eiterator@?$set@PAVReader@VS_GRAPH_OPTIMIZER@XGRAPHICS@@U?$less@PAVReader@VS_GRAPH_OPTIMIZER@XGRAPHICS@@@23@@VS_GRAPH_OPTIMIZER@XGRAPHICS@@QAE?AV0123@H@Z 0057f4c1 f i xgraphicsd:instructiongraph.obj
 0005:00013f5b       ??0?$set@PAV?$collection@PAVInstruction@VS_GRAPH_OPTIMIZER@XGRAPHICS@@@VS_GRAPH_OPTIMIZER@XGRAPHICS@@U?$less@PAV?$collection@PAVInstruction@VS_GRAPH_OPTIMIZER@XGRAPHICS@@@VS_GRAPH_OPTIMIZER@XGRAPHICS@@@23@@VS_GRAPH_OPTIMIZER@XGRAPHICS@@QAE@XZ 0057f4db f i xgraphicsd:instructiongraph.obj
 0005:00013f70       ?clear@?$set@PAV?$collection@PAVInstruction@VS_GRAPH_OPTIMIZER@XGRAPHICS@@@VS_GRAPH_OPTIMIZER@XGRAPHICS@@U?$less@PAV?$collection@PAVInstruction@VS_GRAPH_OPTIMIZER@XGRAPHICS@@@VS_GRAPH_OPTIMIZER@XGRAPHICS@@@23@@VS_GRAPH_OPTIMIZER@XGRAPHICS@@QAEXXZ 0057f4f0 f i xgraphicsd:instructiongraph.obj
 0005:00013f8a       ??0?$list@PAVInstruction@VS_GRAPH_OPTIMIZER@XGRAPHICS@@@VS_GRAPH_OPTIMIZER@XGRAPHICS@@QAE@XZ 0057f50a f i xgraphicsd:instructiongraph.obj
 0005:00013fa3       ?erase@?$list@PAVInstruction@VS_GRAPH_OPTIMIZER@XGRAPHICS@@@VS_GRAPH_OPTIMIZER@XGRAPHICS@@QAE?AViterator@123@V4123@@Z 0057f523 f i xgraphicsd:instructiongraph.obj
 0005:00013fc3       ?push_back@?$list@PAVInstruction@VS_GRAPH_OPTIMIZER@XGRAPHICS@@@VS_GRAPH_OPTIMIZER@XGRAPHICS@@QAEXPAVInstruction@23@@Z 0057f543 f i xgraphicsd:instructiongraph.obj
 0005:0001400f       ?pop_back@?$list@PAVInstruction@VS_GRAPH_OPTIMIZER@XGRAPHICS@@@VS_GRAPH_OPTIMIZER@XGRAPHICS@@QAEXXZ 0057f58f f i xgraphicsd:instructiongraph.obj
 0005:0001401a       ??9const_iterator@?$set@PAV?$collection@PAVInstruction@VS_GRAPH_OPTIMIZER@XGRAPHICS@@@VS_GRAPH_OPTIMIZER@XGRAPHICS@@U?$less@PAV?$collection@PAVInstruction@VS_GRAPH_OPTIMIZER@XGRAPHICS@@@VS_GRAPH_OPTIMIZER@XGRAPHICS@@@23@@VS_GRAPH_OPTIMIZER@XGRAPHICS@@QBE_NAAV0123@@Z 0057f59a f i xgraphicsd:instructiongraph.obj
 0005:00014034       ??0?$set@PAVInstruction@VS_GRAPH_OPTIMIZER@XGRAPHICS@@UInstructionLess@23@@VS_GRAPH_OPTIMIZER@XGRAPHICS@@QAE@XZ 0057f5b4 f i xgraphicsd:instructiongraph.obj
 0005:00014049       ?begin@?$set@PAVInstruction@VS_GRAPH_OPTIMIZER@XGRAPHICS@@UInstructionLess@23@@VS_GRAPH_OPTIMIZER@XGRAPHICS@@QBE?AVconst_iterator@123@XZ 0057f5c9 f i xgraphicsd:instructiongraph.obj
 0005:0001406e       ?end@?$set@PAVInstruction@VS_GRAPH_OPTIMIZER@XGRAPHICS@@UInstructionLess@23@@VS_GRAPH_OPTIMIZER@XGRAPHICS@@QBE?AVconst_iterator@123@XZ 0057f5ee f i xgraphicsd:instructiongraph.obj
 0005:0001407e       ?find@?$set@PAVInstruction@VS_GRAPH_OPTIMIZER@XGRAPHICS@@UInstructionLess@23@@VS_GRAPH_OPTIMIZER@XGRAPHICS@@QBE?AVconst_iterator@123@PAVInstruction@23@@Z 0057f5fe f i xgraphicsd:instructiongraph.obj
 0005:00014099       ??0iterator@?$set@PAVInstruction@VS_GRAPH_OPTIMIZER@XGRAPHICS@@UInstructionLess@23@@VS_GRAPH_OPTIMIZER@XGRAPHICS@@QAE@PAVnode@123@@Z 0057f619 f i xgraphicsd:instructiongraph.obj
 0005:000140aa       ??0?$set@V?$pair@HPAVRegister@VS_GRAPH_OPTIMIZER@XGRAPHICS@@@VS_GRAPH_OPTIMIZER@XGRAPHICS@@U?$pair_less@V?$pair@HPAVRegister@VS_GRAPH_OPTIMIZER@XGRAPHICS@@@VS_GRAPH_OPTIMIZER@XGRAPHICS@@@23@@VS_GRAPH_OPTIMIZER@XGRAPHICS@@QAE@XZ 0057f62a f i xgraphicsd:instructiongraph.obj
 0005:000140bf       ?begin@?$set@V?$pair@HPAVRegister@VS_GRAPH_OPTIMIZER@XGRAPHICS@@@VS_GRAPH_OPTIMIZER@XGRAPHICS@@U?$pair_less@V?$pair@HPAVRegister@VS_GRAPH_OPTIMIZER@XGRAPHICS@@@VS_GRAPH_OPTIMIZER@XGRAPHICS@@@23@@VS_GRAPH_OPTIMIZER@XGRAPHICS@@QAE?AViterator@123@XZ 0057f63f f i xgraphicsd:instructiongraph.obj
 0005:000140e4       ?begin@?$set@V?$pair@HPAVRegister@VS_GRAPH_OPTIMIZER@XGRAPHICS@@@VS_GRAPH_OPTIMIZER@XGRAPHICS@@U?$pair_less@V?$pair@HPAVRegister@VS_GRAPH_OPTIMIZER@XGRAPHICS@@@VS_GRAPH_OPTIMIZER@XGRAPHICS@@@23@@VS_GRAPH_OPTIMIZER@XGRAPHICS@@QBE?AVconst_iterator@123@XZ 0057f664 f i xgraphicsd:instructiongraph.obj
 0005:00014109       ?end@?$set@V?$pair@HPAVRegister@VS_GRAPH_OPTIMIZER@XGRAPHICS@@@VS_GRAPH_OPTIMIZER@XGRAPHICS@@U?$pair_less@V?$pair@HPAVRegister@VS_GRAPH_OPTIMIZER@XGRAPHICS@@@VS_GRAPH_OPTIMIZER@XGRAPHICS@@@23@@VS_GRAPH_OPTIMIZER@XGRAPHICS@@QAE?AViterator@123@XZ 0057f689 f i xgraphicsd:instructiongraph.obj
 0005:00014119       ?end@?$set@V?$pair@HPAVRegister@VS_GRAPH_OPTIMIZER@XGRAPHICS@@@VS_GRAPH_OPTIMIZER@XGRAPHICS@@U?$pair_less@V?$pair@HPAVRegister@VS_GRAPH_OPTIMIZER@XGRAPHICS@@@VS_GRAPH_OPTIMIZER@XGRAPHICS@@@23@@VS_GRAPH_OPTIMIZER@XGRAPHICS@@QBE?AVconst_iterator@123@XZ 0057f699 f i xgraphicsd:instructiongraph.obj
 0005:00014129       ?clear@?$set@V?$pair@HPAVRegister@VS_GRAPH_OPTIMIZER@XGRAPHICS@@@VS_GRAPH_OPTIMIZER@XGRAPHICS@@U?$pair_less@V?$pair@HPAVRegister@VS_GRAPH_OPTIMIZER@XGRAPHICS@@@VS_GRAPH_OPTIMIZER@XGRAPHICS@@@23@@VS_GRAPH_OPTIMIZER@XGRAPHICS@@QAEXXZ 0057f6a9 f i xgraphicsd:instructiongraph.obj
 0005:00014143       ??0iterator@?$list@PAVInstruction@VS_GRAPH_OPTIMIZER@XGRAPHICS@@@VS_GRAPH_OPTIMIZER@XGRAPHICS@@QAE@PAVnode@123@@Z 0057f6c3 f i xgraphicsd:instructiongraph.obj
 0005:00014154       ??Eiterator@?$list@PAVInstruction@VS_GRAPH_OPTIMIZER@XGRAPHICS@@@VS_GRAPH_OPTIMIZER@XGRAPHICS@@QAE?AV0123@H@Z 0057f6d4 f i xgraphicsd:instructiongraph.obj
 0005:0001416b       ??Econst_iterator@?$list@PAVInstruction@VS_GRAPH_OPTIMIZER@XGRAPHICS@@@VS_GRAPH_OPTIMIZER@XGRAPHICS@@QAE?AV0123@H@Z 0057f6eb f i xgraphicsd:instructiongraph.obj
 0005:00014182       ??0iterator@?$set@PAV?$collection@PAVRegister@VS_GRAPH_OPTIMIZER@XGRAPHICS@@@VS_GRAPH_OPTIMIZER@XGRAPHICS@@U?$less@PAV?$collection@PAVRegister@VS_GRAPH_OPTIMIZER@XGRAPHICS@@@VS_GRAPH_OPTIMIZER@XGRAPHICS@@@23@@VS_GRAPH_OPTIMIZER@XGRAPHICS@@QAE@AAV0123@@Z 0057f702 f i xgraphicsd:instructiongraph.obj
 0005:00014196       ??0iterator@?$set@PAV?$collection@PAVInstruction@VS_GRAPH_OPTIMIZER@XGRAPHICS@@@VS_GRAPH_OPTIMIZER@XGRAPHICS@@U?$less@PAV?$collection@PAVInstruction@VS_GRAPH_OPTIMIZER@XGRAPHICS@@@VS_GRAPH_OPTIMIZER@XGRAPHICS@@@23@@VS_GRAPH_OPTIMIZER@XGRAPHICS@@QAE@AAV0123@@Z 0057f716 f i xgraphicsd:instructiongraph.obj
 0005:000141aa       ?find_node@?$set@PAVGraphOptimizerObject@VS_GRAPH_OPTIMIZER@XGRAPHICS@@U?$less@PAVGraphOptimizerObject@VS_GRAPH_OPTIMIZER@XGRAPHICS@@@23@@VS_GRAPH_OPTIMIZER@XGRAPHICS@@QBEPAVnode@123@PAVGraphOptimizerObject@23@@Z 0057f72a f i xgraphicsd:instructiongraph.obj
 0005:000141d4       ?clear@?$set@PAVGraphOptimizerObject@VS_GRAPH_OPTIMIZER@XGRAPHICS@@U?$less@PAVGraphOptimizerObject@VS_GRAPH_OPTIMIZER@XGRAPHICS@@@23@@VS_GRAPH_OPTIMIZER@XGRAPHICS@@QAEXXZ 0057f754 f i xgraphicsd:instructiongraph.obj
 0005:000141ee       ??0node@?$set@PAVGraphOptimizerObject@VS_GRAPH_OPTIMIZER@XGRAPHICS@@U?$less@PAVGraphOptimizerObject@VS_GRAPH_OPTIMIZER@XGRAPHICS@@@23@@VS_GRAPH_OPTIMIZER@XGRAPHICS@@QAE@PAVGraphOptimizerObject@23@PAV0123@@Z 0057f76e f i xgraphicsd:instructiongraph.obj
 0005:00014222       ??_Enode@?$set@PAVGraphOptimizerObject@VS_GRAPH_OPTIMIZER@XGRAPHICS@@U?$less@PAVGraphOptimizerObject@VS_GRAPH_OPTIMIZER@XGRAPHICS@@@23@@VS_GRAPH_OPTIMIZER@XGRAPHICS@@UAEPAXI@Z 0057f7a2 f i xgraphicsd:instructiongraph.obj
 0005:00014222       ??_Gnode@?$set@PAVGraphOptimizerObject@VS_GRAPH_OPTIMIZER@XGRAPHICS@@U?$less@PAVGraphOptimizerObject@VS_GRAPH_OPTIMIZER@XGRAPHICS@@@23@@VS_GRAPH_OPTIMIZER@XGRAPHICS@@UAEPAXI@Z 0057f7a2 f i xgraphicsd:instructiongraph.obj
 0005:0001424f       ??0iterator@?$set@PAVGraphOptimizerObject@VS_GRAPH_OPTIMIZER@XGRAPHICS@@U?$less@PAVGraphOptimizerObject@VS_GRAPH_OPTIMIZER@XGRAPHICS@@@23@@VS_GRAPH_OPTIMIZER@XGRAPHICS@@QAE@PAVnode@123@@Z 0057f7cf f i xgraphicsd:instructiongraph.obj
 0005:00014260       ?find_node@?$set@PAV?$collection@PAVRegister@VS_GRAPH_OPTIMIZER@XGRAPHICS@@@VS_GRAPH_OPTIMIZER@XGRAPHICS@@U?$less@PAV?$collection@PAVRegister@VS_GRAPH_OPTIMIZER@XGRAPHICS@@@VS_GRAPH_OPTIMIZER@XGRAPHICS@@@23@@VS_GRAPH_OPTIMIZER@XGRAPHICS@@QBEPAVnode@123@PAV?$collection@PAVRegister@VS_GRAPH_OPTIMIZER@XGRAPHICS@@@23@@Z 0057f7e0 f i xgraphicsd:instructiongraph.obj
 0005:0001428a       ?find_node@?$set@PAVReader@VS_GRAPH_OPTIMIZER@XGRAPHICS@@U?$less@PAVReader@VS_GRAPH_OPTIMIZER@XGRAPHICS@@@23@@VS_GRAPH_OPTIMIZER@XGRAPHICS@@QBEPAVnode@123@PAVReader@23@@Z 0057f80a f i xgraphicsd:instructiongraph.obj
 0005:000142b4       ?clear@?$set@PAVReader@VS_GRAPH_OPTIMIZER@XGRAPHICS@@U?$less@PAVReader@VS_GRAPH_OPTIMIZER@XGRAPHICS@@@23@@VS_GRAPH_OPTIMIZER@XGRAPHICS@@QAEXXZ 0057f834 f i xgraphicsd:instructiongraph.obj
 0005:000142ce       ??0node@?$set@PAV?$collection@PAVRegister@VS_GRAPH_OPTIMIZER@XGRAPHICS@@@VS_GRAPH_OPTIMIZER@XGRAPHICS@@U?$less@PAV?$collection@PAVRegister@VS_GRAPH_OPTIMIZER@XGRAPHICS@@@VS_GRAPH_OPTIMIZER@XGRAPHICS@@@23@@VS_GRAPH_OPTIMIZER@XGRAPHICS@@QAE@PAV?$collection@PAVRegister@VS_GRAPH_OPTIMIZER@XGRAPHICS@@@23@PAV0123@@Z 0057f84e f i xgraphicsd:instructiongraph.obj
 0005:00014302       ??_Enode@?$set@PAV?$collection@PAVRegister@VS_GRAPH_OPTIMIZER@XGRAPHICS@@@VS_GRAPH_OPTIMIZER@XGRAPHICS@@U?$less@PAV?$collection@PAVRegister@VS_GRAPH_OPTIMIZER@XGRAPHICS@@@VS_GRAPH_OPTIMIZER@XGRAPHICS@@@23@@VS_GRAPH_OPTIMIZER@XGRAPHICS@@UAEPAXI@Z 0057f882 f i xgraphicsd:instructiongraph.obj
 0005:00014302       ??_Gnode@?$set@PAV?$collection@PAVRegister@VS_GRAPH_OPTIMIZER@XGRAPHICS@@@VS_GRAPH_OPTIMIZER@XGRAPHICS@@U?$less@PAV?$collection@PAVRegister@VS_GRAPH_OPTIMIZER@XGRAPHICS@@@VS_GRAPH_OPTIMIZER@XGRAPHICS@@@23@@VS_GRAPH_OPTIMIZER@XGRAPHICS@@UAEPAXI@Z 0057f882 f i xgraphicsd:instructiongraph.obj
 0005:0001432f       ??0iterator@?$set@PAV?$collection@PAVRegister@VS_GRAPH_OPTIMIZER@XGRAPHICS@@@VS_GRAPH_OPTIMIZER@XGRAPHICS@@U?$less@PAV?$collection@PAVRegister@VS_GRAPH_OPTIMIZER@XGRAPHICS@@@VS_GRAPH_OPTIMIZER@XGRAPHICS@@@23@@VS_GRAPH_OPTIMIZER@XGRAPHICS@@QAE@PAVnode@123@@Z 0057f8af f i xgraphicsd:instructiongraph.obj
 0005:00014340       ??Econst_iterator@?$set@PAVReader@VS_GRAPH_OPTIMIZER@XGRAPHICS@@U?$less@PAVReader@VS_GRAPH_OPTIMIZER@XGRAPHICS@@@23@@VS_GRAPH_OPTIMIZER@XGRAPHICS@@QAEAAV0123@XZ 0057f8c0 f i xgraphicsd:instructiongraph.obj
 0005:0001438c       ??0node@?$set@PAVReader@VS_GRAPH_OPTIMIZER@XGRAPHICS@@U?$less@PAVReader@VS_GRAPH_OPTIMIZER@XGRAPHICS@@@23@@VS_GRAPH_OPTIMIZER@XGRAPHICS@@QAE@PAVReader@23@PAV0123@@Z 0057f90c f i xgraphicsd:instructiongraph.obj
 0005:000143c0       ??_Gnode@?$set@PAVReader@VS_GRAPH_OPTIMIZER@XGRAPHICS@@U?$less@PAVReader@VS_GRAPH_OPTIMIZER@XGRAPHICS@@@23@@VS_GRAPH_OPTIMIZER@XGRAPHICS@@UAEPAXI@Z 0057f940 f i xgraphicsd:instructiongraph.obj
 0005:000143c0       ??_Enode@?$set@PAVReader@VS_GRAPH_OPTIMIZER@XGRAPHICS@@U?$less@PAVReader@VS_GRAPH_OPTIMIZER@XGRAPHICS@@@23@@VS_GRAPH_OPTIMIZER@XGRAPHICS@@UAEPAXI@Z 0057f940 f i xgraphicsd:instructiongraph.obj
 0005:000143ed       ?find_node@?$set@PAV?$collection@PAVInstruction@VS_GRAPH_OPTIMIZER@XGRAPHICS@@@VS_GRAPH_OPTIMIZER@XGRAPHICS@@U?$less@PAV?$collection@PAVInstruction@VS_GRAPH_OPTIMIZER@XGRAPHICS@@@VS_GRAPH_OPTIMIZER@XGRAPHICS@@@23@@VS_GRAPH_OPTIMIZER@XGRAPHICS@@QBEPAVnode@123@PAV?$collection@PAVInstruction@VS_GRAPH_OPTIMIZER@XGRAPHICS@@@23@@Z 0057f96d f i xgraphicsd:instructiongraph.obj
 0005:00014417       ??0node@?$set@PAV?$collection@PAVInstruction@VS_GRAPH_OPTIMIZER@XGRAPHICS@@@VS_GRAPH_OPTIMIZER@XGRAPHICS@@U?$less@PAV?$collection@PAVInstruction@VS_GRAPH_OPTIMIZER@XGRAPHICS@@@VS_GRAPH_OPTIMIZER@XGRAPHICS@@@23@@VS_GRAPH_OPTIMIZER@XGRAPHICS@@QAE@PAV?$collection@PAVInstruction@VS_GRAPH_OPTIMIZER@XGRAPHICS@@@23@PAV0123@@Z 0057f997 f i xgraphicsd:instructiongraph.obj
 0005:0001444b       ??_Enode@?$set@PAV?$collection@PAVInstruction@VS_GRAPH_OPTIMIZER@XGRAPHICS@@@VS_GRAPH_OPTIMIZER@XGRAPHICS@@U?$less@PAV?$collection@PAVInstruction@VS_GRAPH_OPTIMIZER@XGRAPHICS@@@VS_GRAPH_OPTIMIZER@XGRAPHICS@@@23@@VS_GRAPH_OPTIMIZER@XGRAPHICS@@UAEPAXI@Z 0057f9cb f i xgraphicsd:instructiongraph.obj
 0005:0001444b       ??_Gnode@?$set@PAV?$collection@PAVInstruction@VS_GRAPH_OPTIMIZER@XGRAPHICS@@@VS_GRAPH_OPTIMIZER@XGRAPHICS@@U?$less@PAV?$collection@PAVInstruction@VS_GRAPH_OPTIMIZER@XGRAPHICS@@@VS_GRAPH_OPTIMIZER@XGRAPHICS@@@23@@VS_GRAPH_OPTIMIZER@XGRAPHICS@@UAEPAXI@Z 0057f9cb f i xgraphicsd:instructiongraph.obj
 0005:00014478       ??0iterator@?$set@PAV?$collection@PAVInstruction@VS_GRAPH_OPTIMIZER@XGRAPHICS@@@VS_GRAPH_OPTIMIZER@XGRAPHICS@@U?$less@PAV?$collection@PAVInstruction@VS_GRAPH_OPTIMIZER@XGRAPHICS@@@VS_GRAPH_OPTIMIZER@XGRAPHICS@@@23@@VS_GRAPH_OPTIMIZER@XGRAPHICS@@QAE@PAVnode@123@@Z 0057f9f8 f i xgraphicsd:instructiongraph.obj
 0005:00014489       ?clear@?$set@PAVInstruction@VS_GRAPH_OPTIMIZER@XGRAPHICS@@UInstructionLess@23@@VS_GRAPH_OPTIMIZER@XGRAPHICS@@QAEXXZ 0057fa09 f i xgraphicsd:instructiongraph.obj
 0005:000144a3       ??Eiterator@?$set@PAVInstruction@VS_GRAPH_OPTIMIZER@XGRAPHICS@@UInstructionLess@23@@VS_GRAPH_OPTIMIZER@XGRAPHICS@@QAEAAV0123@XZ 0057fa23 f i xgraphicsd:instructiongraph.obj
 0005:000144dc       ??Fiterator@?$set@PAVInstruction@VS_GRAPH_OPTIMIZER@XGRAPHICS@@UInstructionLess@23@@VS_GRAPH_OPTIMIZER@XGRAPHICS@@QAEAAV0123@XZ 0057fa5c f i xgraphicsd:instructiongraph.obj
 0005:00014523       ??Econst_iterator@?$set@PAVInstruction@VS_GRAPH_OPTIMIZER@XGRAPHICS@@UInstructionLess@23@@VS_GRAPH_OPTIMIZER@XGRAPHICS@@QAEAAV0123@XZ 0057faa3 f i xgraphicsd:instructiongraph.obj
 0005:0001456f       ?find_node@?$set@V?$pair@HPAVRegister@VS_GRAPH_OPTIMIZER@XGRAPHICS@@@VS_GRAPH_OPTIMIZER@XGRAPHICS@@U?$pair_less@V?$pair@HPAVRegister@VS_GRAPH_OPTIMIZER@XGRAPHICS@@@VS_GRAPH_OPTIMIZER@XGRAPHICS@@@23@@VS_GRAPH_OPTIMIZER@XGRAPHICS@@QBEPAVnode@123@V?$pair@HPAVRegister@VS_GRAPH_OPTIMIZER@XGRAPHICS@@@23@@Z 0057faef f i xgraphicsd:instructiongraph.obj
 0005:00014599       ??Econst_iterator@?$set@V?$pair@HPAVRegister@VS_GRAPH_OPTIMIZER@XGRAPHICS@@@VS_GRAPH_OPTIMIZER@XGRAPHICS@@U?$pair_less@V?$pair@HPAVRegister@VS_GRAPH_OPTIMIZER@XGRAPHICS@@@VS_GRAPH_OPTIMIZER@XGRAPHICS@@@23@@VS_GRAPH_OPTIMIZER@XGRAPHICS@@QAEAAV0123@XZ 0057fb19 f i xgraphicsd:instructiongraph.obj
 0005:000145e5       ?clear@?$set@PAVRegister@VS_GRAPH_OPTIMIZER@XGRAPHICS@@U?$less@PAVRegister@VS_GRAPH_OPTIMIZER@XGRAPHICS@@@23@@VS_GRAPH_OPTIMIZER@XGRAPHICS@@QAEXXZ 0057fb65 f i xgraphicsd:instructiongraph.obj
 0005:000145ff       ??0node@?$set@PAVInstruction@VS_GRAPH_OPTIMIZER@XGRAPHICS@@UInstructionLess@23@@VS_GRAPH_OPTIMIZER@XGRAPHICS@@QAE@PAVInstruction@23@PAV0123@@Z 0057fb7f f i xgraphicsd:instructiongraph.obj
 0005:00014633       ??_Gnode@?$set@PAVInstruction@VS_GRAPH_OPTIMIZER@XGRAPHICS@@UInstructionLess@23@@VS_GRAPH_OPTIMIZER@XGRAPHICS@@UAEPAXI@Z 0057fbb3 f i xgraphicsd:instructiongraph.obj
 0005:00014633       ??_Enode@?$set@PAVInstruction@VS_GRAPH_OPTIMIZER@XGRAPHICS@@UInstructionLess@23@@VS_GRAPH_OPTIMIZER@XGRAPHICS@@UAEPAXI@Z 0057fbb3 f i xgraphicsd:instructiongraph.obj
 0005:00014660       ??0iterator@?$set@PAVRegister@VS_GRAPH_OPTIMIZER@XGRAPHICS@@U?$less@PAVRegister@VS_GRAPH_OPTIMIZER@XGRAPHICS@@@23@@VS_GRAPH_OPTIMIZER@XGRAPHICS@@QAE@PAVnode@123@@Z 0057fbe0 f i xgraphicsd:instructiongraph.obj
 0005:00014671       ??0node@?$set@PAVRegister@VS_GRAPH_OPTIMIZER@XGRAPHICS@@U?$less@PAVRegister@VS_GRAPH_OPTIMIZER@XGRAPHICS@@@23@@VS_GRAPH_OPTIMIZER@XGRAPHICS@@QAE@PAVRegister@23@PAV0123@@Z 0057fbf1 f i xgraphicsd:instructiongraph.obj
 0005:000146a5       ??_Enode@?$set@PAVRegister@VS_GRAPH_OPTIMIZER@XGRAPHICS@@U?$less@PAVRegister@VS_GRAPH_OPTIMIZER@XGRAPHICS@@@23@@VS_GRAPH_OPTIMIZER@XGRAPHICS@@UAEPAXI@Z 0057fc25 f i xgraphicsd:instructiongraph.obj
 0005:000146a5       ??_Gnode@?$set@PAVRegister@VS_GRAPH_OPTIMIZER@XGRAPHICS@@U?$less@PAVRegister@VS_GRAPH_OPTIMIZER@XGRAPHICS@@@23@@VS_GRAPH_OPTIMIZER@XGRAPHICS@@UAEPAXI@Z 0057fc25 f i xgraphicsd:instructiongraph.obj
 0005:000146d2       ??0node@?$set@V?$pair@HPAVRegister@VS_GRAPH_OPTIMIZER@XGRAPHICS@@@VS_GRAPH_OPTIMIZER@XGRAPHICS@@U?$pair_less@V?$pair@HPAVRegister@VS_GRAPH_OPTIMIZER@XGRAPHICS@@@VS_GRAPH_OPTIMIZER@XGRAPHICS@@@23@@VS_GRAPH_OPTIMIZER@XGRAPHICS@@QAE@V?$pair@HPAVRegister@VS_GRAPH_OPTIMIZER@XGRAPHICS@@@23@PAV0123@@Z 0057fc52 f i xgraphicsd:instructiongraph.obj
 0005:0001470e       ??_Gnode@?$set@V?$pair@HPAVRegister@VS_GRAPH_OPTIMIZER@XGRAPHICS@@@VS_GRAPH_OPTIMIZER@XGRAPHICS@@U?$pair_less@V?$pair@HPAVRegister@VS_GRAPH_OPTIMIZER@XGRAPHICS@@@VS_GRAPH_OPTIMIZER@XGRAPHICS@@@23@@VS_GRAPH_OPTIMIZER@XGRAPHICS@@UAEPAXI@Z 0057fc8e f i xgraphicsd:instructiongraph.obj
 0005:0001470e       ??_Enode@?$set@V?$pair@HPAVRegister@VS_GRAPH_OPTIMIZER@XGRAPHICS@@@VS_GRAPH_OPTIMIZER@XGRAPHICS@@U?$pair_less@V?$pair@HPAVRegister@VS_GRAPH_OPTIMIZER@XGRAPHICS@@@VS_GRAPH_OPTIMIZER@XGRAPHICS@@@23@@VS_GRAPH_OPTIMIZER@XGRAPHICS@@UAEPAXI@Z 0057fc8e f i xgraphicsd:instructiongraph.obj
 0005:0001473b       ?depth_check@node@?$set@PAVGraphOptimizerObject@VS_GRAPH_OPTIMIZER@XGRAPHICS@@U?$less@PAVGraphOptimizerObject@VS_GRAPH_OPTIMIZER@XGRAPHICS@@@23@@VS_GRAPH_OPTIMIZER@XGRAPHICS@@QAEHXZ 0057fcbb f i xgraphicsd:instructiongraph.obj
 0005:00014781       ?depth_fix@node@?$set@PAVGraphOptimizerObject@VS_GRAPH_OPTIMIZER@XGRAPHICS@@U?$less@PAVGraphOptimizerObject@VS_GRAPH_OPTIMIZER@XGRAPHICS@@@23@@VS_GRAPH_OPTIMIZER@XGRAPHICS@@QAEXXZ 0057fd01 f i xgraphicsd:instructiongraph.obj
 0005:000147aa       ?depth_check@node@?$set@PAV?$collection@PAVRegister@VS_GRAPH_OPTIMIZER@XGRAPHICS@@@VS_GRAPH_OPTIMIZER@XGRAPHICS@@U?$less@PAV?$collection@PAVRegister@VS_GRAPH_OPTIMIZER@XGRAPHICS@@@VS_GRAPH_OPTIMIZER@XGRAPHICS@@@23@@VS_GRAPH_OPTIMIZER@XGRAPHICS@@QAEHXZ 0057fd2a f i xgraphicsd:instructiongraph.obj
 0005:000147f0       ?depth_fix@node@?$set@PAV?$collection@PAVRegister@VS_GRAPH_OPTIMIZER@XGRAPHICS@@@VS_GRAPH_OPTIMIZER@XGRAPHICS@@U?$less@PAV?$collection@PAVRegister@VS_GRAPH_OPTIMIZER@XGRAPHICS@@@VS_GRAPH_OPTIMIZER@XGRAPHICS@@@23@@VS_GRAPH_OPTIMIZER@XGRAPHICS@@QAEXXZ 0057fd70 f i xgraphicsd:instructiongraph.obj
 0005:00014819       ?depth_check@node@?$set@PAVReader@VS_GRAPH_OPTIMIZER@XGRAPHICS@@U?$less@PAVReader@VS_GRAPH_OPTIMIZER@XGRAPHICS@@@23@@VS_GRAPH_OPTIMIZER@XGRAPHICS@@QAEHXZ 0057fd99 f i xgraphicsd:instructiongraph.obj
 0005:0001485f       ?depth_fix@node@?$set@PAVReader@VS_GRAPH_OPTIMIZER@XGRAPHICS@@U?$less@PAVReader@VS_GRAPH_OPTIMIZER@XGRAPHICS@@@23@@VS_GRAPH_OPTIMIZER@XGRAPHICS@@QAEXXZ 0057fddf f i xgraphicsd:instructiongraph.obj
 0005:00014888       ?depth_check@node@?$set@PAV?$collection@PAVInstruction@VS_GRAPH_OPTIMIZER@XGRAPHICS@@@VS_GRAPH_OPTIMIZER@XGRAPHICS@@U?$less@PAV?$collection@PAVInstruction@VS_GRAPH_OPTIMIZER@XGRAPHICS@@@VS_GRAPH_OPTIMIZER@XGRAPHICS@@@23@@VS_GRAPH_OPTIMIZER@XGRAPHICS@@QAEHXZ 0057fe08 f i xgraphicsd:instructiongraph.obj
 0005:000148ce       ?depth_fix@node@?$set@PAV?$collection@PAVInstruction@VS_GRAPH_OPTIMIZER@XGRAPHICS@@@VS_GRAPH_OPTIMIZER@XGRAPHICS@@U?$less@PAV?$collection@PAVInstruction@VS_GRAPH_OPTIMIZER@XGRAPHICS@@@VS_GRAPH_OPTIMIZER@XGRAPHICS@@@23@@VS_GRAPH_OPTIMIZER@XGRAPHICS@@QAEXXZ 0057fe4e f i xgraphicsd:instructiongraph.obj
 0005:000148f7       ?depth_check@node@?$set@PAVInstruction@VS_GRAPH_OPTIMIZER@XGRAPHICS@@UInstructionLess@23@@VS_GRAPH_OPTIMIZER@XGRAPHICS@@QAEHXZ 0057fe77 f i xgraphicsd:instructiongraph.obj
 0005:0001493d       ?depth_fix@node@?$set@PAVInstruction@VS_GRAPH_OPTIMIZER@XGRAPHICS@@UInstructionLess@23@@VS_GRAPH_OPTIMIZER@XGRAPHICS@@QAEXXZ 0057febd f i xgraphicsd:instructiongraph.obj
 0005:00014966       ?depth_check@node@?$set@PAVRegister@VS_GRAPH_OPTIMIZER@XGRAPHICS@@U?$less@PAVRegister@VS_GRAPH_OPTIMIZER@XGRAPHICS@@@23@@VS_GRAPH_OPTIMIZER@XGRAPHICS@@QAEHXZ 0057fee6 f i xgraphicsd:instructiongraph.obj
 0005:000149ac       ?depth_fix@node@?$set@PAVRegister@VS_GRAPH_OPTIMIZER@XGRAPHICS@@U?$less@PAVRegister@VS_GRAPH_OPTIMIZER@XGRAPHICS@@@23@@VS_GRAPH_OPTIMIZER@XGRAPHICS@@QAEXXZ 0057ff2c f i xgraphicsd:instructiongraph.obj
 0005:000149d5       ?depth_check@node@?$set@V?$pair@HPAVRegister@VS_GRAPH_OPTIMIZER@XGRAPHICS@@@VS_GRAPH_OPTIMIZER@XGRAPHICS@@U?$pair_less@V?$pair@HPAVRegister@VS_GRAPH_OPTIMIZER@XGRAPHICS@@@VS_GRAPH_OPTIMIZER@XGRAPHICS@@@23@@VS_GRAPH_OPTIMIZER@XGRAPHICS@@QAEHXZ 0057ff55 f i xgraphicsd:instructiongraph.obj
 0005:00014a1b       ?depth_fix@node@?$set@V?$pair@HPAVRegister@VS_GRAPH_OPTIMIZER@XGRAPHICS@@@VS_GRAPH_OPTIMIZER@XGRAPHICS@@U?$pair_less@V?$pair@HPAVRegister@VS_GRAPH_OPTIMIZER@XGRAPHICS@@@VS_GRAPH_OPTIMIZER@XGRAPHICS@@@23@@VS_GRAPH_OPTIMIZER@XGRAPHICS@@QAEXXZ 0057ff9b f i xgraphicsd:instructiongraph.obj
 0005:00014a44       ?rotate_lesswise@node@?$set@PAVGraphOptimizerObject@VS_GRAPH_OPTIMIZER@XGRAPHICS@@U?$less@PAVGraphOptimizerObject@VS_GRAPH_OPTIMIZER@XGRAPHICS@@@23@@VS_GRAPH_OPTIMIZER@XGRAPHICS@@QAEXXZ 0057ffc4 f i xgraphicsd:instructiongraph.obj
 0005:00014aa1       ?rotate_morewise@node@?$set@PAVGraphOptimizerObject@VS_GRAPH_OPTIMIZER@XGRAPHICS@@U?$less@PAVGraphOptimizerObject@VS_GRAPH_OPTIMIZER@XGRAPHICS@@@23@@VS_GRAPH_OPTIMIZER@XGRAPHICS@@QAEXXZ 00580021 f i xgraphicsd:instructiongraph.obj
 0005:00014afe       ?rotate_lesswise@node@?$set@PAV?$collection@PAVRegister@VS_GRAPH_OPTIMIZER@XGRAPHICS@@@VS_GRAPH_OPTIMIZER@XGRAPHICS@@U?$less@PAV?$collection@PAVRegister@VS_GRAPH_OPTIMIZER@XGRAPHICS@@@VS_GRAPH_OPTIMIZER@XGRAPHICS@@@23@@VS_GRAPH_OPTIMIZER@XGRAPHICS@@QAEXXZ 0058007e f i xgraphicsd:instructiongraph.obj
 0005:00014b5b       ?rotate_morewise@node@?$set@PAV?$collection@PAVRegister@VS_GRAPH_OPTIMIZER@XGRAPHICS@@@VS_GRAPH_OPTIMIZER@XGRAPHICS@@U?$less@PAV?$collection@PAVRegister@VS_GRAPH_OPTIMIZER@XGRAPHICS@@@VS_GRAPH_OPTIMIZER@XGRAPHICS@@@23@@VS_GRAPH_OPTIMIZER@XGRAPHICS@@QAEXXZ 005800db f i xgraphicsd:instructiongraph.obj
 0005:00014bb8       ?rotate_lesswise@node@?$set@PAVReader@VS_GRAPH_OPTIMIZER@XGRAPHICS@@U?$less@PAVReader@VS_GRAPH_OPTIMIZER@XGRAPHICS@@@23@@VS_GRAPH_OPTIMIZER@XGRAPHICS@@QAEXXZ 00580138 f i xgraphicsd:instructiongraph.obj
 0005:00014c15       ?rotate_morewise@node@?$set@PAVReader@VS_GRAPH_OPTIMIZER@XGRAPHICS@@U?$less@PAVReader@VS_GRAPH_OPTIMIZER@XGRAPHICS@@@23@@VS_GRAPH_OPTIMIZER@XGRAPHICS@@QAEXXZ 00580195 f i xgraphicsd:instructiongraph.obj
 0005:00014c72       ?rotate_lesswise@node@?$set@PAV?$collection@PAVInstruction@VS_GRAPH_OPTIMIZER@XGRAPHICS@@@VS_GRAPH_OPTIMIZER@XGRAPHICS@@U?$less@PAV?$collection@PAVInstruction@VS_GRAPH_OPTIMIZER@XGRAPHICS@@@VS_GRAPH_OPTIMIZER@XGRAPHICS@@@23@@VS_GRAPH_OPTIMIZER@XGRAPHICS@@QAEXXZ 005801f2 f i xgraphicsd:instructiongraph.obj
 0005:00014ccf       ?rotate_morewise@node@?$set@PAV?$collection@PAVInstruction@VS_GRAPH_OPTIMIZER@XGRAPHICS@@@VS_GRAPH_OPTIMIZER@XGRAPHICS@@U?$less@PAV?$collection@PAVInstruction@VS_GRAPH_OPTIMIZER@XGRAPHICS@@@VS_GRAPH_OPTIMIZER@XGRAPHICS@@@23@@VS_GRAPH_OPTIMIZER@XGRAPHICS@@QAEXXZ 0058024f f i xgraphicsd:instructiongraph.obj
 0005:00014d2c       ?rotate_lesswise@node@?$set@PAVInstruction@VS_GRAPH_OPTIMIZER@XGRAPHICS@@UInstructionLess@23@@VS_GRAPH_OPTIMIZER@XGRAPHICS@@QAEXXZ 005802ac f i xgraphicsd:instructiongraph.obj
 0005:00014d89       ?rotate_morewise@node@?$set@PAVInstruction@VS_GRAPH_OPTIMIZER@XGRAPHICS@@UInstructionLess@23@@VS_GRAPH_OPTIMIZER@XGRAPHICS@@QAEXXZ 00580309 f i xgraphicsd:instructiongraph.obj
 0005:00014de6       ?rotate_lesswise@node@?$set@PAVRegister@VS_GRAPH_OPTIMIZER@XGRAPHICS@@U?$less@PAVRegister@VS_GRAPH_OPTIMIZER@XGRAPHICS@@@23@@VS_GRAPH_OPTIMIZER@XGRAPHICS@@QAEXXZ 00580366 f i xgraphicsd:instructiongraph.obj
 0005:00014e43       ?rotate_morewise@node@?$set@PAVRegister@VS_GRAPH_OPTIMIZER@XGRAPHICS@@U?$less@PAVRegister@VS_GRAPH_OPTIMIZER@XGRAPHICS@@@23@@VS_GRAPH_OPTIMIZER@XGRAPHICS@@QAEXXZ 005803c3 f i xgraphicsd:instructiongraph.obj
 0005:00014ea0       ?rotate_lesswise@node@?$set@V?$pair@HPAVRegister@VS_GRAPH_OPTIMIZER@XGRAPHICS@@@VS_GRAPH_OPTIMIZER@XGRAPHICS@@U?$pair_less@V?$pair@HPAVRegister@VS_GRAPH_OPTIMIZER@XGRAPHICS@@@VS_GRAPH_OPTIMIZER@XGRAPHICS@@@23@@VS_GRAPH_OPTIMIZER@XGRAPHICS@@QAEXXZ 00580420 f i xgraphicsd:instructiongraph.obj
 0005:00014efd       ?rotate_morewise@node@?$set@V?$pair@HPAVRegister@VS_GRAPH_OPTIMIZER@XGRAPHICS@@@VS_GRAPH_OPTIMIZER@XGRAPHICS@@U?$pair_less@V?$pair@HPAVRegister@VS_GRAPH_OPTIMIZER@XGRAPHICS@@@VS_GRAPH_OPTIMIZER@XGRAPHICS@@@23@@VS_GRAPH_OPTIMIZER@XGRAPHICS@@QAEXXZ 0058047d f i xgraphicsd:instructiongraph.obj
 0005:00014f5a       ?RemoveAllCollections@Register@VS_GRAPH_OPTIMIZER@XGRAPHICS@@SGXXZ 005804da f i xgraphicsd:instructiongraph.obj
 0005:00014f7a       ?ReadsRegComp@Reader@VS_GRAPH_OPTIMIZER@XGRAPHICS@@QBE_NW4CompIndex@23@@Z 005804fa f i xgraphicsd:instructiongraph.obj
 0005:00014fc1       ?RemoveAllCollections@Instruction@VS_GRAPH_OPTIMIZER@XGRAPHICS@@SGXXZ 00580541 f i xgraphicsd:instructiongraph.obj
 0005:00014fe1       ?SetOutResult@Instruction@VS_GRAPH_OPTIMIZER@XGRAPHICS@@QAEPAVRegister@23@PAV423@@Z 00580561 f i xgraphicsd:instructiongraph.obj
 0005:0001500c       ?SetMACResult@Instruction@VS_GRAPH_OPTIMIZER@XGRAPHICS@@QAEPAVRegister@23@PAV423@@Z 0058058c f i xgraphicsd:instructiongraph.obj
 0005:00015037       ?SetILUResult@Instruction@VS_GRAPH_OPTIMIZER@XGRAPHICS@@QAEPAVRegister@23@PAV423@@Z 005805b7 f i xgraphicsd:instructiongraph.obj
 0005:00015062       ?ReadyToRead@Register@VS_GRAPH_OPTIMIZER@XGRAPHICS@@QBE_NPBVInstructionGraph@23@VCompMask@23@PBV?$set@PAVInstruction@VS_GRAPH_OPTIMIZER@XGRAPHICS@@UInstructionLess@23@@23@@Z 005805e2 f   xgraphicsd:instructiongraph.obj
 0005:000150f6       ?ReadsAnyRegComp@Reader@VS_GRAPH_OPTIMIZER@XGRAPHICS@@QBE_NVCompMask@23@@Z 00580676 f   xgraphicsd:instructiongraph.obj
 0005:0001512f       ?ReadyToRead@Reader@VS_GRAPH_OPTIMIZER@XGRAPHICS@@QBE_NPBVInstructionGraph@23@VCompMask@23@PBV?$set@PAVInstruction@VS_GRAPH_OPTIMIZER@XGRAPHICS@@UInstructionLess@23@@23@@Z 005806af f   xgraphicsd:instructiongraph.obj
 0005:00015185       ?ReadsResultOf@Instruction@VS_GRAPH_OPTIMIZER@XGRAPHICS@@QBE_NPBV123@@Z 00580705 f   xgraphicsd:instructiongraph.obj
 0005:000151f1       ?StallsReading@Instruction@VS_GRAPH_OPTIMIZER@XGRAPHICS@@QBE_NPBV123@@Z 00580771 f   xgraphicsd:instructiongraph.obj
 0005:00015256       ?RemoveResultComp@Instruction@VS_GRAPH_OPTIMIZER@XGRAPHICS@@QAEXW4CompIndex@23@PAVRegister@23@@Z 005807d6 f   xgraphicsd:instructiongraph.obj
 0005:0001532a       ??1?$set@PAVGraphOptimizerObject@VS_GRAPH_OPTIMIZER@XGRAPHICS@@U?$less@PAVGraphOptimizerObject@VS_GRAPH_OPTIMIZER@XGRAPHICS@@@23@@VS_GRAPH_OPTIMIZER@XGRAPHICS@@UAE@XZ 005808aa f i xgraphicsd:instructiongraph.obj
 0005:00015337       ?begin@?$set@PAVGraphOptimizerObject@VS_GRAPH_OPTIMIZER@XGRAPHICS@@U?$less@PAVGraphOptimizerObject@VS_GRAPH_OPTIMIZER@XGRAPHICS@@@23@@VS_GRAPH_OPTIMIZER@XGRAPHICS@@QAE?AViterator@123@XZ 005808b7 f i xgraphicsd:instructiongraph.obj
 0005:0001535c       ??1?$set@PAV?$collection@PAVRegister@VS_GRAPH_OPTIMIZER@XGRAPHICS@@@VS_GRAPH_OPTIMIZER@XGRAPHICS@@U?$less@PAV?$collection@PAVRegister@VS_GRAPH_OPTIMIZER@XGRAPHICS@@@VS_GRAPH_OPTIMIZER@XGRAPHICS@@@23@@VS_GRAPH_OPTIMIZER@XGRAPHICS@@UAE@XZ 005808dc f i xgraphicsd:instructiongraph.obj
 0005:00015369       ?begin@?$set@PAV?$collection@PAVRegister@VS_GRAPH_OPTIMIZER@XGRAPHICS@@@VS_GRAPH_OPTIMIZER@XGRAPHICS@@U?$less@PAV?$collection@PAVRegister@VS_GRAPH_OPTIMIZER@XGRAPHICS@@@VS_GRAPH_OPTIMIZER@XGRAPHICS@@@23@@VS_GRAPH_OPTIMIZER@XGRAPHICS@@QAE?AViterator@123@XZ 005808e9 f i xgraphicsd:instructiongraph.obj
 0005:0001538e       ?end@?$set@PAV?$collection@PAVRegister@VS_GRAPH_OPTIMIZER@XGRAPHICS@@@VS_GRAPH_OPTIMIZER@XGRAPHICS@@U?$less@PAV?$collection@PAVRegister@VS_GRAPH_OPTIMIZER@XGRAPHICS@@@VS_GRAPH_OPTIMIZER@XGRAPHICS@@@23@@VS_GRAPH_OPTIMIZER@XGRAPHICS@@QAE?AViterator@123@XZ 0058090e f i xgraphicsd:instructiongraph.obj
 0005:0001539e       ??1?$set@PAVReader@VS_GRAPH_OPTIMIZER@XGRAPHICS@@U?$less@PAVReader@VS_GRAPH_OPTIMIZER@XGRAPHICS@@@23@@VS_GRAPH_OPTIMIZER@XGRAPHICS@@UAE@XZ 0058091e f i xgraphicsd:instructiongraph.obj
 0005:000153ab       ?begin@?$set@PAVReader@VS_GRAPH_OPTIMIZER@XGRAPHICS@@U?$less@PAVReader@VS_GRAPH_OPTIMIZER@XGRAPHICS@@@23@@VS_GRAPH_OPTIMIZER@XGRAPHICS@@QAE?AViterator@123@XZ 0058092b f i xgraphicsd:instructiongraph.obj
 0005:000153d0       ?end@?$set@PAVReader@VS_GRAPH_OPTIMIZER@XGRAPHICS@@U?$less@PAVReader@VS_GRAPH_OPTIMIZER@XGRAPHICS@@@23@@VS_GRAPH_OPTIMIZER@XGRAPHICS@@QAE?AViterator@123@XZ 00580950 f i xgraphicsd:instructiongraph.obj
 0005:000153e0       ?find@?$set@PAVReader@VS_GRAPH_OPTIMIZER@XGRAPHICS@@U?$less@PAVReader@VS_GRAPH_OPTIMIZER@XGRAPHICS@@@23@@VS_GRAPH_OPTIMIZER@XGRAPHICS@@QBE?AVconst_iterator@123@PAVReader@23@@Z 00580960 f i xgraphicsd:instructiongraph.obj
 0005:000153fb       ??Eiterator@?$set@PAV?$collection@PAVRegister@VS_GRAPH_OPTIMIZER@XGRAPHICS@@@VS_GRAPH_OPTIMIZER@XGRAPHICS@@U?$less@PAV?$collection@PAVRegister@VS_GRAPH_OPTIMIZER@XGRAPHICS@@@VS_GRAPH_OPTIMIZER@XGRAPHICS@@@23@@VS_GRAPH_OPTIMIZER@XGRAPHICS@@QAE?AV0123@H@Z 0058097b f i xgraphicsd:instructiongraph.obj
 0005:00015415       ??Econst_iterator@?$set@PAVReader@VS_GRAPH_OPTIMIZER@XGRAPHICS@@U?$less@PAVReader@VS_GRAPH_OPTIMIZER@XGRAPHICS@@@23@@VS_GRAPH_OPTIMIZER@XGRAPHICS@@QAE?AV0123@H@Z 00580995 f i xgraphicsd:instructiongraph.obj
 0005:0001542f       ??1?$set@PAV?$collection@PAVInstruction@VS_GRAPH_OPTIMIZER@XGRAPHICS@@@VS_GRAPH_OPTIMIZER@XGRAPHICS@@U?$less@PAV?$collection@PAVInstruction@VS_GRAPH_OPTIMIZER@XGRAPHICS@@@VS_GRAPH_OPTIMIZER@XGRAPHICS@@@23@@VS_GRAPH_OPTIMIZER@XGRAPHICS@@UAE@XZ 005809af f i xgraphicsd:instructiongraph.obj
 0005:0001543c       ?begin@?$set@PAV?$collection@PAVInstruction@VS_GRAPH_OPTIMIZER@XGRAPHICS@@@VS_GRAPH_OPTIMIZER@XGRAPHICS@@U?$less@PAV?$collection@PAVInstruction@VS_GRAPH_OPTIMIZER@XGRAPHICS@@@VS_GRAPH_OPTIMIZER@XGRAPHICS@@@23@@VS_GRAPH_OPTIMIZER@XGRAPHICS@@QAE?AViterator@123@XZ 005809bc f i xgraphicsd:instructiongraph.obj
 0005:00015461       ?end@?$set@PAV?$collection@PAVInstruction@VS_GRAPH_OPTIMIZER@XGRAPHICS@@@VS_GRAPH_OPTIMIZER@XGRAPHICS@@U?$less@PAV?$collection@PAVInstruction@VS_GRAPH_OPTIMIZER@XGRAPHICS@@@VS_GRAPH_OPTIMIZER@XGRAPHICS@@@23@@VS_GRAPH_OPTIMIZER@XGRAPHICS@@QAE?AViterator@123@XZ 005809e1 f i xgraphicsd:instructiongraph.obj
 0005:00015471       ??1?$list@PAVInstruction@VS_GRAPH_OPTIMIZER@XGRAPHICS@@@VS_GRAPH_OPTIMIZER@XGRAPHICS@@UAE@XZ 005809f1 f i xgraphicsd:instructiongraph.obj
 0005:00015495       ?begin@?$list@PAVInstruction@VS_GRAPH_OPTIMIZER@XGRAPHICS@@@VS_GRAPH_OPTIMIZER@XGRAPHICS@@QAE?AViterator@123@XZ 00580a15 f i xgraphicsd:instructiongraph.obj
 0005:000154a7       ?end@?$list@PAVInstruction@VS_GRAPH_OPTIMIZER@XGRAPHICS@@@VS_GRAPH_OPTIMIZER@XGRAPHICS@@QAE?AViterator@123@XZ 00580a27 f i xgraphicsd:instructiongraph.obj
 0005:000154b7       ??Eiterator@?$set@PAV?$collection@PAVInstruction@VS_GRAPH_OPTIMIZER@XGRAPHICS@@@VS_GRAPH_OPTIMIZER@XGRAPHICS@@U?$less@PAV?$collection@PAVInstruction@VS_GRAPH_OPTIMIZER@XGRAPHICS@@@VS_GRAPH_OPTIMIZER@XGRAPHICS@@@23@@VS_GRAPH_OPTIMIZER@XGRAPHICS@@QAE?AV0123@H@Z 00580a37 f i xgraphicsd:instructiongraph.obj
 0005:000154d1       ??1?$set@PAVInstruction@VS_GRAPH_OPTIMIZER@XGRAPHICS@@UInstructionLess@23@@VS_GRAPH_OPTIMIZER@XGRAPHICS@@UAE@XZ 00580a51 f i xgraphicsd:instructiongraph.obj
 0005:000154de       ?begin@?$set@PAVInstruction@VS_GRAPH_OPTIMIZER@XGRAPHICS@@UInstructionLess@23@@VS_GRAPH_OPTIMIZER@XGRAPHICS@@QAE?AViterator@123@XZ 00580a5e f i xgraphicsd:instructiongraph.obj
 0005:00015503       ?end@?$set@PAVInstruction@VS_GRAPH_OPTIMIZER@XGRAPHICS@@UInstructionLess@23@@VS_GRAPH_OPTIMIZER@XGRAPHICS@@QAE?AViterator@123@XZ 00580a83 f i xgraphicsd:instructiongraph.obj
 0005:00015513       ?find@?$set@PAVInstruction@VS_GRAPH_OPTIMIZER@XGRAPHICS@@UInstructionLess@23@@VS_GRAPH_OPTIMIZER@XGRAPHICS@@QAE?AViterator@123@PAVInstruction@23@@Z 00580a93 f i xgraphicsd:instructiongraph.obj
 0005:0001552e       ??Eiterator@?$set@PAVInstruction@VS_GRAPH_OPTIMIZER@XGRAPHICS@@UInstructionLess@23@@VS_GRAPH_OPTIMIZER@XGRAPHICS@@QAE?AV0123@H@Z 00580aae f i xgraphicsd:instructiongraph.obj
 0005:00015548       ??Fiterator@?$set@PAVInstruction@VS_GRAPH_OPTIMIZER@XGRAPHICS@@UInstructionLess@23@@VS_GRAPH_OPTIMIZER@XGRAPHICS@@QAE?AV0123@H@Z 00580ac8 f i xgraphicsd:instructiongraph.obj
 0005:00015562       ??Econst_iterator@?$set@PAVInstruction@VS_GRAPH_OPTIMIZER@XGRAPHICS@@UInstructionLess@23@@VS_GRAPH_OPTIMIZER@XGRAPHICS@@QAE?AV0123@H@Z 00580ae2 f i xgraphicsd:instructiongraph.obj
 0005:0001557c       ??1?$set@V?$pair@HPAVRegister@VS_GRAPH_OPTIMIZER@XGRAPHICS@@@VS_GRAPH_OPTIMIZER@XGRAPHICS@@U?$pair_less@V?$pair@HPAVRegister@VS_GRAPH_OPTIMIZER@XGRAPHICS@@@VS_GRAPH_OPTIMIZER@XGRAPHICS@@@23@@VS_GRAPH_OPTIMIZER@XGRAPHICS@@UAE@XZ 00580afc f i xgraphicsd:instructiongraph.obj
 0005:00015589       ??Econst_iterator@?$set@V?$pair@HPAVRegister@VS_GRAPH_OPTIMIZER@XGRAPHICS@@@VS_GRAPH_OPTIMIZER@XGRAPHICS@@U?$pair_less@V?$pair@HPAVRegister@VS_GRAPH_OPTIMIZER@XGRAPHICS@@@VS_GRAPH_OPTIMIZER@XGRAPHICS@@@23@@VS_GRAPH_OPTIMIZER@XGRAPHICS@@QAE?AV0123@H@Z 00580b09 f i xgraphicsd:instructiongraph.obj
 0005:000155a3       ??1?$set@PAVRegister@VS_GRAPH_OPTIMIZER@XGRAPHICS@@U?$less@PAVRegister@VS_GRAPH_OPTIMIZER@XGRAPHICS@@@23@@VS_GRAPH_OPTIMIZER@XGRAPHICS@@UAE@XZ 00580b23 f i xgraphicsd:instructiongraph.obj
 0005:000155b0       ?begin@?$set@PAVRegister@VS_GRAPH_OPTIMIZER@XGRAPHICS@@U?$less@PAVRegister@VS_GRAPH_OPTIMIZER@XGRAPHICS@@@23@@VS_GRAPH_OPTIMIZER@XGRAPHICS@@QAE?AViterator@123@XZ 00580b30 f i xgraphicsd:instructiongraph.obj
 0005:000155d5       ??_G?$set@PAVGraphOptimizerObject@VS_GRAPH_OPTIMIZER@XGRAPHICS@@U?$less@PAVGraphOptimizerObject@VS_GRAPH_OPTIMIZER@XGRAPHICS@@@23@@VS_GRAPH_OPTIMIZER@XGRAPHICS@@UAEPAXI@Z 00580b55 f i xgraphicsd:instructiongraph.obj
 0005:000155d5       ??_E?$set@PAVGraphOptimizerObject@VS_GRAPH_OPTIMIZER@XGRAPHICS@@U?$less@PAVGraphOptimizerObject@VS_GRAPH_OPTIMIZER@XGRAPHICS@@@23@@VS_GRAPH_OPTIMIZER@XGRAPHICS@@UAEPAXI@Z 00580b55 f i xgraphicsd:instructiongraph.obj
 0005:00015608       ??_E?$set@PAV?$collection@PAVRegister@VS_GRAPH_OPTIMIZER@XGRAPHICS@@@VS_GRAPH_OPTIMIZER@XGRAPHICS@@U?$less@PAV?$collection@PAVRegister@VS_GRAPH_OPTIMIZER@XGRAPHICS@@@VS_GRAPH_OPTIMIZER@XGRAPHICS@@@23@@VS_GRAPH_OPTIMIZER@XGRAPHICS@@UAEPAXI@Z 00580b88 f i xgraphicsd:instructiongraph.obj
 0005:00015608       ??_G?$set@PAV?$collection@PAVRegister@VS_GRAPH_OPTIMIZER@XGRAPHICS@@@VS_GRAPH_OPTIMIZER@XGRAPHICS@@U?$less@PAV?$collection@PAVRegister@VS_GRAPH_OPTIMIZER@XGRAPHICS@@@VS_GRAPH_OPTIMIZER@XGRAPHICS@@@23@@VS_GRAPH_OPTIMIZER@XGRAPHICS@@UAEPAXI@Z 00580b88 f i xgraphicsd:instructiongraph.obj
 0005:0001563b       ??_E?$set@PAVReader@VS_GRAPH_OPTIMIZER@XGRAPHICS@@U?$less@PAVReader@VS_GRAPH_OPTIMIZER@XGRAPHICS@@@23@@VS_GRAPH_OPTIMIZER@XGRAPHICS@@UAEPAXI@Z 00580bbb f i xgraphicsd:instructiongraph.obj
 0005:0001563b       ??_G?$set@PAVReader@VS_GRAPH_OPTIMIZER@XGRAPHICS@@U?$less@PAVReader@VS_GRAPH_OPTIMIZER@XGRAPHICS@@@23@@VS_GRAPH_OPTIMIZER@XGRAPHICS@@UAEPAXI@Z 00580bbb f i xgraphicsd:instructiongraph.obj
 0005:0001566e       ??_G?$set@PAV?$collection@PAVInstruction@VS_GRAPH_OPTIMIZER@XGRAPHICS@@@VS_GRAPH_OPTIMIZER@XGRAPHICS@@U?$less@PAV?$collection@PAVInstruction@VS_GRAPH_OPTIMIZER@XGRAPHICS@@@VS_GRAPH_OPTIMIZER@XGRAPHICS@@@23@@VS_GRAPH_OPTIMIZER@XGRAPHICS@@UAEPAXI@Z 00580bee f i xgraphicsd:instructiongraph.obj
 0005:0001566e       ??_E?$set@PAV?$collection@PAVInstruction@VS_GRAPH_OPTIMIZER@XGRAPHICS@@@VS_GRAPH_OPTIMIZER@XGRAPHICS@@U?$less@PAV?$collection@PAVInstruction@VS_GRAPH_OPTIMIZER@XGRAPHICS@@@VS_GRAPH_OPTIMIZER@XGRAPHICS@@@23@@VS_GRAPH_OPTIMIZER@XGRAPHICS@@UAEPAXI@Z 00580bee f i xgraphicsd:instructiongraph.obj
 0005:000156a1       ??_E?$list@PAVInstruction@VS_GRAPH_OPTIMIZER@XGRAPHICS@@@VS_GRAPH_OPTIMIZER@XGRAPHICS@@UAEPAXI@Z 00580c21 f i xgraphicsd:instructiongraph.obj
 0005:000156a1       ??_G?$list@PAVInstruction@VS_GRAPH_OPTIMIZER@XGRAPHICS@@@VS_GRAPH_OPTIMIZER@XGRAPHICS@@UAEPAXI@Z 00580c21 f i xgraphicsd:instructiongraph.obj
 0005:000156d1       ??_G?$set@PAVInstruction@VS_GRAPH_OPTIMIZER@XGRAPHICS@@UInstructionLess@23@@VS_GRAPH_OPTIMIZER@XGRAPHICS@@UAEPAXI@Z 00580c51 f i xgraphicsd:instructiongraph.obj
 0005:000156d1       ??_E?$set@PAVInstruction@VS_GRAPH_OPTIMIZER@XGRAPHICS@@UInstructionLess@23@@VS_GRAPH_OPTIMIZER@XGRAPHICS@@UAEPAXI@Z 00580c51 f i xgraphicsd:instructiongraph.obj
 0005:00015704       ??_G?$set@V?$pair@HPAVRegister@VS_GRAPH_OPTIMIZER@XGRAPHICS@@@VS_GRAPH_OPTIMIZER@XGRAPHICS@@U?$pair_less@V?$pair@HPAVRegister@VS_GRAPH_OPTIMIZER@XGRAPHICS@@@VS_GRAPH_OPTIMIZER@XGRAPHICS@@@23@@VS_GRAPH_OPTIMIZER@XGRAPHICS@@UAEPAXI@Z 00580c84 f i xgraphicsd:instructiongraph.obj
 0005:00015704       ??_E?$set@V?$pair@HPAVRegister@VS_GRAPH_OPTIMIZER@XGRAPHICS@@@VS_GRAPH_OPTIMIZER@XGRAPHICS@@U?$pair_less@V?$pair@HPAVRegister@VS_GRAPH_OPTIMIZER@XGRAPHICS@@@VS_GRAPH_OPTIMIZER@XGRAPHICS@@@23@@VS_GRAPH_OPTIMIZER@XGRAPHICS@@UAEPAXI@Z 00580c84 f i xgraphicsd:instructiongraph.obj
 0005:00015737       ??_E?$set@PAVRegister@VS_GRAPH_OPTIMIZER@XGRAPHICS@@U?$less@PAVRegister@VS_GRAPH_OPTIMIZER@XGRAPHICS@@@23@@VS_GRAPH_OPTIMIZER@XGRAPHICS@@UAEPAXI@Z 00580cb7 f i xgraphicsd:instructiongraph.obj
 0005:00015737       ??_G?$set@PAVRegister@VS_GRAPH_OPTIMIZER@XGRAPHICS@@U?$less@PAVRegister@VS_GRAPH_OPTIMIZER@XGRAPHICS@@@23@@VS_GRAPH_OPTIMIZER@XGRAPHICS@@UAEPAXI@Z 00580cb7 f i xgraphicsd:instructiongraph.obj
 0005:0001576a       ?find_node@?$map@HPAVRegister@VS_GRAPH_OPTIMIZER@XGRAPHICS@@@VS_GRAPH_OPTIMIZER@XGRAPHICS@@ABEPAVnode@?$set@V?$pair@HPAVRegister@VS_GRAPH_OPTIMIZER@XGRAPHICS@@@VS_GRAPH_OPTIMIZER@XGRAPHICS@@U?$pair_less@V?$pair@HPAVRegister@VS_GRAPH_OPTIMIZER@XGRAPHICS@@@VS_GRAPH_OPTIMIZER@XGRAPHICS@@@23@@23@H@Z 00580cea f i xgraphicsd:instructiongraph.obj
 0005:00015784       ?balance@node@?$set@PAVGraphOptimizerObject@VS_GRAPH_OPTIMIZER@XGRAPHICS@@U?$less@PAVGraphOptimizerObject@VS_GRAPH_OPTIMIZER@XGRAPHICS@@@23@@VS_GRAPH_OPTIMIZER@XGRAPHICS@@QAEXXZ 00580d04 f i xgraphicsd:instructiongraph.obj
 0005:00015867       ?balance@node@?$set@PAV?$collection@PAVRegister@VS_GRAPH_OPTIMIZER@XGRAPHICS@@@VS_GRAPH_OPTIMIZER@XGRAPHICS@@U?$less@PAV?$collection@PAVRegister@VS_GRAPH_OPTIMIZER@XGRAPHICS@@@VS_GRAPH_OPTIMIZER@XGRAPHICS@@@23@@VS_GRAPH_OPTIMIZER@XGRAPHICS@@QAEXXZ 00580de7 f i xgraphicsd:instructiongraph.obj
 0005:0001594a       ?balance@node@?$set@PAVReader@VS_GRAPH_OPTIMIZER@XGRAPHICS@@U?$less@PAVReader@VS_GRAPH_OPTIMIZER@XGRAPHICS@@@23@@VS_GRAPH_OPTIMIZER@XGRAPHICS@@QAEXXZ 00580eca f i xgraphicsd:instructiongraph.obj
 0005:00015a2d       ?balance@node@?$set@PAV?$collection@PAVInstruction@VS_GRAPH_OPTIMIZER@XGRAPHICS@@@VS_GRAPH_OPTIMIZER@XGRAPHICS@@U?$less@PAV?$collection@PAVInstruction@VS_GRAPH_OPTIMIZER@XGRAPHICS@@@VS_GRAPH_OPTIMIZER@XGRAPHICS@@@23@@VS_GRAPH_OPTIMIZER@XGRAPHICS@@QAEXXZ 00580fad f i xgraphicsd:instructiongraph.obj
 0005:00015b10       ?balance@node@?$set@PAVInstruction@VS_GRAPH_OPTIMIZER@XGRAPHICS@@UInstructionLess@23@@VS_GRAPH_OPTIMIZER@XGRAPHICS@@QAEXXZ 00581090 f i xgraphicsd:instructiongraph.obj
 0005:00015bf3       ?balance@node@?$set@PAVRegister@VS_GRAPH_OPTIMIZER@XGRAPHICS@@U?$less@PAVRegister@VS_GRAPH_OPTIMIZER@XGRAPHICS@@@23@@VS_GRAPH_OPTIMIZER@XGRAPHICS@@QAEXXZ 00581173 f i xgraphicsd:instructiongraph.obj
 0005:00015cd6       ?balance@node@?$set@V?$pair@HPAVRegister@VS_GRAPH_OPTIMIZER@XGRAPHICS@@@VS_GRAPH_OPTIMIZER@XGRAPHICS@@U?$pair_less@V?$pair@HPAVRegister@VS_GRAPH_OPTIMIZER@XGRAPHICS@@@VS_GRAPH_OPTIMIZER@XGRAPHICS@@@23@@VS_GRAPH_OPTIMIZER@XGRAPHICS@@QAEXXZ 00581256 f i xgraphicsd:instructiongraph.obj
 0005:00015db9       ?Init@GraphOptimizerObject@VS_GRAPH_OPTIMIZER@XGRAPHICS@@SGXXZ 00581339 f i xgraphicsd:instructiongraph.obj
 0005:00015dd0       ?AReader@Register@VS_GRAPH_OPTIMIZER@XGRAPHICS@@QAEPAVReader@23@XZ 00581350 f i xgraphicsd:instructiongraph.obj
 0005:00015df5       ?CleanUp@GraphOptimizerObject@VS_GRAPH_OPTIMIZER@XGRAPHICS@@SGXXZ 00581375 f   xgraphicsd:instructiongraph.obj
 0005:00015e5c       ?CompIsRead@Register@VS_GRAPH_OPTIMIZER@XGRAPHICS@@QBE_NW4CompIndex@23@@Z 005813dc f i xgraphicsd:instructiongraph.obj
 0005:00015ea7       ?SetSource@Register@VS_GRAPH_OPTIMIZER@XGRAPHICS@@QAEPAVInstruction@23@W4CompIndex@23@PAV423@@Z 00581427 f i xgraphicsd:instructiongraph.obj
 0005:00015eda       ?RemoveRedundantComps@Register@VS_GRAPH_OPTIMIZER@XGRAPHICS@@QAE_NW4CompIndex@23@0@Z 0058145a f   xgraphicsd:instructiongraph.obj
 0005:00015fb6       ?DoneReading@Register@VS_GRAPH_OPTIMIZER@XGRAPHICS@@QBE_NPBV?$set@PAVReader@VS_GRAPH_OPTIMIZER@XGRAPHICS@@U?$less@PAVReader@VS_GRAPH_OPTIMIZER@XGRAPHICS@@@23@@23@VCompMask@23@PBVInstruction@23@_N3@Z 00581536 f   xgraphicsd:instructiongraph.obj
 0005:0001616e       ?NotDoneReading@Register@VS_GRAPH_OPTIMIZER@XGRAPHICS@@QBE?AVCompMask@23@PBV?$set@PAVReader@VS_GRAPH_OPTIMIZER@XGRAPHICS@@U?$less@PAVReader@VS_GRAPH_OPTIMIZER@XGRAPHICS@@@23@@23@PBVInstruction@23@@Z 005816ee f   xgraphicsd:instructiongraph.obj
 0005:000161fb       ?SwapComps@Register@VS_GRAPH_OPTIMIZER@XGRAPHICS@@QAE_NW4CompIndex@23@0_N1@Z 0058177b f   xgraphicsd:instructiongraph.obj
 0005:0001640f       ?SwizzleComps@Register@VS_GRAPH_OPTIMIZER@XGRAPHICS@@QAE_NVSwizzle@23@@Z 0058198f f   xgraphicsd:instructiongraph.obj
 0005:00016719       ?DontWriteHere@Register@VS_GRAPH_OPTIMIZER@XGRAPHICS@@QAE_NVCompMask@23@_N1@Z 00581c99 f   xgraphicsd:instructiongraph.obj
 0005:000167bc       ??0?$map@HPAVRegister@VS_GRAPH_OPTIMIZER@XGRAPHICS@@@VS_GRAPH_OPTIMIZER@XGRAPHICS@@QAE@XZ 00581d3c f i xgraphicsd:instructiongraph.obj
 0005:000167e2       ??1?$map@HPAVRegister@VS_GRAPH_OPTIMIZER@XGRAPHICS@@@VS_GRAPH_OPTIMIZER@XGRAPHICS@@UAE@XZ 00581d62 f i xgraphicsd:instructiongraph.obj
 0005:000167ef       ??_E?$map@HPAVRegister@VS_GRAPH_OPTIMIZER@XGRAPHICS@@@VS_GRAPH_OPTIMIZER@XGRAPHICS@@UAEPAXI@Z 00581d6f f i xgraphicsd:instructiongraph.obj
 0005:000167ef       ??_G?$map@HPAVRegister@VS_GRAPH_OPTIMIZER@XGRAPHICS@@@VS_GRAPH_OPTIMIZER@XGRAPHICS@@UAEPAXI@Z 00581d6f f i xgraphicsd:instructiongraph.obj
 0005:0001681f       ?ToUCode@InstructionSequence@VS_GRAPH_OPTIMIZER@XGRAPHICS@@UAE_NPAU_D3DVertexShaderProgram@@@Z 00581d9f f   xgraphicsd:instructiongraph.obj
 0005:00016892       ?RegWritten@InstructionGraph@VS_GRAPH_OPTIMIZER@XGRAPHICS@@QBE_NPBVRegister@23@@Z 00581e12 f   xgraphicsd:instructiongraph.obj
 0005:00016916       ?erase@?$list@PAVInstruction@VS_GRAPH_OPTIMIZER@XGRAPHICS@@@VS_GRAPH_OPTIMIZER@XGRAPHICS@@UAEXPAVInstruction@23@@Z 00581e96 f i xgraphicsd:instructiongraph.obj
 0005:00016940       ?find@?$list@PAVInstruction@VS_GRAPH_OPTIMIZER@XGRAPHICS@@@VS_GRAPH_OPTIMIZER@XGRAPHICS@@QAE?AViterator@123@PAVInstruction@23@@Z 00581ec0 f i xgraphicsd:instructiongraph.obj
 0005:00016968       ?find@?$map@HPAVRegister@VS_GRAPH_OPTIMIZER@XGRAPHICS@@@VS_GRAPH_OPTIMIZER@XGRAPHICS@@QAE?AViterator@?$set@V?$pair@HPAVRegister@VS_GRAPH_OPTIMIZER@XGRAPHICS@@@VS_GRAPH_OPTIMIZER@XGRAPHICS@@U?$pair_less@V?$pair@HPAVRegister@VS_GRAPH_OPTIMIZER@XGRAPHICS@@@VS_GRAPH_OPTIMIZER@XGRAPHICS@@@23@@23@H@Z 00581ee8 f i xgraphicsd:instructiongraph.obj
 0005:00016983       ?find@?$map@HPAVRegister@VS_GRAPH_OPTIMIZER@XGRAPHICS@@@VS_GRAPH_OPTIMIZER@XGRAPHICS@@QBE?AVconst_iterator@?$set@V?$pair@HPAVRegister@VS_GRAPH_OPTIMIZER@XGRAPHICS@@@VS_GRAPH_OPTIMIZER@XGRAPHICS@@U?$pair_less@V?$pair@HPAVRegister@VS_GRAPH_OPTIMIZER@XGRAPHICS@@@VS_GRAPH_OPTIMIZER@XGRAPHICS@@@23@@23@H@Z 00581f03 f i xgraphicsd:instructiongraph.obj
 0005:0001699e       ?balance@?$set@PAVGraphOptimizerObject@VS_GRAPH_OPTIMIZER@XGRAPHICS@@U?$less@PAVGraphOptimizerObject@VS_GRAPH_OPTIMIZER@XGRAPHICS@@@23@@VS_GRAPH_OPTIMIZER@XGRAPHICS@@IAEXPAVnode@123@@Z 00581f1e f i xgraphicsd:instructiongraph.obj
 0005:000169d8       ?fill_hole@?$set@PAVGraphOptimizerObject@VS_GRAPH_OPTIMIZER@XGRAPHICS@@U?$less@PAVGraphOptimizerObject@VS_GRAPH_OPTIMIZER@XGRAPHICS@@@23@@VS_GRAPH_OPTIMIZER@XGRAPHICS@@IAEPAVnode@123@PAV4123@00@Z 00581f58 f i xgraphicsd:instructiongraph.obj
 0005:00016ad0       ?balance@?$set@PAV?$collection@PAVRegister@VS_GRAPH_OPTIMIZER@XGRAPHICS@@@VS_GRAPH_OPTIMIZER@XGRAPHICS@@U?$less@PAV?$collection@PAVRegister@VS_GRAPH_OPTIMIZER@XGRAPHICS@@@VS_GRAPH_OPTIMIZER@XGRAPHICS@@@23@@VS_GRAPH_OPTIMIZER@XGRAPHICS@@IAEXPAVnode@123@@Z 00582050 f i xgraphicsd:instructiongraph.obj
 0005:00016b0a       ?fill_hole@?$set@PAV?$collection@PAVRegister@VS_GRAPH_OPTIMIZER@XGRAPHICS@@@VS_GRAPH_OPTIMIZER@XGRAPHICS@@U?$less@PAV?$collection@PAVRegister@VS_GRAPH_OPTIMIZER@XGRAPHICS@@@VS_GRAPH_OPTIMIZER@XGRAPHICS@@@23@@VS_GRAPH_OPTIMIZER@XGRAPHICS@@IAEPAVnode@123@PAV4123@00@Z 0058208a f i xgraphicsd:instructiongraph.obj
 0005:00016c02       ?balance@?$set@PAVReader@VS_GRAPH_OPTIMIZER@XGRAPHICS@@U?$less@PAVReader@VS_GRAPH_OPTIMIZER@XGRAPHICS@@@23@@VS_GRAPH_OPTIMIZER@XGRAPHICS@@IAEXPAVnode@123@@Z 00582182 f i xgraphicsd:instructiongraph.obj
 0005:00016c3c       ?fill_hole@?$set@PAVReader@VS_GRAPH_OPTIMIZER@XGRAPHICS@@U?$less@PAVReader@VS_GRAPH_OPTIMIZER@XGRAPHICS@@@23@@VS_GRAPH_OPTIMIZER@XGRAPHICS@@IAEPAVnode@123@PAV4123@00@Z 005821bc f i xgraphicsd:instructiongraph.obj
 0005:00016d34       ?balance@?$set@PAV?$collection@PAVInstruction@VS_GRAPH_OPTIMIZER@XGRAPHICS@@@VS_GRAPH_OPTIMIZER@XGRAPHICS@@U?$less@PAV?$collection@PAVInstruction@VS_GRAPH_OPTIMIZER@XGRAPHICS@@@VS_GRAPH_OPTIMIZER@XGRAPHICS@@@23@@VS_GRAPH_OPTIMIZER@XGRAPHICS@@IAEXPAVnode@123@@Z 005822b4 f i xgraphicsd:instructiongraph.obj
 0005:00016d6e       ?fill_hole@?$set@PAV?$collection@PAVInstruction@VS_GRAPH_OPTIMIZER@XGRAPHICS@@@VS_GRAPH_OPTIMIZER@XGRAPHICS@@U?$less@PAV?$collection@PAVInstruction@VS_GRAPH_OPTIMIZER@XGRAPHICS@@@VS_GRAPH_OPTIMIZER@XGRAPHICS@@@23@@VS_GRAPH_OPTIMIZER@XGRAPHICS@@IAEPAVnode@123@PAV4123@00@Z 005822ee f i xgraphicsd:instructiongraph.obj
 0005:00016e66       ?balance@?$set@PAVInstruction@VS_GRAPH_OPTIMIZER@XGRAPHICS@@UInstructionLess@23@@VS_GRAPH_OPTIMIZER@XGRAPHICS@@IAEXPAVnode@123@@Z 005823e6 f i xgraphicsd:instructiongraph.obj
 0005:00016ea0       ?fill_hole@?$set@PAVInstruction@VS_GRAPH_OPTIMIZER@XGRAPHICS@@UInstructionLess@23@@VS_GRAPH_OPTIMIZER@XGRAPHICS@@IAEPAVnode@123@PAV4123@00@Z 00582420 f i xgraphicsd:instructiongraph.obj
 0005:00016f98       ?balance@?$set@V?$pair@HPAVRegister@VS_GRAPH_OPTIMIZER@XGRAPHICS@@@VS_GRAPH_OPTIMIZER@XGRAPHICS@@U?$pair_less@V?$pair@HPAVRegister@VS_GRAPH_OPTIMIZER@XGRAPHICS@@@VS_GRAPH_OPTIMIZER@XGRAPHICS@@@23@@VS_GRAPH_OPTIMIZER@XGRAPHICS@@IAEXPAVnode@123@@Z 00582518 f i xgraphicsd:instructiongraph.obj
 0005:00016fd2       ?fill_hole@?$set@V?$pair@HPAVRegister@VS_GRAPH_OPTIMIZER@XGRAPHICS@@@VS_GRAPH_OPTIMIZER@XGRAPHICS@@U?$pair_less@V?$pair@HPAVRegister@VS_GRAPH_OPTIMIZER@XGRAPHICS@@@VS_GRAPH_OPTIMIZER@XGRAPHICS@@@23@@VS_GRAPH_OPTIMIZER@XGRAPHICS@@IAEPAVnode@123@PAV4123@00@Z 00582552 f i xgraphicsd:instructiongraph.obj
 0005:000170ca       ?insert@?$set@V?$pair@HPAVRegister@VS_GRAPH_OPTIMIZER@XGRAPHICS@@@VS_GRAPH_OPTIMIZER@XGRAPHICS@@U?$pair_less@V?$pair@HPAVRegister@VS_GRAPH_OPTIMIZER@XGRAPHICS@@@VS_GRAPH_OPTIMIZER@XGRAPHICS@@@23@@VS_GRAPH_OPTIMIZER@XGRAPHICS@@QAEPAVnode@123@V?$pair@HPAVRegister@VS_GRAPH_OPTIMIZER@XGRAPHICS@@@23@PAV4123@@Z 0058264a f i xgraphicsd:instructiongraph.obj
 0005:0001718a       ?balance@?$set@PAVRegister@VS_GRAPH_OPTIMIZER@XGRAPHICS@@U?$less@PAVRegister@VS_GRAPH_OPTIMIZER@XGRAPHICS@@@23@@VS_GRAPH_OPTIMIZER@XGRAPHICS@@IAEXPAVnode@123@@Z 0058270a f i xgraphicsd:instructiongraph.obj
 0005:000171c4       ?fill_hole@?$set@PAVRegister@VS_GRAPH_OPTIMIZER@XGRAPHICS@@U?$less@PAVRegister@VS_GRAPH_OPTIMIZER@XGRAPHICS@@@23@@VS_GRAPH_OPTIMIZER@XGRAPHICS@@IAEPAVnode@123@PAV4123@00@Z 00582744 f i xgraphicsd:instructiongraph.obj
 0005:000172bc       ?CompIsReadNext@Register@VS_GRAPH_OPTIMIZER@XGRAPHICS@@QBE_NW4CompIndex@23@@Z 0058283c f i xgraphicsd:instructiongraph.obj
 0005:000172f3       ?SetSource@Register@VS_GRAPH_OPTIMIZER@XGRAPHICS@@QAEXVCompMask@23@PAVInstruction@23@@Z 00582873 f i xgraphicsd:instructiongraph.obj
 0005:0001733e       ?RemoveRedundantComps@Register@VS_GRAPH_OPTIMIZER@XGRAPHICS@@QAEXXZ 005828be f i xgraphicsd:instructiongraph.obj
 0005:0001737c       ?Unused@Instruction@VS_GRAPH_OPTIMIZER@XGRAPHICS@@QBE_NXZ 005828fc f i xgraphicsd:instructiongraph.obj
 0005:000173db       ?PrevUsed@Register@VS_GRAPH_OPTIMIZER@XGRAPHICS@@QBE_NXZ 0058295b f i xgraphicsd:instructiongraph.obj
 0005:00017463       ?ReadyToWrite@Register@VS_GRAPH_OPTIMIZER@XGRAPHICS@@QBE_NPBVInstructionGraph@23@PBV?$set@PAVInstruction@VS_GRAPH_OPTIMIZER@XGRAPHICS@@UInstructionLess@23@@23@PBV?$set@PAVReader@VS_GRAPH_OPTIMIZER@XGRAPHICS@@U?$less@PAVReader@VS_GRAPH_OPTIMIZER@XGRAPHICS@@@23@@23@PBVInstruction@23@VCompMask@23@@Z 005829e3 f   xgraphicsd:instructiongraph.obj
 0005:0001755a       ?AppendTo@Register@VS_GRAPH_OPTIMIZER@XGRAPHICS@@QAE_NPAV123@_NVCompMask@23@2@Z 00582ada f   xgraphicsd:instructiongraph.obj
 0005:0001761d       ?ReadRReg@InstructionSequence@VS_GRAPH_OPTIMIZER@XGRAPHICS@@QAEPAVRegister@23@HVCompMask@23@@Z 00582b9d f   xgraphicsd:instructiongraph.obj
 0005:0001765e       ?WriteA0x@InstructionSequence@VS_GRAPH_OPTIMIZER@XGRAPHICS@@QAEPAVRegister@23@PAV423@@Z 00582bde f   xgraphicsd:instructiongraph.obj
 0005:000176aa       ?TempIndexForVirtualReg@InstructionGraph@VS_GRAPH_OPTIMIZER@XGRAPHICS@@QBEHPBVRegister@23@@Z 00582c2a f   xgraphicsd:instructiongraph.obj
 0005:00017709       ?GetFreeTempIndex@InstructionGraph@VS_GRAPH_OPTIMIZER@XGRAPHICS@@QBEHH@Z 00582c89 f   xgraphicsd:instructiongraph.obj
 0005:00017792       ?erase@?$set@PAVGraphOptimizerObject@VS_GRAPH_OPTIMIZER@XGRAPHICS@@U?$less@PAVGraphOptimizerObject@VS_GRAPH_OPTIMIZER@XGRAPHICS@@@23@@VS_GRAPH_OPTIMIZER@XGRAPHICS@@QAEPAVnode@123@PAV4123@@Z 00582d12 f i xgraphicsd:instructiongraph.obj
 0005:0001781f       ?insert@?$set@PAVGraphOptimizerObject@VS_GRAPH_OPTIMIZER@XGRAPHICS@@U?$less@PAVGraphOptimizerObject@VS_GRAPH_OPTIMIZER@XGRAPHICS@@@23@@VS_GRAPH_OPTIMIZER@XGRAPHICS@@QAEPAVnode@123@PAVGraphOptimizerObject@23@PAV4123@@Z 00582d9f f i xgraphicsd:instructiongraph.obj
 0005:000178d4       ?erase@?$set@PAV?$collection@PAVRegister@VS_GRAPH_OPTIMIZER@XGRAPHICS@@@VS_GRAPH_OPTIMIZER@XGRAPHICS@@U?$less@PAV?$collection@PAVRegister@VS_GRAPH_OPTIMIZER@XGRAPHICS@@@VS_GRAPH_OPTIMIZER@XGRAPHICS@@@23@@VS_GRAPH_OPTIMIZER@XGRAPHICS@@QAEPAVnode@123@PAV4123@@Z 00582e54 f i xgraphicsd:instructiongraph.obj
 0005:00017961       ?insert@?$set@PAV?$collection@PAVRegister@VS_GRAPH_OPTIMIZER@XGRAPHICS@@@VS_GRAPH_OPTIMIZER@XGRAPHICS@@U?$less@PAV?$collection@PAVRegister@VS_GRAPH_OPTIMIZER@XGRAPHICS@@@VS_GRAPH_OPTIMIZER@XGRAPHICS@@@23@@VS_GRAPH_OPTIMIZER@XGRAPHICS@@QAEPAVnode@123@PAV?$collection@PAVRegister@VS_GRAPH_OPTIMIZER@XGRAPHICS@@@23@PAV4123@@Z 00582ee1 f i xgraphicsd:instructiongraph.obj
 0005:00017a16       ?erase@?$set@PAVReader@VS_GRAPH_OPTIMIZER@XGRAPHICS@@U?$less@PAVReader@VS_GRAPH_OPTIMIZER@XGRAPHICS@@@23@@VS_GRAPH_OPTIMIZER@XGRAPHICS@@QAEPAVnode@123@PAV4123@@Z 00582f96 f i xgraphicsd:instructiongraph.obj
 0005:00017aa3       ?insert@?$set@PAVReader@VS_GRAPH_OPTIMIZER@XGRAPHICS@@U?$less@PAVReader@VS_GRAPH_OPTIMIZER@XGRAPHICS@@@23@@VS_GRAPH_OPTIMIZER@XGRAPHICS@@QAEPAVnode@123@PAVReader@23@PAV4123@@Z 00583023 f i xgraphicsd:instructiongraph.obj
 0005:00017b58       ?erase@?$set@PAV?$collection@PAVInstruction@VS_GRAPH_OPTIMIZER@XGRAPHICS@@@VS_GRAPH_OPTIMIZER@XGRAPHICS@@U?$less@PAV?$collection@PAVInstruction@VS_GRAPH_OPTIMIZER@XGRAPHICS@@@VS_GRAPH_OPTIMIZER@XGRAPHICS@@@23@@VS_GRAPH_OPTIMIZER@XGRAPHICS@@QAEPAVnode@123@PAV4123@@Z 005830d8 f i xgraphicsd:instructiongraph.obj
 0005:00017be5       ?insert@?$set@PAV?$collection@PAVInstruction@VS_GRAPH_OPTIMIZER@XGRAPHICS@@@VS_GRAPH_OPTIMIZER@XGRAPHICS@@U?$less@PAV?$collection@PAVInstruction@VS_GRAPH_OPTIMIZER@XGRAPHICS@@@VS_GRAPH_OPTIMIZER@XGRAPHICS@@@23@@VS_GRAPH_OPTIMIZER@XGRAPHICS@@QAEPAVnode@123@PAV?$collection@PAVInstruction@VS_GRAPH_OPTIMIZER@XGRAPHICS@@@23@PAV4123@@Z 00583165 f i xgraphicsd:instructiongraph.obj
 0005:00017c9a       ?erase@?$set@PAVInstruction@VS_GRAPH_OPTIMIZER@XGRAPHICS@@UInstructionLess@23@@VS_GRAPH_OPTIMIZER@XGRAPHICS@@QAEPAVnode@123@PAV4123@@Z 0058321a f i xgraphicsd:instructiongraph.obj
 0005:00017d27       ?insert@?$set@PAVInstruction@VS_GRAPH_OPTIMIZER@XGRAPHICS@@UInstructionLess@23@@VS_GRAPH_OPTIMIZER@XGRAPHICS@@QAEPAVnode@123@PAVInstruction@23@PAV4123@@Z 005832a7 f i xgraphicsd:instructiongraph.obj
 0005:00017e00       ?erase@?$set@V?$pair@HPAVRegister@VS_GRAPH_OPTIMIZER@XGRAPHICS@@@VS_GRAPH_OPTIMIZER@XGRAPHICS@@U?$pair_less@V?$pair@HPAVRegister@VS_GRAPH_OPTIMIZER@XGRAPHICS@@@VS_GRAPH_OPTIMIZER@XGRAPHICS@@@23@@VS_GRAPH_OPTIMIZER@XGRAPHICS@@QAEPAVnode@123@PAV4123@@Z 00583380 f i xgraphicsd:instructiongraph.obj
 0005:00017e8d       ?insert@?$set@V?$pair@HPAVRegister@VS_GRAPH_OPTIMIZER@XGRAPHICS@@@VS_GRAPH_OPTIMIZER@XGRAPHICS@@U?$pair_less@V?$pair@HPAVRegister@VS_GRAPH_OPTIMIZER@XGRAPHICS@@@VS_GRAPH_OPTIMIZER@XGRAPHICS@@@23@@VS_GRAPH_OPTIMIZER@XGRAPHICS@@QAEPAVnode@123@V?$pair@HPAVRegister@VS_GRAPH_OPTIMIZER@XGRAPHICS@@@23@@Z 0058340d f i xgraphicsd:instructiongraph.obj
 0005:00017eef       ?erase@?$set@PAVRegister@VS_GRAPH_OPTIMIZER@XGRAPHICS@@U?$less@PAVRegister@VS_GRAPH_OPTIMIZER@XGRAPHICS@@@23@@VS_GRAPH_OPTIMIZER@XGRAPHICS@@QAEPAVnode@123@PAV4123@@Z 0058346f f i xgraphicsd:instructiongraph.obj
 0005:00017f7c       ?insert@?$set@PAVRegister@VS_GRAPH_OPTIMIZER@XGRAPHICS@@U?$less@PAVRegister@VS_GRAPH_OPTIMIZER@XGRAPHICS@@@23@@VS_GRAPH_OPTIMIZER@XGRAPHICS@@QAEPAVnode@123@PAVRegister@23@PAV4123@@Z 005834fc f i xgraphicsd:instructiongraph.obj
 0005:00018031       ?ForcedInR1@InstructionGraph@VS_GRAPH_OPTIMIZER@XGRAPHICS@@QBE_NPAVRegister@23@@Z 005835b1 f i xgraphicsd:instructiongraph.obj
 0005:0001806b       ?insert@?$set@PAVGraphOptimizerObject@VS_GRAPH_OPTIMIZER@XGRAPHICS@@U?$less@PAVGraphOptimizerObject@VS_GRAPH_OPTIMIZER@XGRAPHICS@@@23@@VS_GRAPH_OPTIMIZER@XGRAPHICS@@QAEPAVnode@123@PAVGraphOptimizerObject@23@@Z 005835eb f i xgraphicsd:instructiongraph.obj
 0005:000180c6       ?erase@?$set@PAVGraphOptimizerObject@VS_GRAPH_OPTIMIZER@XGRAPHICS@@U?$less@PAVGraphOptimizerObject@VS_GRAPH_OPTIMIZER@XGRAPHICS@@@23@@VS_GRAPH_OPTIMIZER@XGRAPHICS@@UAEXPAVGraphOptimizerObject@23@@Z 00583646 f i xgraphicsd:instructiongraph.obj
 0005:000180e7       ?insert@?$set@PAV?$collection@PAVRegister@VS_GRAPH_OPTIMIZER@XGRAPHICS@@@VS_GRAPH_OPTIMIZER@XGRAPHICS@@U?$less@PAV?$collection@PAVRegister@VS_GRAPH_OPTIMIZER@XGRAPHICS@@@VS_GRAPH_OPTIMIZER@XGRAPHICS@@@23@@VS_GRAPH_OPTIMIZER@XGRAPHICS@@QAEPAVnode@123@PAV?$collection@PAVRegister@VS_GRAPH_OPTIMIZER@XGRAPHICS@@@23@@Z 00583667 f i xgraphicsd:instructiongraph.obj
 0005:00018142       ?erase@?$set@PAV?$collection@PAVRegister@VS_GRAPH_OPTIMIZER@XGRAPHICS@@@VS_GRAPH_OPTIMIZER@XGRAPHICS@@U?$less@PAV?$collection@PAVRegister@VS_GRAPH_OPTIMIZER@XGRAPHICS@@@VS_GRAPH_OPTIMIZER@XGRAPHICS@@@23@@VS_GRAPH_OPTIMIZER@XGRAPHICS@@UAEXPAV?$collection@PAVRegister@VS_GRAPH_OPTIMIZER@XGRAPHICS@@@23@@Z 005836c2 f i xgraphicsd:instructiongraph.obj
 0005:00018163       ?insert@?$set@PAVReader@VS_GRAPH_OPTIMIZER@XGRAPHICS@@U?$less@PAVReader@VS_GRAPH_OPTIMIZER@XGRAPHICS@@@23@@VS_GRAPH_OPTIMIZER@XGRAPHICS@@QAEPAVnode@123@PAVReader@23@@Z 005836e3 f i xgraphicsd:instructiongraph.obj
 0005:000181be       ?erase@?$set@PAVReader@VS_GRAPH_OPTIMIZER@XGRAPHICS@@U?$less@PAVReader@VS_GRAPH_OPTIMIZER@XGRAPHICS@@@23@@VS_GRAPH_OPTIMIZER@XGRAPHICS@@UAEXPAVReader@23@@Z 0058373e f i xgraphicsd:instructiongraph.obj
 0005:000181df       ?erase@?$set@PAVReader@VS_GRAPH_OPTIMIZER@XGRAPHICS@@U?$less@PAVReader@VS_GRAPH_OPTIMIZER@XGRAPHICS@@@23@@VS_GRAPH_OPTIMIZER@XGRAPHICS@@QAE?AViterator@123@V4123@@Z 0058375f f i xgraphicsd:instructiongraph.obj
 0005:000181fa       ?insert@?$set@PAV?$collection@PAVInstruction@VS_GRAPH_OPTIMIZER@XGRAPHICS@@@VS_GRAPH_OPTIMIZER@XGRAPHICS@@U?$less@PAV?$collection@PAVInstruction@VS_GRAPH_OPTIMIZER@XGRAPHICS@@@VS_GRAPH_OPTIMIZER@XGRAPHICS@@@23@@VS_GRAPH_OPTIMIZER@XGRAPHICS@@QAEPAVnode@123@PAV?$collection@PAVInstruction@VS_GRAPH_OPTIMIZER@XGRAPHICS@@@23@@Z 0058377a f i xgraphicsd:instructiongraph.obj
 0005:00018255       ?erase@?$set@PAV?$collection@PAVInstruction@VS_GRAPH_OPTIMIZER@XGRAPHICS@@@VS_GRAPH_OPTIMIZER@XGRAPHICS@@U?$less@PAV?$collection@PAVInstruction@VS_GRAPH_OPTIMIZER@XGRAPHICS@@@VS_GRAPH_OPTIMIZER@XGRAPHICS@@@23@@VS_GRAPH_OPTIMIZER@XGRAPHICS@@UAEXPAV?$collection@PAVInstruction@VS_GRAPH_OPTIMIZER@XGRAPHICS@@@23@@Z 005837d5 f i xgraphicsd:instructiongraph.obj
 0005:00018276       ?insert@?$set@PAVInstruction@VS_GRAPH_OPTIMIZER@XGRAPHICS@@UInstructionLess@23@@VS_GRAPH_OPTIMIZER@XGRAPHICS@@QAEPAVnode@123@PAVInstruction@23@@Z 005837f6 f i xgraphicsd:instructiongraph.obj
 0005:000182d1       ?erase@?$set@PAVInstruction@VS_GRAPH_OPTIMIZER@XGRAPHICS@@UInstructionLess@23@@VS_GRAPH_OPTIMIZER@XGRAPHICS@@UAEXPAVInstruction@23@@Z 00583851 f i xgraphicsd:instructiongraph.obj
 0005:000182f2       ?erase@?$set@PAVInstruction@VS_GRAPH_OPTIMIZER@XGRAPHICS@@UInstructionLess@23@@VS_GRAPH_OPTIMIZER@XGRAPHICS@@QAE?AViterator@123@V4123@@Z 00583872 f i xgraphicsd:instructiongraph.obj
 0005:0001830d       ?erase@?$map@HPAVRegister@VS_GRAPH_OPTIMIZER@XGRAPHICS@@@VS_GRAPH_OPTIMIZER@XGRAPHICS@@QAE?AViterator@?$set@V?$pair@HPAVRegister@VS_GRAPH_OPTIMIZER@XGRAPHICS@@@VS_GRAPH_OPTIMIZER@XGRAPHICS@@U?$pair_less@V?$pair@HPAVRegister@VS_GRAPH_OPTIMIZER@XGRAPHICS@@@VS_GRAPH_OPTIMIZER@XGRAPHICS@@@23@@23@V4523@@Z 0058388d f i xgraphicsd:instructiongraph.obj
 0005:00018328       ?insert@?$map@HPAVRegister@VS_GRAPH_OPTIMIZER@XGRAPHICS@@@VS_GRAPH_OPTIMIZER@XGRAPHICS@@QAE?AViterator@?$set@V?$pair@HPAVRegister@VS_GRAPH_OPTIMIZER@XGRAPHICS@@@VS_GRAPH_OPTIMIZER@XGRAPHICS@@U?$pair_less@V?$pair@HPAVRegister@VS_GRAPH_OPTIMIZER@XGRAPHICS@@@VS_GRAPH_OPTIMIZER@XGRAPHICS@@@23@@23@HPAVRegister@23@@Z 005838a8 f i xgraphicsd:instructiongraph.obj
 0005:00018367       ?erase@?$set@V?$pair@HPAVRegister@VS_GRAPH_OPTIMIZER@XGRAPHICS@@@VS_GRAPH_OPTIMIZER@XGRAPHICS@@U?$pair_less@V?$pair@HPAVRegister@VS_GRAPH_OPTIMIZER@XGRAPHICS@@@VS_GRAPH_OPTIMIZER@XGRAPHICS@@@23@@VS_GRAPH_OPTIMIZER@XGRAPHICS@@UAEXV?$pair@HPAVRegister@VS_GRAPH_OPTIMIZER@XGRAPHICS@@@23@@Z 005838e7 f i xgraphicsd:instructiongraph.obj
 0005:0001838c       ?insert@?$set@PAVRegister@VS_GRAPH_OPTIMIZER@XGRAPHICS@@U?$less@PAVRegister@VS_GRAPH_OPTIMIZER@XGRAPHICS@@@23@@VS_GRAPH_OPTIMIZER@XGRAPHICS@@QAEPAVnode@123@PAVRegister@23@@Z 0058390c f i xgraphicsd:instructiongraph.obj
 0005:000183e7       ?erase@?$set@PAVRegister@VS_GRAPH_OPTIMIZER@XGRAPHICS@@U?$less@PAVRegister@VS_GRAPH_OPTIMIZER@XGRAPHICS@@@23@@VS_GRAPH_OPTIMIZER@XGRAPHICS@@UAEXPAVRegister@23@@Z 00583967 f i xgraphicsd:instructiongraph.obj
 0005:00018408       ?find_node@?$set@PAVRegister@VS_GRAPH_OPTIMIZER@XGRAPHICS@@U?$less@PAVRegister@VS_GRAPH_OPTIMIZER@XGRAPHICS@@@23@@VS_GRAPH_OPTIMIZER@XGRAPHICS@@QBEPAVnode@123@PAVRegister@23@@Z 00583988 f i xgraphicsd:instructiongraph.obj
 0005:00018432       ?erase@?$set@PAVRegister@VS_GRAPH_OPTIMIZER@XGRAPHICS@@U?$less@PAVRegister@VS_GRAPH_OPTIMIZER@XGRAPHICS@@@23@@VS_GRAPH_OPTIMIZER@XGRAPHICS@@QAE?AViterator@123@V4123@@Z 005839b2 f i xgraphicsd:instructiongraph.obj
 0005:0001844d       ??0GraphOptimizerObject@VS_GRAPH_OPTIMIZER@XGRAPHICS@@QAE@XZ 005839cd f i xgraphicsd:instructiongraph.obj
 0005:0001846b       ??1GraphOptimizerObject@VS_GRAPH_OPTIMIZER@XGRAPHICS@@UAE@XZ 005839eb f i xgraphicsd:instructiongraph.obj
 0005:00018481       ??_GGraphOptimizerObject@VS_GRAPH_OPTIMIZER@XGRAPHICS@@UAEPAXI@Z 00583a01 f i xgraphicsd:instructiongraph.obj
 0005:00018481       ??_EGraphOptimizerObject@VS_GRAPH_OPTIMIZER@XGRAPHICS@@UAEPAXI@Z 00583a01 f i xgraphicsd:instructiongraph.obj
 0005:000184bb       ?AddCollection@Register@VS_GRAPH_OPTIMIZER@XGRAPHICS@@SGXPAV?$collection@PAVRegister@VS_GRAPH_OPTIMIZER@XGRAPHICS@@@23@@Z 00583a3b f i xgraphicsd:instructiongraph.obj
 0005:000184cc       ?RemoveCollection@Register@VS_GRAPH_OPTIMIZER@XGRAPHICS@@SGXPAV?$collection@PAVRegister@VS_GRAPH_OPTIMIZER@XGRAPHICS@@@23@@Z 00583a4c f i xgraphicsd:instructiongraph.obj
 0005:000184dd       ?AddReader@Register@VS_GRAPH_OPTIMIZER@XGRAPHICS@@QAEXPAVReader@23@@Z 00583a5d f i xgraphicsd:instructiongraph.obj
 0005:000184fb       ??0Reader@VS_GRAPH_OPTIMIZER@XGRAPHICS@@QAE@PAVInstruction@12@PAVRegister@12@W4InputIndex@12@1_N@Z 00583a7b f i xgraphicsd:instructiongraph.obj
 0005:00018593       ??0Instruction@VS_GRAPH_OPTIMIZER@XGRAPHICS@@AAE@XZ 00583b13 f i xgraphicsd:instructiongraph.obj
 0005:000185cf       ?AddCollection@Instruction@VS_GRAPH_OPTIMIZER@XGRAPHICS@@SGXPAV?$collection@PAVInstruction@VS_GRAPH_OPTIMIZER@XGRAPHICS@@@23@@Z 00583b4f f i xgraphicsd:instructiongraph.obj
 0005:000185e0       ?RemoveCollection@Instruction@VS_GRAPH_OPTIMIZER@XGRAPHICS@@SGXPAV?$collection@PAVInstruction@VS_GRAPH_OPTIMIZER@XGRAPHICS@@@23@@Z 00583b60 f i xgraphicsd:instructiongraph.obj
 0005:000185f1       ?AddDependants@Instruction@VS_GRAPH_OPTIMIZER@XGRAPHICS@@QAEXPBV?$set@PAVInstruction@VS_GRAPH_OPTIMIZER@XGRAPHICS@@UInstructionLess@23@@23@@Z 00583b71 f i xgraphicsd:instructiongraph.obj
 0005:00018646       ?AddDependant@Instruction@VS_GRAPH_OPTIMIZER@XGRAPHICS@@QAEXPAV123@@Z 00583bc6 f i xgraphicsd:instructiongraph.obj
 0005:00018691       ?DoneWithDependants@Instruction@VS_GRAPH_OPTIMIZER@XGRAPHICS@@QAEXXZ 00583c11 f i xgraphicsd:instructiongraph.obj
 0005:000186c4       ??0Register@VS_GRAPH_OPTIMIZER@XGRAPHICS@@QAE@W4RegType@12@HPAV012@PAVInstruction@12@VCompMask@12@@Z 00583c44 f   xgraphicsd:instructiongraph.obj
 0005:000187ba       ?SetA0x@Register@VS_GRAPH_OPTIMIZER@XGRAPHICS@@QAEPAV123@PAV123@@Z 00583d3a f i xgraphicsd:instructiongraph.obj
 0005:00018837       ?GetReaders@Register@VS_GRAPH_OPTIMIZER@XGRAPHICS@@QAEPAV?$set@PAVReader@VS_GRAPH_OPTIMIZER@XGRAPHICS@@U?$less@PAVReader@VS_GRAPH_OPTIMIZER@XGRAPHICS@@@23@@23@VCompMask@23@PAV423@@Z 00583db7 f   xgraphicsd:instructiongraph.obj
 0005:000188d3       ?GetReadersEver@Register@VS_GRAPH_OPTIMIZER@XGRAPHICS@@QAEPAV?$set@PAVReader@VS_GRAPH_OPTIMIZER@XGRAPHICS@@U?$less@PAVReader@VS_GRAPH_OPTIMIZER@XGRAPHICS@@@23@@23@VCompMask@23@PAV423@@Z 00583e53 f   xgraphicsd:instructiongraph.obj
 0005:0001897e       ?NegateSources@Register@VS_GRAPH_OPTIMIZER@XGRAPHICS@@QAE_NXZ 00583efe f   xgraphicsd:instructiongraph.obj
 0005:00018ade       ?SetSource@Reader@VS_GRAPH_OPTIMIZER@XGRAPHICS@@QAEPAVRegister@23@PAV423@@Z 0058405e f   xgraphicsd:instructiongraph.obj
 0005:00018b70       ??1Instruction@VS_GRAPH_OPTIMIZER@XGRAPHICS@@UAE@XZ 005840f0 f   xgraphicsd:instructiongraph.obj
 0005:00018c85       ?Noop@Instruction@VS_GRAPH_OPTIMIZER@XGRAPHICS@@SGPAV123@XZ 00584205 f   xgraphicsd:instructiongraph.obj
 0005:00018dda       ?UnPair@Instruction@VS_GRAPH_OPTIMIZER@XGRAPHICS@@QAEPAV123@XZ 0058435a f   xgraphicsd:instructiongraph.obj
 0005:00019141       ?GetAllDependants@Instruction@VS_GRAPH_OPTIMIZER@XGRAPHICS@@QAEPAV?$set@PAVInstruction@VS_GRAPH_OPTIMIZER@XGRAPHICS@@UInstructionLess@23@@23@PAV423@@Z 005846c1 f   xgraphicsd:instructiongraph.obj
 0005:0001918e       ?NormalizeMove@Instruction@VS_GRAPH_OPTIMIZER@XGRAPHICS@@QAE_NXZ 0058470e f   xgraphicsd:instructiongraph.obj
 0005:000194b3       ??1InstructionSequence@VS_GRAPH_OPTIMIZER@XGRAPHICS@@UAE@XZ 00584a33 f   xgraphicsd:instructiongraph.obj
 0005:000195a4       ?ReadVReg@InstructionSequence@VS_GRAPH_OPTIMIZER@XGRAPHICS@@QAEPAVRegister@23@H@Z 00584b24 f   xgraphicsd:instructiongraph.obj
 0005:00019644       ?ReadCReg@InstructionSequence@VS_GRAPH_OPTIMIZER@XGRAPHICS@@QAEPAVRegister@23@H_N@Z 00584bc4 f   xgraphicsd:instructiongraph.obj
 0005:000196bf       ??1InstructionGraph@VS_GRAPH_OPTIMIZER@XGRAPHICS@@UAE@XZ 00584c3f f   xgraphicsd:instructiongraph.obj
 0005:00019714       ?AddR1WaitDependencies@InstructionGraph@VS_GRAPH_OPTIMIZER@XGRAPHICS@@AAEXPAVInstruction@23@PAV?$set@PAVReader@VS_GRAPH_OPTIMIZER@XGRAPHICS@@U?$less@PAVReader@VS_GRAPH_OPTIMIZER@XGRAPHICS@@@23@@23@PAV?$set@PAVInstruction@VS_GRAPH_OPTIMIZER@XGRAPHICS@@UInstructionLess@23@@23@@Z 00584c94 f   xgraphicsd:instructiongraph.obj
 0005:0001980b       ?UnPair@InstructionGraph@VS_GRAPH_OPTIMIZER@XGRAPHICS@@AAEXPAVInstruction@23@@Z 00584d8b f   xgraphicsd:instructiongraph.obj
 0005:00019840       ?erase@?$map@HPAVRegister@VS_GRAPH_OPTIMIZER@XGRAPHICS@@@VS_GRAPH_OPTIMIZER@XGRAPHICS@@QAEXH@Z 00584dc0 f i xgraphicsd:instructiongraph.obj
 0005:00019861       ?erase@?$map@HPAVRegister@VS_GRAPH_OPTIMIZER@XGRAPHICS@@@VS_GRAPH_OPTIMIZER@XGRAPHICS@@UAEXPAVRegister@23@@Z 00584de1 f i xgraphicsd:instructiongraph.obj
 0005:000198b3       ??Eiterator@?$set@V?$pair@HPAVRegister@VS_GRAPH_OPTIMIZER@XGRAPHICS@@@VS_GRAPH_OPTIMIZER@XGRAPHICS@@U?$pair_less@V?$pair@HPAVRegister@VS_GRAPH_OPTIMIZER@XGRAPHICS@@@VS_GRAPH_OPTIMIZER@XGRAPHICS@@@23@@VS_GRAPH_OPTIMIZER@XGRAPHICS@@QAEAAV0123@XZ 00584e33 f i xgraphicsd:instructiongraph.obj
 0005:000198ec       ?CleanSwizzle@Reader@VS_GRAPH_OPTIMIZER@XGRAPHICS@@QAE_NXZ 00584e6c f i xgraphicsd:instructiongraph.obj
 0005:00019969       ?CleanSwizzles@Instruction@VS_GRAPH_OPTIMIZER@XGRAPHICS@@QAE_NXZ 00584ee9 f i xgraphicsd:instructiongraph.obj
 0005:000199b4       ??_EInstruction@VS_GRAPH_OPTIMIZER@XGRAPHICS@@UAEPAXI@Z 00584f34 f i xgraphicsd:instructiongraph.obj
 0005:000199b4       ??_GInstruction@VS_GRAPH_OPTIMIZER@XGRAPHICS@@UAEPAXI@Z 00584f34 f i xgraphicsd:instructiongraph.obj
 0005:000199e4       ??1Register@VS_GRAPH_OPTIMIZER@XGRAPHICS@@UAE@XZ 00584f64 f   xgraphicsd:instructiongraph.obj
 0005:00019b39       ?GetAllDependants@Register@VS_GRAPH_OPTIMIZER@XGRAPHICS@@QBEPAV?$set@PAVInstruction@VS_GRAPH_OPTIMIZER@XGRAPHICS@@UInstructionLess@23@@23@PAV423@VCompMask@23@@Z 005850b9 f   xgraphicsd:instructiongraph.obj
 0005:00019cb8       ?MoveReadersToPrevForUnlink@Register@VS_GRAPH_OPTIMIZER@XGRAPHICS@@QAEXXZ 00585238 f   xgraphicsd:instructiongraph.obj
 0005:00019e8b       ??1Reader@VS_GRAPH_OPTIMIZER@XGRAPHICS@@UAE@XZ 0058540b f   xgraphicsd:instructiongraph.obj
 0005:00019f14       ?ConformInputToSwizzle@Instruction@VS_GRAPH_OPTIMIZER@XGRAPHICS@@QAE_NW4InputIndex@23@VSwizzle@23@@Z 00585494 f   xgraphicsd:instructiongraph.obj
 0005:00019f34       ?GetAllDependants@Instruction@VS_GRAPH_OPTIMIZER@XGRAPHICS@@QAEPAV?$set@PAVInstruction@VS_GRAPH_OPTIMIZER@XGRAPHICS@@UInstructionLess@23@@23@XZ 005854b4 f   xgraphicsd:instructiongraph.obj
 0005:0001a123       ??_GInstructionSequence@VS_GRAPH_OPTIMIZER@XGRAPHICS@@UAEPAXI@Z 005856a3 f i xgraphicsd:instructiongraph.obj
 0005:0001a123       ??_EInstructionSequence@VS_GRAPH_OPTIMIZER@XGRAPHICS@@UAEPAXI@Z 005856a3 f i xgraphicsd:instructiongraph.obj
 0005:0001a153       ?ReadReg@InstructionSequence@VS_GRAPH_OPTIMIZER@XGRAPHICS@@QAEPAVRegister@23@W4RegType@23@HHH_NVCompMask@23@@Z 005856d3 f   xgraphicsd:instructiongraph.obj
 0005:0001a1c8       ?WriteRReg@InstructionSequence@VS_GRAPH_OPTIMIZER@XGRAPHICS@@QAEPAVRegister@23@PAV423@@Z 00585748 f   xgraphicsd:instructiongraph.obj
 0005:0001a24f       ??_GInstructionGraph@VS_GRAPH_OPTIMIZER@XGRAPHICS@@UAEPAXI@Z 005857cf f i xgraphicsd:instructiongraph.obj
 0005:0001a24f       ??_EInstructionGraph@VS_GRAPH_OPTIMIZER@XGRAPHICS@@UAEPAXI@Z 005857cf f i xgraphicsd:instructiongraph.obj
 0005:0001a27f       ?FreeTempIndex@InstructionGraph@VS_GRAPH_OPTIMIZER@XGRAPHICS@@QAE_NHPBV?$set@PAVReader@VS_GRAPH_OPTIMIZER@XGRAPHICS@@U?$less@PAVReader@VS_GRAPH_OPTIMIZER@XGRAPHICS@@@23@@23@@Z 005857ff f   xgraphicsd:instructiongraph.obj
 0005:0001a351       ?UnPairAll@InstructionGraph@VS_GRAPH_OPTIMIZER@XGRAPHICS@@AAEXXZ 005858d1 f   xgraphicsd:instructiongraph.obj
 0005:0001a394       ??_GReader@VS_GRAPH_OPTIMIZER@XGRAPHICS@@UAEPAXI@Z 00585914 f i xgraphicsd:instructiongraph.obj
 0005:0001a394       ??_EReader@VS_GRAPH_OPTIMIZER@XGRAPHICS@@UAEPAXI@Z 00585914 f i xgraphicsd:instructiongraph.obj
 0005:0001a3c4       ?IsDependant@Instruction@VS_GRAPH_OPTIMIZER@XGRAPHICS@@QAE_NPAV123@@Z 00585944 f i xgraphicsd:instructiongraph.obj
 0005:0001a3ed       ?CountAllDependants@Instruction@VS_GRAPH_OPTIMIZER@XGRAPHICS@@QAEHXZ 0058596d f i xgraphicsd:instructiongraph.obj
 0005:0001a3fd       ?SortInstrByScheduling@VS_GRAPH_OPTIMIZER@XGRAPHICS@@YG_NPBVInstruction@12@0@Z 0058597d f   xgraphicsd:instructiongraph.obj
 0005:0001a455       ?GetNextInstructionByPriority@VS_GRAPH_OPTIMIZER@XGRAPHICS@@YGPAVInstruction@12@Viterator@?$list@PAVInstruction@VS_GRAPH_OPTIMIZER@XGRAPHICS@@@12@0@Z 005859d5 f   xgraphicsd:instructiongraph.obj
 0005:0001a4a7       ??_GRegister@VS_GRAPH_OPTIMIZER@XGRAPHICS@@UAEPAXI@Z 00585a27 f i xgraphicsd:instructiongraph.obj
 0005:0001a4a7       ??_ERegister@VS_GRAPH_OPTIMIZER@XGRAPHICS@@UAEPAXI@Z 00585a27 f i xgraphicsd:instructiongraph.obj
 0005:0001a4d7       ?CanRead@Reader@VS_GRAPH_OPTIMIZER@XGRAPHICS@@QBE_NPAVRegister@23@VCompMask@23@@Z 00585a57 f   xgraphicsd:instructiongraph.obj
 0005:0001a7d5       ?Combinable@Reader@VS_GRAPH_OPTIMIZER@XGRAPHICS@@QBE_NPBV123@@Z 00585d55 f   xgraphicsd:instructiongraph.obj
 0005:0001a895       ?ReduceInstruction@InstructionGraph@VS_GRAPH_OPTIMIZER@XGRAPHICS@@AAEXPAVInstruction@23@PAV?$set@PAVRegister@VS_GRAPH_OPTIMIZER@XGRAPHICS@@U?$less@PAVRegister@VS_GRAPH_OPTIMIZER@XGRAPHICS@@@23@@23@PAV?$set@PAVInstruction@VS_GRAPH_OPTIMIZER@XGRAPHICS@@UInstructionLess@23@@23@@Z 00585e15 f   xgraphicsd:instructiongraph.obj
 0005:0001b426       ?MoveReadersToPrev@Register@VS_GRAPH_OPTIMIZER@XGRAPHICS@@QAEX_N@Z 005869a6 f   xgraphicsd:instructiongraph.obj
 0005:0001b5c5       ?MergeWith@Register@VS_GRAPH_OPTIMIZER@XGRAPHICS@@QAE_NPAV123@_NVCompMask@23@2@Z 00586b45 f   xgraphicsd:instructiongraph.obj
 0005:0001bdff       ?Combinable@Instruction@VS_GRAPH_OPTIMIZER@XGRAPHICS@@QAE_NPAV123@@Z 0058737f f   xgraphicsd:instructiongraph.obj
 0005:0001c054       ?Combine@Instruction@VS_GRAPH_OPTIMIZER@XGRAPHICS@@QAE_NPAV123@@Z 005875d4 f   xgraphicsd:instructiongraph.obj
 0005:0001c469       ?Combine@Instruction@VS_GRAPH_OPTIMIZER@XGRAPHICS@@QAEXPAV?$set@PAVInstruction@VS_GRAPH_OPTIMIZER@XGRAPHICS@@UInstructionLess@23@@23@_N@Z 005879e9 f   xgraphicsd:instructiongraph.obj
 0005:0001c4de       ?Combine@Instruction@VS_GRAPH_OPTIMIZER@XGRAPHICS@@QAEXPAV?$set@PAVInstruction@VS_GRAPH_OPTIMIZER@XGRAPHICS@@UInstructionLess@23@@23@@Z 00587a5e f   xgraphicsd:instructiongraph.obj
 0005:0001c538       ?Combine@Instruction@VS_GRAPH_OPTIMIZER@XGRAPHICS@@QAEXPAV?$list@PAVInstruction@VS_GRAPH_OPTIMIZER@XGRAPHICS@@@23@@Z 00587ab8 f   xgraphicsd:instructiongraph.obj
 0005:0001c588       ?CombineAll@InstructionGraph@VS_GRAPH_OPTIMIZER@XGRAPHICS@@AAEXXZ 00587b08 f   xgraphicsd:instructiongraph.obj
 0005:0001c6a8       ?CombineMoves@InstructionGraph@VS_GRAPH_OPTIMIZER@XGRAPHICS@@AAEXXZ 00587c28 f   xgraphicsd:instructiongraph.obj
 0005:0001c758       ?ReduceInstructions@InstructionGraph@VS_GRAPH_OPTIMIZER@XGRAPHICS@@AAEXPAV?$set@PAVRegister@VS_GRAPH_OPTIMIZER@XGRAPHICS@@U?$less@PAVRegister@VS_GRAPH_OPTIMIZER@XGRAPHICS@@@23@@23@PAV?$set@PAVInstruction@VS_GRAPH_OPTIMIZER@XGRAPHICS@@UInstructionLess@23@@23@@Z 00587cd8 f   xgraphicsd:instructiongraph.obj
 0005:0001c7c6       ?UnlinkFalsePrev@Register@VS_GRAPH_OPTIMIZER@XGRAPHICS@@QAE_NXZ 00587d46 f i xgraphicsd:instructiongraph.obj
 0005:0001c80d       ?MergeOrAppend@Register@VS_GRAPH_OPTIMIZER@XGRAPHICS@@QAE_NPAV123@_NVCompMask@23@2@Z 00587d8d f i xgraphicsd:instructiongraph.obj
 0005:0001c8b4       ?SwapWithPrev@Register@VS_GRAPH_OPTIMIZER@XGRAPHICS@@QAE_NXZ 00587e34 f   xgraphicsd:instructiongraph.obj
 0005:0001c982       ?WriteOReg@InstructionSequence@VS_GRAPH_OPTIMIZER@XGRAPHICS@@QAEPAVRegister@23@PAV423@@Z 00587f02 f   xgraphicsd:instructiongraph.obj
 0005:0001cac3       ?ReduceRegisters@InstructionGraph@VS_GRAPH_OPTIMIZER@XGRAPHICS@@AAEXPAV?$set@PAVRegister@VS_GRAPH_OPTIMIZER@XGRAPHICS@@U?$less@PAVRegister@VS_GRAPH_OPTIMIZER@XGRAPHICS@@@23@@23@PAV?$set@PAVInstruction@VS_GRAPH_OPTIMIZER@XGRAPHICS@@UInstructionLess@23@@23@@Z 00588043 f   xgraphicsd:instructiongraph.obj
 0005:0001cc9c       ?PushBackInHistory@Register@VS_GRAPH_OPTIMIZER@XGRAPHICS@@QAEXXZ 0058821c f i xgraphicsd:instructiongraph.obj
 0005:0001ccb0       ??0Instruction@VS_GRAPH_OPTIMIZER@XGRAPHICS@@QAE@U_D3DVsInstruction@@HPAVInstructionSequence@12@@Z 00588230 f   xgraphicsd:instructiongraph.obj
 0005:0001d398       ??0InstructionSequence@VS_GRAPH_OPTIMIZER@XGRAPHICS@@QAE@PBU_D3DVertexShaderProgram@@@Z 00588918 f   xgraphicsd:instructiongraph.obj
 0005:0001d609       ??0InstructionGraph@VS_GRAPH_OPTIMIZER@XGRAPHICS@@QAE@PBU_D3DVertexShaderProgram@@@Z 00588b89 f   xgraphicsd:instructiongraph.obj
 0005:0001d721       ?AllocateTempIndexAgressively@InstructionGraph@VS_GRAPH_OPTIMIZER@XGRAPHICS@@QAE_NHPAVRegister@23@PBV?$set@PAVReader@VS_GRAPH_OPTIMIZER@XGRAPHICS@@U?$less@PAVReader@VS_GRAPH_OPTIMIZER@XGRAPHICS@@@23@@23@PBVInstruction@23@VCompMask@23@_N@Z 00588ca1 f   xgraphicsd:instructiongraph.obj
 0005:0001d938       ?AllocateR1@InstructionGraph@VS_GRAPH_OPTIMIZER@XGRAPHICS@@QAE_NPAVRegister@23@PBV?$set@PAVReader@VS_GRAPH_OPTIMIZER@XGRAPHICS@@U?$less@PAVReader@VS_GRAPH_OPTIMIZER@XGRAPHICS@@@23@@23@PBVInstruction@23@VCompMask@23@_N@Z 00588eb8 f   xgraphicsd:instructiongraph.obj
 0005:0001d9a1       ?AllocateTempIndex@InstructionGraph@VS_GRAPH_OPTIMIZER@XGRAPHICS@@QAEHPAVRegister@23@PBV?$set@PAVReader@VS_GRAPH_OPTIMIZER@XGRAPHICS@@U?$less@PAVReader@VS_GRAPH_OPTIMIZER@XGRAPHICS@@@23@@23@PBVInstruction@23@VCompMask@23@_N@Z 00588f21 f   xgraphicsd:instructiongraph.obj
 0005:0001daf2       ?RemoveUnusedOps@InstructionGraph@VS_GRAPH_OPTIMIZER@XGRAPHICS@@AAEXXZ 00589072 f   xgraphicsd:instructiongraph.obj
 0005:0001dc75       ?CombinableForSchedule@Instruction@VS_GRAPH_OPTIMIZER@XGRAPHICS@@QAE_NPAV123@PAVInstructionGraph@23@PAV?$set@PAVReader@VS_GRAPH_OPTIMIZER@XGRAPHICS@@U?$less@PAVReader@VS_GRAPH_OPTIMIZER@XGRAPHICS@@@23@@23@@Z 005891f5 f   xgraphicsd:instructiongraph.obj
 0005:0001ddb1       ?CombineForSchedule@Instruction@VS_GRAPH_OPTIMIZER@XGRAPHICS@@QAEXPAV?$list@PAVInstruction@VS_GRAPH_OPTIMIZER@XGRAPHICS@@@23@Viterator@423@PAVInstructionGraph@23@PAV?$set@PAVReader@VS_GRAPH_OPTIMIZER@XGRAPHICS@@U?$less@PAVReader@VS_GRAPH_OPTIMIZER@XGRAPHICS@@@23@@23@@Z 00589331 f   xgraphicsd:instructiongraph.obj
 0005:0001de2c       ?Ready@Instruction@VS_GRAPH_OPTIMIZER@XGRAPHICS@@QBE_NPAVInstructionGraph@23@PBV?$set@PAVInstruction@VS_GRAPH_OPTIMIZER@XGRAPHICS@@UInstructionLess@23@@23@PBV?$set@PAVReader@VS_GRAPH_OPTIMIZER@XGRAPHICS@@U?$less@PAVReader@VS_GRAPH_OPTIMIZER@XGRAPHICS@@@23@@23@@Z 005893ac f   xgraphicsd:instructiongraph.obj
 0005:0001dfb2       ?Schedule@Instruction@VS_GRAPH_OPTIMIZER@XGRAPHICS@@QAE_NPAVInstructionGraph@23@PBV?$set@PAVReader@VS_GRAPH_OPTIMIZER@XGRAPHICS@@U?$less@PAVReader@VS_GRAPH_OPTIMIZER@XGRAPHICS@@@23@@23@@Z 00589532 f   xgraphicsd:instructiongraph.obj
 0005:0001e179       ?WillHaveTempIndex@InstructionGraph@VS_GRAPH_OPTIMIZER@XGRAPHICS@@QAE_NPBVInstruction@23@PBV?$set@PAVReader@VS_GRAPH_OPTIMIZER@XGRAPHICS@@U?$less@PAVReader@VS_GRAPH_OPTIMIZER@XGRAPHICS@@@23@@23@PAH@Z 005896f9 f   xgraphicsd:instructiongraph.obj
 0005:0001e392       ?Optimize@InstructionGraph@VS_GRAPH_OPTIMIZER@XGRAPHICS@@QAEXXZ 00589912 f   xgraphicsd:instructiongraph.obj
 0005:0001e3b1       ?PairAll@InstructionGraph@VS_GRAPH_OPTIMIZER@XGRAPHICS@@AAEXPAV?$list@PAVInstruction@VS_GRAPH_OPTIMIZER@XGRAPHICS@@@23@PAV123@PAV?$set@PAVReader@VS_GRAPH_OPTIMIZER@XGRAPHICS@@U?$less@PAVReader@VS_GRAPH_OPTIMIZER@XGRAPHICS@@@23@@23@@Z 00589931 f   xgraphicsd:instructiongraph.obj
 0005:0001e492       ?Optimize@VS_GRAPH_OPTIMIZER@XGRAPHICS@@YG_NPAU_D3DVertexShaderProgram@@@Z 00589a12 f   xgraphicsd:instructiongraph.obj
 0005:0001e6b4       ?Schedule@InstructionGraph@VS_GRAPH_OPTIMIZER@XGRAPHICS@@QAE_NXZ 00589c34 f   xgraphicsd:instructiongraph.obj
 0005:0001ef43       ?ToUCode@InstructionGraph@VS_GRAPH_OPTIMIZER@XGRAPHICS@@UAE_NPAU_D3DVertexShaderProgram@@@Z 0058a4c3 f   xgraphicsd:instructiongraph.obj
 0005:0001f01c       ?RGBSwizzleToChannel@XGRAPHICS@@YGKK@Z 0058a59c f   xgraphicsd:pixelshader.obj
 0005:0001f038       ?AlphaSwizzleToChannel@XGRAPHICS@@YGKK@Z 0058a5b8 f   xgraphicsd:pixelshader.obj
 0005:0001f059       ?InstructionMOV@XGRAPHICS@@YGXKKPAK00000@Z 0058a5d9 f   xgraphicsd:pixelshader.obj
 0005:0001f11a       ?InstructionMUL@XGRAPHICS@@YGXKKPAK00000@Z 0058a69a f   xgraphicsd:pixelshader.obj
 0005:0001f20a       ?InstructionDP3@XGRAPHICS@@YGXKKPAK00000@Z 0058a78a f   xgraphicsd:pixelshader.obj
 0005:0001f2ad       ?InstructionADD@XGRAPHICS@@YGXKKPAK00000@Z 0058a82d f   xgraphicsd:pixelshader.obj
 0005:0001f3a4       ?InstructionSUB@XGRAPHICS@@YGXKKPAK00000@Z 0058a924 f   xgraphicsd:pixelshader.obj
 0005:0001f49b       ?InstructionMAD@XGRAPHICS@@YGXKKPAK00000@Z 0058aa1b f   xgraphicsd:pixelshader.obj
 0005:0001f5b8       ?InstructionLRP@XGRAPHICS@@YGXKKPAK00000@Z 0058ab38 f   xgraphicsd:pixelshader.obj
 0005:0001f728       ?InstructionCND@XGRAPHICS@@YGXKKPAK00000@Z 0058aca8 f   xgraphicsd:pixelshader.obj
 0005:0001f82c       ?InstructionXMMA@XGRAPHICS@@YGXKKPAK00000@Z 0058adac f   xgraphicsd:pixelshader.obj
 0005:0001f97b       ?InstructionXMMC@XGRAPHICS@@YGXKKPAK00000@Z 0058aefb f   xgraphicsd:pixelshader.obj
 0005:0001fad6       ?InstructionXDM@XGRAPHICS@@YGXKKPAK00000@Z 0058b056 f   xgraphicsd:pixelshader.obj
 0005:0001fc2d       ?InstructionXDD@XGRAPHICS@@YGXKKPAK00000@Z 0058b1ad f   xgraphicsd:pixelshader.obj
 0005:0001fd97       ?InstructionXFC@XGRAPHICS@@YGXKKPAK00000@Z 0058b317 f   xgraphicsd:pixelshader.obj
 0005:0001fe6a       ?ShiftAndBiasToMap@XGRAPHICS@@YGKKK@Z 0058b3ea f   xgraphicsd:pixelshader.obj
 0005:0001feb7       ?DSTdecode@XGRAPHICS@@YGKPAK00K@Z 0058b437 f   xgraphicsd:pixelshader.obj
 0005:0001ff1e       ?SRCdecode@XGRAPHICS@@YGKPAK00KK@Z 0058b49e f   xgraphicsd:pixelshader.obj
 0005:0002011a       ?PrintPixelShaderDef@XGRAPHICS@@YGXPAU_D3DPixelShaderDef@@PAVBuffer@1@@Z 0058b69a f   xgraphicsd:pixelshader.obj
 0005:00020c4d       ?CompilePixelShaderToUCode@XGRAPHICS@@YGJ_NKPAUXGBuffer@@PAPAU2@PAVBuffer@1@PAUXD3DXErrorLog@1@@Z 0058c1cd f   xgraphicsd:pixelshader.obj
 0005:000214b0       ?PSCMapping@D3DPIXELSHADERDEF_OPT@XGRAPHICS@@QBEKK@Z 0058ca30 f i xgraphicsd:pixelshaderopt.obj
 0005:00021567       ?SetPSCMapping@D3DPIXELSHADERDEF_OPT@XGRAPHICS@@QAEXKK@Z 0058cae7 f i xgraphicsd:pixelshaderopt.obj
 0005:000215bd       ?PSFinalCombinerConstants@D3DPIXELSHADERDEF_OPT@XGRAPHICS@@QBEKXZ 0058cb3d f i xgraphicsd:pixelshaderopt.obj
 0005:000215e8       ?SetPSFinalCombinerConstants@D3DPIXELSHADERDEF_OPT@XGRAPHICS@@QAEXK@Z 0058cb68 f i xgraphicsd:pixelshaderopt.obj
 0005:0002161f       ?RGBSwizzleToChannel@PixelShaderAssembler@XGRAPHICS@@AAEKK@Z 0058cb9f f i xgraphicsd:pixelshaderopt.obj
 0005:0002163b       ?AlphaSwizzleToChannel@PixelShaderAssembler@XGRAPHICS@@AAEKK@Z 0058cbbb f i xgraphicsd:pixelshaderopt.obj
 0005:0002165c       ?InstructionMOV@PixelShaderAssembler@XGRAPHICS@@AAEXKKPAK00000@Z 0058cbdc f i xgraphicsd:pixelshaderopt.obj
 0005:00021724       ?InstructionMUL@PixelShaderAssembler@XGRAPHICS@@AAEXKKPAK00000@Z 0058cca4 f i xgraphicsd:pixelshaderopt.obj
 0005:0002182e       ?InstructionDP3@PixelShaderAssembler@XGRAPHICS@@AAEXKKPAK00000@Z 0058cdae f i xgraphicsd:pixelshaderopt.obj
 0005:000218cc       ?InstructionADD@PixelShaderAssembler@XGRAPHICS@@AAEXKKPAK00000@Z 0058ce4c f i xgraphicsd:pixelshaderopt.obj
 0005:000219dd       ?InstructionSUB@PixelShaderAssembler@XGRAPHICS@@AAEXKKPAK00000@Z 0058cf5d f i xgraphicsd:pixelshaderopt.obj
 0005:00021aee       ?InstructionMAD@PixelShaderAssembler@XGRAPHICS@@AAEXKKPAK00000@Z 0058d06e f i xgraphicsd:pixelshaderopt.obj
 0005:00021c49       ?InstructionLRP@PixelShaderAssembler@XGRAPHICS@@AAEXKKPAK00000@Z 0058d1c9 f i xgraphicsd:pixelshaderopt.obj
 0005:00021e11       ?InstructionCND@PixelShaderAssembler@XGRAPHICS@@AAEXKKPAK00000@Z 0058d391 f i xgraphicsd:pixelshaderopt.obj
 0005:00021f38       ?InstructionXMMA@PixelShaderAssembler@XGRAPHICS@@AAEXKKPAK00000@Z 0058d4b8 f i xgraphicsd:pixelshaderopt.obj
 0005:000220ee       ?InstructionXMMC@PixelShaderAssembler@XGRAPHICS@@AAEXKKPAK00000@Z 0058d66e f i xgraphicsd:pixelshaderopt.obj
 0005:000222ac       ?InstructionXDM@PixelShaderAssembler@XGRAPHICS@@AAEXKKPAK00000@Z 0058d82c f i xgraphicsd:pixelshaderopt.obj
 0005:0002245f       ?InstructionXDD@PixelShaderAssembler@XGRAPHICS@@AAEXKKPAK00000@Z 0058d9df f i xgraphicsd:pixelshaderopt.obj
 0005:00022617       ?InstructionXFC@PixelShaderAssembler@XGRAPHICS@@AAEXKKPAK00000@Z 0058db97 f i xgraphicsd:pixelshaderopt.obj
 0005:00022737       ?ShiftAndBiasToMap@PixelShaderAssembler@XGRAPHICS@@AAEKKK@Z 0058dcb7 f i xgraphicsd:pixelshaderopt.obj
 0005:00022784       ?DSTdecode@PixelShaderAssembler@XGRAPHICS@@AAEKPAK00K@Z 0058dd04 f i xgraphicsd:pixelshaderopt.obj
 0005:000227ee       ?SRCdecode@PixelShaderAssembler@XGRAPHICS@@AAEKPAK00KK@Z 0058dd6e f i xgraphicsd:pixelshaderopt.obj
 0005:00022a1e       ?PSC0Mapping@D3DPIXELSHADERDEF_OPT@XGRAPHICS@@QBEKXZ 0058df9e f i xgraphicsd:pixelshaderopt.obj
 0005:00022a28       ?SetPSC0Mapping@D3DPIXELSHADERDEF_OPT@XGRAPHICS@@QAEXK@Z 0058dfa8 f i xgraphicsd:pixelshaderopt.obj
 0005:00022a3d       ?PSC1Mapping@D3DPIXELSHADERDEF_OPT@XGRAPHICS@@QBEKXZ 0058dfbd f i xgraphicsd:pixelshaderopt.obj
 0005:00022a47       ?SetPSC1Mapping@D3DPIXELSHADERDEF_OPT@XGRAPHICS@@QAEXK@Z 0058dfc7 f i xgraphicsd:pixelshaderopt.obj
 0005:00022a5c       ?CopyOptimizedToReal@PixelShaderAssembler@XGRAPHICS@@AAEJPBUD3DPIXELSHADERDEF_OPT@2@PAU_D3DPixelShaderDef@@@Z 0058dfdc f i xgraphicsd:pixelshaderopt.obj
 0005:00022b9e       ?CopyRealToOptimized@PixelShaderAssembler@XGRAPHICS@@AAEJPBU_D3DPixelShaderDef@@PAUD3DPIXELSHADERDEF_OPT@2@@Z 0058e11e f i xgraphicsd:pixelshaderopt.obj
 0005:00023856       ?CompilePixelShaderToUCode@PixelShaderAssembler@XGRAPHICS@@QAEJ_N00K0PAUXGBuffer@@PAPAU3@PAVBuffer@2@PAUXD3DXErrorLog@2@@Z 0058edd6 f i xgraphicsd:pixelshaderopt.obj
 0005:0002409e       ?CompilePixelShaderToUCodeOpt@XGRAPHICS@@YGJ_N00K0PAUXGBuffer@@PAPAU2@PAVBuffer@1@PAUXD3DXErrorLog@1@@Z 0058f61e f   xgraphicsd:pixelshaderopt.obj
 0005:000240d6       ?CalculateComponentReadMasks@CVSInstruction@XGRAPHICS@@UAEXXZ 0058f656 f   xgraphicsd:vshdrval.obj
 0005:0002425e       ??0CVShaderValidator@XGRAPHICS@@QAE@PBK0PBU_D3DCAPS8@@KPAUXD3DXErrorLog@1@@Z 0058f7de f   xgraphicsd:vshdrval.obj
 0005:00024355       ?Rule_InstructionRecognized@CVShaderValidator@XGRAPHICS@@AAEHXZ 0058f8d5 f   xgraphicsd:vshdrval.obj
 0005:000243f5       ?Rule_InstructionSupportedByVersion@CVShaderValidator@XGRAPHICS@@AAEHXZ 0058f975 f   xgraphicsd:vshdrval.obj
 0005:000244b9       ?Rule_ValidParamCount@CVShaderValidator@XGRAPHICS@@AAEHXZ 0058fa39 f   xgraphicsd:vshdrval.obj
 0005:000245c4       ?GetMinRegNumber@CVShaderValidator@XGRAPHICS@@AAEKK@Z 0058fb44 f   xgraphicsd:vshdrval.obj
 0005:000245e8       ?Rule_SrcInitialized@CVShaderValidator@XGRAPHICS@@AAEHXZ 0058fb68 f   xgraphicsd:vshdrval.obj
 0005:0002495a       ?Rule_ValidAddressRegWrite@CVShaderValidator@XGRAPHICS@@AAEHXZ 0058feda f   xgraphicsd:vshdrval.obj
 0005:000249ff       ?Rule_ValidFRCInstruction@CVShaderValidator@XGRAPHICS@@AAEHXZ 0058ff7f f   xgraphicsd:vshdrval.obj
 0005:00024a4a       ?Rule_ValidInstructionCount@CVShaderValidator@XGRAPHICS@@AAEHXZ 0058ffca f   xgraphicsd:vshdrval.obj
 0005:00024be3       ?DecodeDstParam@CVShaderValidator@XGRAPHICS@@AAEXW4_D3DSHADER_INSTRUCTION_OPCODE_TYPE@@PAVDSTPARAM@2@K@Z 00590163 f   xgraphicsd:vshdrval.obj
 0005:00024cca       ?DecodeSrcParam@CVShaderValidator@XGRAPHICS@@AAEXPAVSRCPARAM@2@K@Z 0059024a f   xgraphicsd:vshdrval.obj
 0005:00024d6a       ?GetNumRegs@CRegisterFile@XGRAPHICS@@QAEIXZ 005902ea f i xgraphicsd:vshdrval.obj
 0005:00024d6d       ?IsWritable@CRegisterFile@XGRAPHICS@@QAEHXZ 005902ed f i xgraphicsd:vshdrval.obj
 0005:00024d71       ?GetNumReadPorts@CRegisterFile@XGRAPHICS@@QAEIXZ 005902f1 f i xgraphicsd:vshdrval.obj
 0005:00024d75       ?GetStatus@CBaseShaderValidator@XGRAPHICS@@QAEJXZ 005902f5 f i xgraphicsd:vshdrval.obj
 0005:00024d79       ??0CVSInstruction@XGRAPHICS@@QAE@PAV01@@Z 005902f9 f i xgraphicsd:vshdrval.obj
 0005:00024e02       ??_GCRegisterFile@XGRAPHICS@@QAEPAXI@Z 00590382 f i xgraphicsd:vshdrval.obj
 0005:00024e32       ?AllocateNewInstruction@CVShaderValidator@XGRAPHICS@@EAEPAVCBaseInstruction@2@PAV32@@Z 005903b2 f   xgraphicsd:vshdrval.obj
 0005:00024e7f       ?DecodeNextInstruction@CVShaderValidator@XGRAPHICS@@EAEHXZ 005903ff f   xgraphicsd:vshdrval.obj
 0005:00024fbc       ?ValidateDeclaration@CVShaderValidator@XGRAPHICS@@AAEXXZ 0059053c f   xgraphicsd:vshdrval.obj
 0005:00025730       ?Rule_ValidSrcParams@CVShaderValidator@XGRAPHICS@@AAEHXZ 00590cb0 f   xgraphicsd:vshdrval.obj
 0005:000259ef       ?Rule_ValidDstParam@CVShaderValidator@XGRAPHICS@@AAEHXZ 00590f6f f   xgraphicsd:vshdrval.obj
 0005:00025d65       ?Rule_ValidRegisterPortUsage@CVShaderValidator@XGRAPHICS@@AAEHXZ 005912e5 f   xgraphicsd:vshdrval.obj
 0005:00025e97       ?Rule_oPosWritten@CVShaderValidator@XGRAPHICS@@AAEHXZ 00591417 f   xgraphicsd:vshdrval.obj
 0005:00025f91       ??1CVShaderValidator@XGRAPHICS@@QAE@XZ 00591511 f   xgraphicsd:vshdrval.obj
 0005:00026054       ?InitValidation@CVShaderValidator@XGRAPHICS@@EAEHXZ 005915d4 f   xgraphicsd:vshdrval.obj
 0005:0002656e       ?ApplyPerInstructionRules@CVShaderValidator@XGRAPHICS@@EAEHXZ 00591aee f   xgraphicsd:vshdrval.obj
 0005:000265fc       ?ApplyPostInstructionsRules@CVShaderValidator@XGRAPHICS@@EAEXXZ 00591b7c f   xgraphicsd:vshdrval.obj
 0005:00026610       ?ValidateVertexShaderInternal@XGRAPHICS@@YGHPBK0PBU_D3DCAPS8@@PAUXD3DXErrorLog@1@@Z 00591b90 f   xgraphicsd:vshdrval.obj
 0005:0002665c       ?ValidateVertexShader@XGRAPHICS@@YGJPBK0PBU_D3DCAPS8@@KPAUXD3DXErrorLog@1@@Z 00591bdc f   xgraphicsd:vshdrval.obj
 0005:000266a3       ?CalculateComponentReadMasks@CPSInstruction@XGRAPHICS@@UAEXXZ 00591c23 f   xgraphicsd:pshdrval.obj
 0005:000267fc       ??0CPShaderValidator@XGRAPHICS@@QAE@PBKPBU_D3DCAPS8@@KPAUXD3DXErrorLog@1@@Z 00591d7c f   xgraphicsd:pshdrval.obj
 0005:0002687a       ?IsCurrInstTexOp@CPShaderValidator@XGRAPHICS@@AAEXXZ 00591dfa f   xgraphicsd:pshdrval.obj
 0005:00026977       ?Rule_InstructionRecognized@CPShaderValidator@XGRAPHICS@@AAEHXZ 00591ef7 f   xgraphicsd:pshdrval.obj
 0005:00026a2c       ?Rule_InstructionSupportedByVersion@CPShaderValidator@XGRAPHICS@@AAEHXZ 00591fac f   xgraphicsd:pshdrval.obj
 0005:00026b30       ?Rule_ValidParamCount@CPShaderValidator@XGRAPHICS@@AAEHXZ 005920b0 f   xgraphicsd:pshdrval.obj
 0005:00026cb6       ?Rule_SrcNoLongerAvailable@CPShaderValidator@XGRAPHICS@@AAEHXZ 00592236 f   xgraphicsd:pshdrval.obj
 0005:00026e0f       ?Rule_MultipleDependentTextureReads@CPShaderValidator@XGRAPHICS@@AAEHXZ 0059238f f   xgraphicsd:pshdrval.obj
 0005:00026e41       ?Rule_SrcInitialized@CPShaderValidator@XGRAPHICS@@AAEHXZ 005923c1 f   xgraphicsd:pshdrval.obj
 0005:000270ff       ?Rule_TexOpAfterNonTexOp@CPShaderValidator@XGRAPHICS@@AAEHXZ 0059267f f   xgraphicsd:pshdrval.obj
 0005:000271a7       ?Rule_ValidTEXM3xSequence@CPShaderValidator@XGRAPHICS@@AAEHXZ 00592727 f   xgraphicsd:pshdrval.obj
 0005:000272f4       ?Rule_ValidTEXM3xRegisterNumbers@CPShaderValidator@XGRAPHICS@@AAEHXZ 00592874 f   xgraphicsd:pshdrval.obj
 0005:000273cd       ?Rule_ValidCNDInstruction@CPShaderValidator@XGRAPHICS@@AAEHXZ 0059294d f   xgraphicsd:pshdrval.obj
 0005:00027472       ?Rule_ValidLRPInstruction@CPShaderValidator@XGRAPHICS@@AAEHXZ 005929f2 f   xgraphicsd:pshdrval.obj
 0005:000274e0       ?Rule_ValidDP3Instruction@CPShaderValidator@XGRAPHICS@@AAEHXZ 00592a60 f   xgraphicsd:pshdrval.obj
 0005:00027526       ?Rule_ValidInstructionPairing@CPShaderValidator@XGRAPHICS@@AAEHXZ 00592aa6 f   xgraphicsd:pshdrval.obj
 0005:000278b7       ?Rule_ValidInstructionCount@CPShaderValidator@XGRAPHICS@@AAEHXZ 00592e37 f   xgraphicsd:pshdrval.obj
 0005:00027b28       ?Rule_R0Written@CPShaderValidator@XGRAPHICS@@AAEHXZ 005930a8 f   xgraphicsd:pshdrval.obj
 0005:00027bb1       ??0CPSInstruction@XGRAPHICS@@QAE@PAV01@@Z 00593131 f i xgraphicsd:pshdrval.obj
 0005:00027c1f       ?AllocateNewInstruction@CPShaderValidator@XGRAPHICS@@EAEPAVCBaseInstruction@2@PAV32@@Z 0059319f f   xgraphicsd:pshdrval.obj
 0005:00027c6c       ?DecodeNextInstruction@CPShaderValidator@XGRAPHICS@@EAEHXZ 005931ec f   xgraphicsd:pshdrval.obj
 0005:00027ea9       ?InitValidation@CPShaderValidator@XGRAPHICS@@EAEHXZ 00593429 f   xgraphicsd:pshdrval.obj
 0005:0002851e       ?ApplyPostInstructionsRules@CPShaderValidator@XGRAPHICS@@EAEXXZ 00593a9e f   xgraphicsd:pshdrval.obj
 0005:00028544       ?Rule_ValidSrcParams@CPShaderValidator@XGRAPHICS@@AAEHXZ 00593ac4 f   xgraphicsd:pshdrval.obj
 0005:000288d9       ?Rule_ValidDstParam@CPShaderValidator@XGRAPHICS@@AAEHXZ 00593e59 f   xgraphicsd:pshdrval.obj
 0005:00028d8f       ?Rule_ValidRegisterPortUsage@CPShaderValidator@XGRAPHICS@@AAEHXZ 0059430f f   xgraphicsd:pshdrval.obj
 0005:00028f24       ?Rule_TexRegsDeclaredInOrder@CPShaderValidator@XGRAPHICS@@AAEHXZ 005944a4 f   xgraphicsd:pshdrval.obj
 0005:0002904e       ?Rule_ValidDEFInstruction@CPShaderValidator@XGRAPHICS@@AAEHXZ 005945ce f   xgraphicsd:pshdrval.obj
 0005:00029137       ??1CPShaderValidator@XGRAPHICS@@QAE@XZ 005946b7 f   xgraphicsd:pshdrval.obj
 0005:000291bc       ?ApplyPerInstructionRules@CPShaderValidator@XGRAPHICS@@EAEHXZ 0059473c f   xgraphicsd:pshdrval.obj
 0005:000292e4       ?ValidatePixelShaderInternal@XGRAPHICS@@YGHPBKPBU_D3DCAPS8@@PAUXD3DXErrorLog@1@@Z 00594864 f   xgraphicsd:pshdrval.obj
 0005:00029325       ?ValidatePixelShader@XGRAPHICS@@YGJPBKPBU_D3DCAPS8@@KPAUXD3DXErrorLog@1@@Z 005948a5 f   xgraphicsd:pshdrval.obj
 0005:00029361       ?Isspace@XGRAPHICS@@YGHH@Z 005948e1 f i xgraphicsd:cd3dxassembler.obj
 0005:00029385       ??0CD3DXAssembler@XGRAPHICS@@QAE@XZ 00594905 f   xgraphicsd:cd3dxassembler.obj
 0005:00029427       ??1CD3DXAssembler@XGRAPHICS@@QAE@XZ 005949a7 f   xgraphicsd:cd3dxassembler.obj
 0005:000294b8       ?Error2@CD3DXAssembler@XGRAPHICS@@QAEX_NKPBDPAD@Z 00594a38 f   xgraphicsd:cd3dxassembler.obj
 0005:0002952c       ?DecodeOpcode@CD3DXAssembler@XGRAPHICS@@QAEHXZ 00594aac f   xgraphicsd:cd3dxassembler.obj
 0005:00029d92       ?UpdateDebugText@CD3DXAssembler@XGRAPHICS@@QAEXXZ 00595312 f   xgraphicsd:cd3dxassembler.obj
 0005:00029e8e       ?UpdateDebugFileLine@CD3DXAssembler@XGRAPHICS@@QAEXXZ 0059540e f   xgraphicsd:cd3dxassembler.obj
 0005:0002a06a       ?Error@CD3DXAssembler@XGRAPHICS@@QAAX_NKPBDZZ 005955ea f   xgraphicsd:cd3dxassembler.obj
 0005:0002a08a       ?DecodeMask@CD3DXAssembler@XGRAPHICS@@QAEKPAD@Z 0059560a f   xgraphicsd:cd3dxassembler.obj
 0005:0002a15e       ?DecodeSwizzle@CD3DXAssembler@XGRAPHICS@@QAEKPAD@Z 005956de f   xgraphicsd:cd3dxassembler.obj
 0005:0002a226       ?DecodeRegister@CD3DXAssembler@XGRAPHICS@@QAEKPADKH@Z 005957a6 f   xgraphicsd:cd3dxassembler.obj
 0005:0002a927       ?ValidateDstRegister@CD3DXAssembler@XGRAPHICS@@QAEXK@Z 00595ea7 f   xgraphicsd:cd3dxassembler.obj
 0005:0002aa58       ?ValidateSrcRegister@CD3DXAssembler@XGRAPHICS@@QAEXK@Z 00595fd8 f   xgraphicsd:cd3dxassembler.obj
 0005:0002ab14       ?SetConstant@CD3DXAssembler@XGRAPHICS@@QAEXKPAUD3DXVECTOR4@@@Z 00596094 f   xgraphicsd:cd3dxassembler.obj
 0005:0002abe6       ?Token@CD3DXAssembler@XGRAPHICS@@QAEHXZ 00596166 f   xgraphicsd:cd3dxassembler.obj
 0005:0002b2d7       ?Production@CD3DXAssembler@XGRAPHICS@@QAEXI@Z 00596857 f   xgraphicsd:cd3dxassembler.obj
 0005:0002c3f5       ?YYError@CD3DXAssembler@XGRAPHICS@@QAAXPADZZ 00597975 f   xgraphicsd:cd3dxassembler.obj
 0005:0002c437       ?d3dxasm_parse@XGRAPHICS@@YGHXZ 005979b7 f   xgraphicsd:cd3dxassembler.obj
 0005:0002cb3f       ?Assemble@CD3DXAssembler@XGRAPHICS@@QAEJPBXIPBDIKPAPAUXGBuffer@@2PAUXD3DXErrorLog@2@PAK@Z 005980bf f   xgraphicsd:cd3dxassembler.obj
 0005:0002cdd3       ?IsEqual@Token@PreProcessor@XGRAPHICS@@QAE_NKPBDK@Z 00598353 f i xgraphicsd:preprocessor.obj
 0005:0002ce0c       ?IsEqual@Token@PreProcessor@XGRAPHICS@@QAE_ND@Z 0059838c f i xgraphicsd:preprocessor.obj
 0005:0002ce34       ?FindInnermostItem@PreProcessor@XGRAPHICS@@AAEJAAVToken@12@AAPBD@Z 005983b4 f i xgraphicsd:preprocessor.obj
 0005:0002ce9e       ?FindNumber@PreProcessor@XGRAPHICS@@AAEJAAVToken@12@00AAPBD@Z 0059841e f i xgraphicsd:preprocessor.obj
 0005:0002d044       ?FindDirective@PreProcessor@XGRAPHICS@@AAEPBDAAVBuffer@2@@Z 005985c4 f i xgraphicsd:preprocessor.obj
 0005:0002d092       ?SkipWS@PreProcessor@XGRAPHICS@@CGJAAPBD@Z 00598612 f i xgraphicsd:preprocessor.obj
 0005:0002d0cf       ?GetToken@PreProcessor@XGRAPHICS@@CGJAAVToken@12@AAPBD_N@Z 0059864f f i xgraphicsd:preprocessor.obj
 0005:0002d217       ?GetDefineMacroArgToken@PreProcessor@XGRAPHICS@@CGJAAVToken@12@AAPBD@Z 00598797 f i xgraphicsd:preprocessor.obj
 0005:0002d2af       ?GetMacroArgToken@PreProcessor@XGRAPHICS@@CGJAAVToken@12@AAPBD@Z 0059882f f i xgraphicsd:preprocessor.obj
 0005:0002d33b       ?GetIncDecArgList@PreProcessor@XGRAPHICS@@CGJAAVToken@12@AAPBD@Z 005988bb f i xgraphicsd:preprocessor.obj
 0005:0002d3e2       ?FormatAsStringConstant@PreProcessor@XGRAPHICS@@AAEXPADKPBD@Z 00598962 f i xgraphicsd:preprocessor.obj
 0005:0002d43f       ?Output3@PreProcessor@XGRAPHICS@@AAEJPBDI@Z 005989bf f i xgraphicsd:preprocessor.obj
 0005:0002d44e       ?Error@PreProcessor@XGRAPHICS@@AAAX_NKPBDZZ 005989ce f i xgraphicsd:preprocessor.obj
 0005:0002d4bc       ??0Map@PreProcessor@XGRAPHICS@@QAE@XZ 00598a3c f i xgraphicsd:preprocessor.obj
 0005:0002d4c8       ?Hash@Map@PreProcessor@XGRAPHICS@@AAEKPBDK@Z 00598a48 f i xgraphicsd:preprocessor.obj
 0005:0002d501       ??0Entry@Map@PreProcessor@XGRAPHICS@@QAE@XZ 00598a81 f i xgraphicsd:preprocessor.obj
 0005:0002d511       ??0InputBuffer@PreProcessor@XGRAPHICS@@QAE@XZ 00598a91 f i xgraphicsd:preprocessor.obj
 0005:0002d52d       ?UnGetC@InputBuffer@PreProcessor@XGRAPHICS@@QAEXH@Z 00598aad f i xgraphicsd:preprocessor.obj
 0005:0002d558       ?IsEOF@InputBuffer@PreProcessor@XGRAPHICS@@QAE_NXZ 00598ad8 f i xgraphicsd:preprocessor.obj
 0005:0002d569       ?IsActive@InputBuffer@PreProcessor@XGRAPHICS@@QAE_NXZ 00598ae9 f i xgraphicsd:preprocessor.obj
 0005:0002d56d       ?ComputeActive@InputBuffer@PreProcessor@XGRAPHICS@@QAEXXZ 00598aed f i xgraphicsd:preprocessor.obj
 0005:0002d593       ?PushActiveLevel@InputBuffer@PreProcessor@XGRAPHICS@@QAEJ_N@Z 00598b13 f i xgraphicsd:preprocessor.obj
 0005:0002d5e4       ?ElseActiveLevel@InputBuffer@PreProcessor@XGRAPHICS@@QAEJXZ 00598b64 f i xgraphicsd:preprocessor.obj
 0005:0002d62f       ?PopActiveLevel@InputBuffer@PreProcessor@XGRAPHICS@@QAEJXZ 00598baf f i xgraphicsd:preprocessor.obj
 0005:0002d662       ?InsideIfElse@InputBuffer@PreProcessor@XGRAPHICS@@QAEKXZ 00598be2 f i xgraphicsd:preprocessor.obj
 0005:0002d727       ?MoreWorkToDo@PreProcessor@XGRAPHICS@@AAEJAA_N@Z 00598ca7 f i xgraphicsd:preprocessor.obj
 0005:0002d793       ?CheckForEnum@PreProcessor@XGRAPHICS@@AAEJAAVBuffer@2@PA_N@Z 00598d13 f i xgraphicsd:preprocessor.obj
 0005:0002d801       ?ProcessIncDec@PreProcessor@XGRAPHICS@@AAEJAAVBuffer@2@AAPBDAAVMap@12@H@Z 00598d81 f i xgraphicsd:preprocessor.obj
 0005:0002dad4       ?DoIf@PreProcessor@XGRAPHICS@@AAEJPBD@Z 00599054 f i xgraphicsd:preprocessor.obj
 0005:0002db11       ?DoElif@PreProcessor@XGRAPHICS@@AAEJPBD@Z 00599091 f i xgraphicsd:preprocessor.obj
 0005:0002db39       ?DoElse@PreProcessor@XGRAPHICS@@AAEJPBD@Z 005990b9 f i xgraphicsd:preprocessor.obj
 0005:0002db6e       ?DoEndif@PreProcessor@XGRAPHICS@@AAEJPBD@Z 005990ee f i xgraphicsd:preprocessor.obj
 0005:0002dba3       ?DoError@PreProcessor@XGRAPHICS@@AAEJPBD@Z 00599123 f i xgraphicsd:preprocessor.obj
 0005:0002dbc6       ?GetFilePath@PreProcessor@XGRAPHICS@@AAEJPBDPADKPAH@Z 00599146 f i xgraphicsd:preprocessor.obj
 0005:0002dca3       ?Output2@PreProcessor@XGRAPHICS@@AAEJPBD@Z 00599223 f i xgraphicsd:preprocessor.obj
 0005:0002dcd0       ?WarnIfInOneLineComment@PreProcessor@XGRAPHICS@@AAEXXZ 00599250 f i xgraphicsd:preprocessor.obj
 0005:0002dcf6       ?Lookup@Map@PreProcessor@XGRAPHICS@@QAEPBDPBDK@Z 00599276 f i xgraphicsd:preprocessor.obj
 0005:0002dd61       ?Clean@Entry@Map@PreProcessor@XGRAPHICS@@QAEXXZ 005992e1 f i xgraphicsd:preprocessor.obj
 0005:0002ddbc       ?Copy@Entry@Map@PreProcessor@XGRAPHICS@@QAEJAAPADPBDK@Z 0059933c f i xgraphicsd:preprocessor.obj
 0005:0002de19       ?Close@InputBuffer@PreProcessor@XGRAPHICS@@AAEXXZ 00599399 f i xgraphicsd:preprocessor.obj
 0005:0002de3e       ?FullGetC@InputBuffer@PreProcessor@XGRAPHICS@@AAEHXZ 005993be f i xgraphicsd:preprocessor.obj
 0005:0002de7b       ?CheckLegalIncDecUse@PreProcessor@XGRAPHICS@@AAEJAAVMap@12@AAPBDPA_N@Z 005993fb f i xgraphicsd:preprocessor.obj
 0005:0002df85       ?ProcessMacroBody@PreProcessor@XGRAPHICS@@AAEJAAVBuffer@2@AAPBDAAVMap@12@@Z 00599505 f i xgraphicsd:preprocessor.obj
 0005:0002e0c1       ?DoIfdef@PreProcessor@XGRAPHICS@@AAEJPBD_N@Z 00599641 f i xgraphicsd:preprocessor.obj
 0005:0002e175       ?ProcessDefineMacroBody@PreProcessor@XGRAPHICS@@AAEJAAVBuffer@2@AAPBDAAVMap@12@@Z 005996f5 f i xgraphicsd:preprocessor.obj
 0005:0002e1e1       ?OutputF@PreProcessor@XGRAPHICS@@AAAJPBDZZ 00599761 f i xgraphicsd:preprocessor.obj
 0005:0002e228       ??1Entry@Map@PreProcessor@XGRAPHICS@@QAE@XZ 005997a8 f i xgraphicsd:preprocessor.obj
 0005:0002e22d       ?Initialize@Entry@Map@PreProcessor@XGRAPHICS@@QAEJPBDK0K@Z 005997ad f i xgraphicsd:preprocessor.obj
 0005:0002e278       ?Initialize@InputBuffer@PreProcessor@XGRAPHICS@@QAEJPAUXGBuffer@@PBD@Z 005997f8 f i xgraphicsd:preprocessor.obj
 0005:0002e32a       ??1InputBuffer@PreProcessor@XGRAPHICS@@QAE@XZ 005998aa f i xgraphicsd:preprocessor.obj
 0005:0002e34d       ?GetC@InputBuffer@PreProcessor@XGRAPHICS@@QAEHXZ 005998cd f i xgraphicsd:preprocessor.obj
 0005:0002e39e       ?GuessC@InputBuffer@PreProcessor@XGRAPHICS@@QAE_ND@Z 0059991e f i xgraphicsd:preprocessor.obj
 0005:0002e3d1       ??_GEntry@Map@PreProcessor@XGRAPHICS@@QAEPAXI@Z 00599951 f i xgraphicsd:preprocessor.obj
 0005:0002e401       ?Output@PreProcessor@XGRAPHICS@@AAEJAAVBuffer@2@@Z 00599981 f i xgraphicsd:preprocessor.obj
 0005:0002e5d3       ?FilteredGetC@PreProcessor@XGRAPHICS@@AAEHXZ 00599b53 f i xgraphicsd:preprocessor.obj
 0005:0002e628       ?FilteredGuessC@PreProcessor@XGRAPHICS@@AAE_NH@Z 00599ba8 f i xgraphicsd:preprocessor.obj
 0005:0002e658       ?SkipToEndOfOneLineComment@PreProcessor@XGRAPHICS@@AAEXXZ 00599bd8 f i xgraphicsd:preprocessor.obj
 0005:0002e69b       ?Cleanup@Map@PreProcessor@XGRAPHICS@@QAEXXZ 00599c1b f i xgraphicsd:preprocessor.obj
 0005:0002e6e6       ?Initialize@Map@PreProcessor@XGRAPHICS@@QAEJK@Z 00599c66 f i xgraphicsd:preprocessor.obj
 0005:0002e74a       ?Add@Map@PreProcessor@XGRAPHICS@@QAEJPBDK0K@Z 00599cca f i xgraphicsd:preprocessor.obj
 0005:0002e7ea       ?Remove@Map@PreProcessor@XGRAPHICS@@QAEXPBDK@Z 00599d6a f i xgraphicsd:preprocessor.obj
 0005:0002e880       ?Initialize@PreProcessor@XGRAPHICS@@QAEJPBDP6GJPAXH00PADKPAPAUXGBuffer@@@Z1PAU3@3PAUXD3DXErrorLog@2@@Z 00599e00 f i xgraphicsd:preprocessor.obj
 0005:0002e948       ?DoEnumLine@PreProcessor@XGRAPHICS@@AAEJAAVBuffer@2@@Z 00599ec8 f i xgraphicsd:preprocessor.obj
 0005:0002eae0       ?DoUndef2@PreProcessor@XGRAPHICS@@AAEJPBDK@Z 0059a060 f i xgraphicsd:preprocessor.obj
 0005:0002eb00       ?FindSingleLine@PreProcessor@XGRAPHICS@@AAEJAAVBuffer@2@@Z 0059a080 f i xgraphicsd:preprocessor.obj
 0005:0002ec2d       ??1Map@PreProcessor@XGRAPHICS@@QAE@XZ 0059a1ad f i xgraphicsd:preprocessor.obj
 0005:0002ec32       ??0PreProcessor@XGRAPHICS@@QAE@XZ 0059a1b2 f i xgraphicsd:preprocessor.obj
 0005:0002ecc5       ??1PreProcessor@XGRAPHICS@@QAE@XZ 0059a245 f i xgraphicsd:preprocessor.obj
 0005:0002ed4d       ?IsLegalDefineArgList@PreProcessor@XGRAPHICS@@AAEJPBDPA_N@Z 0059a2cd f i xgraphicsd:preprocessor.obj
 0005:0002eede       ?IsLegalMacroDeclaration@PreProcessor@XGRAPHICS@@AAEJPBD0PA_N@Z 0059a45e f i xgraphicsd:preprocessor.obj
 0005:0002f139       ?DoDefine@PreProcessor@XGRAPHICS@@AAEJPBD@Z 0059a6b9 f i xgraphicsd:preprocessor.obj
 0005:0002f3a5       ?DoUndef@PreProcessor@XGRAPHICS@@AAEJPBD@Z 0059a925 f i xgraphicsd:preprocessor.obj
 0005:0002f40f       ?ExpandDefineMacroWithArgs@PreProcessor@XGRAPHICS@@AAEJAAPBDAAVBuffer@2@PBD@Z 0059a98f f i xgraphicsd:preprocessor.obj
 0005:0002f636       ?FindLine@PreProcessor@XGRAPHICS@@AAEJAAVBuffer@2@@Z 0059abb6 f i xgraphicsd:preprocessor.obj
 0005:0002f677       ??_GPreProcessor@XGRAPHICS@@QAEPAXI@Z 0059abf7 f i xgraphicsd:preprocessor.obj
 0005:0002f6a7       ?CheckForMacroDeclaration@PreProcessor@XGRAPHICS@@AAEJAAVBuffer@2@PA_N@Z 0059ac27 f i xgraphicsd:preprocessor.obj
 0005:0002f9bf       ?MacroExpand@PreProcessor@XGRAPHICS@@AAEJAAVBuffer@2@AAVMap@12@@Z 0059af3f f i xgraphicsd:preprocessor.obj
 0005:0002fcad       ?MacroExpand@PreProcessor@XGRAPHICS@@AAEJAAVBuffer@2@@Z 0059b22d f i xgraphicsd:preprocessor.obj
 0005:0002fd1d       ?CheckForMacroUse@PreProcessor@XGRAPHICS@@AAEJAAVBuffer@2@@Z 0059b29d f i xgraphicsd:preprocessor.obj
 0005:0002ff26       ?DoPragma@PreProcessor@XGRAPHICS@@AAEJPBD@Z 0059b4a6 f i xgraphicsd:preprocessor.obj
 0005:0002ff4b       ?DoInclude@PreProcessor@XGRAPHICS@@AAEJPBD@Z 0059b4cb f i xgraphicsd:preprocessor.obj
 0005:000300f5       ?DoDirective@PreProcessor@XGRAPHICS@@AAEJPBD@Z 0059b675 f i xgraphicsd:preprocessor.obj
 0005:00030505       ?DoLine@PreProcessor@XGRAPHICS@@AAEJPAD@Z 0059ba85 f i xgraphicsd:preprocessor.obj
 0005:0003074e       ?Preprocess@PreProcessor@XGRAPHICS@@QAEJXZ 0059bcce f i xgraphicsd:preprocessor.obj
 0005:000307a8       ?XGPreprocess@XGRAPHICS@@YGJPBDP6GJPAXH00PADKPAPAUXGBuffer@@@Z1PAU2@3PAUXD3DXErrorLog@1@@Z 0059bd28 f   xgraphicsd:preprocessor.obj
 0005:0003084f       ??0OptContext@XGRAPHICS@@QAE@XZ 0059bdcf f i xgraphicsd:pixelshaderoptimizer.obj
 0005:0003085b       ?OK@OptContext@XGRAPHICS@@QAE_NXZ 0059bddb f i xgraphicsd:pixelshaderoptimizer.obj
 0005:00030865       ?Verify@OptContext@XGRAPHICS@@QAEXKPBD@Z 0059bde5 f i xgraphicsd:pixelshaderoptimizer.obj
 0005:000308c9       ??0PixelShaderOptimizer@XGRAPHICS@@QAE@PBD@Z 0059be49 f i xgraphicsd:pixelshaderoptimizer.obj
 0005:000308e3       ??1PixelShaderOptimizer@XGRAPHICS@@UAE@XZ 0059be63 f i xgraphicsd:pixelshaderoptimizer.obj
 0005:000308ea       ?Optimize@PixelShaderOptimizer@XGRAPHICS@@QAEXAAVOptContext@2@@Z 0059be6a f i xgraphicsd:pixelshaderoptimizer.obj
 0005:0003091a       ??0PSODeadCodeStripper@XGRAPHICS@@QAE@XZ 0059be9a f i xgraphicsd:pixelshaderoptimizer.obj
 0005:0003092e       ?OptimizeImp@PSODeadCodeStripper@XGRAPHICS@@UAEXAAVOptContext@2@@Z 0059beae f i xgraphicsd:pixelshaderoptimizer.obj
 0005:00030c3f       ?GetCombinerInputRaw@D3DPIXELSHADERDEF_OPT@XGRAPHICS@@QBEKKKK@Z 0059c1bf f i xgraphicsd:pixelshaderoptimizer.obj
 0005:00030ca9       ?SetCombinerInputRaw@D3DPIXELSHADERDEF_OPT@XGRAPHICS@@QAEXKKKK@Z 0059c229 f i xgraphicsd:pixelshaderoptimizer.obj
 0005:00030d26       ?GetCombinerOutputRaw@D3DPIXELSHADERDEF_OPT@XGRAPHICS@@QBEKKK@Z 0059c2a6 f i xgraphicsd:pixelshaderoptimizer.obj
 0005:00030d79       ?SetCombinerOutputRegister@D3DPIXELSHADERDEF_OPT@XGRAPHICS@@QAEXKKKK@Z 0059c2f9 f i xgraphicsd:pixelshaderoptimizer.obj
 0005:00030e2b       ?GetCombinerOutputFlagsRaw@D3DPIXELSHADERDEF_OPT@XGRAPHICS@@QBEKKK@Z 0059c3ab f i xgraphicsd:pixelshaderoptimizer.obj
 0005:00030e45       ?SetCombinerOutputBlueToAlpha@D3DPIXELSHADERDEF_OPT@XGRAPHICS@@QAEXKK_N@Z 0059c3c5 f i xgraphicsd:pixelshaderoptimizer.obj
 0005:00030edb       ?SetCombinerOutputFlagsRaw@D3DPIXELSHADERDEF_OPT@XGRAPHICS@@QAEXKKK@Z 0059c45b f i xgraphicsd:pixelshaderoptimizer.obj
 0005:00030f50       ?GetCombinerInputUsedBitSet@D3DPIXELSHADERDEF_OPT@XGRAPHICS@@QAEKKK@Z 0059c4d0 f i xgraphicsd:pixelshaderoptimizer.obj
 0005:00031041       ??1PSODeadCodeStripper@XGRAPHICS@@UAE@XZ 0059c5c1 f i xgraphicsd:pixelshaderoptimizer.obj
 0005:00031048       ??0PSOPairInstructions@XGRAPHICS@@QAE@XZ 0059c5c8 f i xgraphicsd:pixelshaderoptimizer.obj
 0005:0003105c       ?OptimizeImp@PSOPairInstructions@XGRAPHICS@@UAEXAAVOptContext@2@@Z 0059c5dc f i xgraphicsd:pixelshaderoptimizer.obj
 0005:0003105f       ??1PSOPairInstructions@XGRAPHICS@@UAE@XZ 0059c5df f i xgraphicsd:pixelshaderoptimizer.obj
 0005:00031066       ??0PSORemoveEmptyStages@XGRAPHICS@@QAE@XZ 0059c5e6 f i xgraphicsd:pixelshaderoptimizer.obj
 0005:0003107a       ?OptimizeImp@PSORemoveEmptyStages@XGRAPHICS@@UAEXAAVOptContext@2@@Z 0059c5fa f i xgraphicsd:pixelshaderoptimizer.obj
 0005:00031165       ?SetNumCombinerStages@D3DPIXELSHADERDEF_OPT@XGRAPHICS@@QAEXK@Z 0059c6e5 f i xgraphicsd:pixelshaderoptimizer.obj
 0005:000311ab       ?CopyCombinerStage@D3DPIXELSHADERDEF_OPT@XGRAPHICS@@QAEXKK@Z 0059c72b f i xgraphicsd:pixelshaderoptimizer.obj
 0005:00031271       ?ClearCombinerStage@D3DPIXELSHADERDEF_OPT@XGRAPHICS@@QAEXK@Z 0059c7f1 f i xgraphicsd:pixelshaderoptimizer.obj
 0005:000312df       ??1PSORemoveEmptyStages@XGRAPHICS@@UAE@XZ 0059c85f f i xgraphicsd:pixelshaderoptimizer.obj
 0005:000312e6       ?TestValidator@XGRAPHICS@@YGXAAVOptContext@1@@Z 0059c866 f   xgraphicsd:pixelshaderoptimizer.obj
 0005:00031333       ?Initialize@OptContext@XGRAPHICS@@QAEXPAUD3DPIXELSHADERDEF_OPT@2@_N1PAUXD3DXErrorLog@2@@Z 0059c8b3 f i xgraphicsd:pixelshaderoptimizer.obj
 0005:000313cc       ??_GPixelShaderVerifier@XGRAPHICS@@QAEPAXI@Z 0059c94c f i xgraphicsd:pixelshaderoptimizer.obj
 0005:000313fc       ??_EPixelShaderOptimizer@XGRAPHICS@@UAEPAXI@Z 0059c97c f i xgraphicsd:pixelshaderoptimizer.obj
 0005:000313fc       ??_GPixelShaderOptimizer@XGRAPHICS@@UAEPAXI@Z 0059c97c f i xgraphicsd:pixelshaderoptimizer.obj
 0005:00031429       ??_EPSODeadCodeStripper@XGRAPHICS@@UAEPAXI@Z 0059c9a9 f i xgraphicsd:pixelshaderoptimizer.obj
 0005:00031429       ??_GPSODeadCodeStripper@XGRAPHICS@@UAEPAXI@Z 0059c9a9 f i xgraphicsd:pixelshaderoptimizer.obj
 0005:00031459       ??_EPSOPairInstructions@XGRAPHICS@@UAEPAXI@Z 0059c9d9 f i xgraphicsd:pixelshaderoptimizer.obj
 0005:00031459       ??_GPSOPairInstructions@XGRAPHICS@@UAEPAXI@Z 0059c9d9 f i xgraphicsd:pixelshaderoptimizer.obj
 0005:00031489       ??_GPSORemoveEmptyStages@XGRAPHICS@@UAEPAXI@Z 0059ca09 f i xgraphicsd:pixelshaderoptimizer.obj
 0005:00031489       ??_EPSORemoveEmptyStages@XGRAPHICS@@UAEPAXI@Z 0059ca09 f i xgraphicsd:pixelshaderoptimizer.obj
 0005:000314b9       ??1OptContext@XGRAPHICS@@QAE@XZ 0059ca39 f i xgraphicsd:pixelshaderoptimizer.obj
 0005:000314cb       ?Optimize@XGRAPHICS@@YGJAAUD3DPIXELSHADERDEF_OPT@1@_N1PAUXD3DXErrorLog@1@@Z 0059ca4b f   xgraphicsd:pixelshaderoptimizer.obj
 0005:000315ca       ??0DSTPARAM@XGRAPHICS@@QAE@XZ 0059cb4a f   xgraphicsd:valbase.obj
 0005:000315e9       ??0SRCPARAM@XGRAPHICS@@QAE@XZ 0059cb69 f   xgraphicsd:valbase.obj
 0005:00031618       ?SetSpewFileNameAndLineNumber@CBaseInstruction@XGRAPHICS@@QAEXPBDPBK@Z 0059cb98 f   xgraphicsd:valbase.obj
 0005:0003162f       ?GetSpewFileNameAndLineNumber@CBaseInstruction@XGRAPHICS@@QAEXPAPBDPAK@Z 0059cbaf f   xgraphicsd:valbase.obj
 0005:00031659       ??0CAccessHistoryNode@XGRAPHICS@@QAE@PAV01@00PAVCBaseInstruction@1@H@Z 0059cbd9 f   xgraphicsd:valbase.obj
 0005:000316c4       ??0CAccessHistory@XGRAPHICS@@QAE@XZ 0059cc44 f   xgraphicsd:valbase.obj
 0005:000316db       ??0CBaseShaderValidator@XGRAPHICS@@QAE@PBKPBU_D3DCAPS8@@KPAUXD3DXErrorLog@1@@Z 0059cc5b f   xgraphicsd:valbase.obj
 0005:0003177c       ?DecodeDstParam@CBaseShaderValidator@XGRAPHICS@@IAEXW4_D3DSHADER_INSTRUCTION_OPCODE_TYPE@@PAVDSTPARAM@2@K@Z 0059ccfc f   xgraphicsd:valbase.obj
 0005:000317f1       ?DecodeSrcParam@CBaseShaderValidator@XGRAPHICS@@IAEXPAVSRCPARAM@2@K@Z 0059cd71 f   xgraphicsd:valbase.obj
 0005:0003187d       ?ParseCommentForAssemblerMessages@CBaseShaderValidator@XGRAPHICS@@IAEXPBK@Z 0059cdfd f   xgraphicsd:valbase.obj
 0005:000318c9       ?MakeAffectedComponentsText@CBaseShaderValidator@XGRAPHICS@@IAEPADKHH@Z 0059ce49 f   xgraphicsd:valbase.obj
 0005:00031a9f       ??0CBaseInstruction@XGRAPHICS@@QAE@PAV01@@Z 0059d01f f   xgraphicsd:valbase.obj
 0005:00031b19       ??1CAccessHistory@XGRAPHICS@@QAE@XZ 0059d099 f   xgraphicsd:valbase.obj
 0005:00031b3a       ?NewAccess@CAccessHistory@XGRAPHICS@@QAEHPAVCBaseInstruction@2@H@Z 0059d0ba f   xgraphicsd:valbase.obj
 0005:00031bc2       ?InsertReadBeforeWrite@CAccessHistory@XGRAPHICS@@QAEHPAVCAccessHistoryNode@2@PAVCBaseInstruction@2@@Z 0059d142 f   xgraphicsd:valbase.obj
 0005:00031c9a       ??0CRegisterFile@XGRAPHICS@@QAE@IHI@Z 0059d21a f   xgraphicsd:valbase.obj
 0005:00031dc2       ??_ECAccessHistory@XGRAPHICS@@QAEPAXI@Z 0059d342 f i xgraphicsd:valbase.obj
 0005:00031e35       ??1CRegisterFile@XGRAPHICS@@QAE@XZ 0059d3b5 f   xgraphicsd:valbase.obj
 0005:00031e5a       ??1CBaseShaderValidator@XGRAPHICS@@QAE@XZ 0059d3da f   xgraphicsd:valbase.obj
 0005:00031e8f       ?Spew@CBaseShaderValidator@XGRAPHICS@@IAAXW4_SPEW_TYPE@2@PAVCBaseInstruction@2@PBDZZ 0059d40f f   xgraphicsd:valbase.obj
 0005:00031fd2       ?ValidateShader@CBaseShaderValidator@XGRAPHICS@@IAEXXZ 0059d552 f   xgraphicsd:valbase.obj
 0005:000320b6       ??0XAsmCD3DXDwStack@XGRAPHICS@@QAE@XZ 0059d636 f   xgraphicsd:cd3dxstack.obj
 0005:000320ca       ?Pop@XAsmCD3DXDwStack@XGRAPHICS@@QAEJPAK@Z 0059d64a f   xgraphicsd:cd3dxstack.obj
 0005:00032120       ?GetLastError@XAsmCD3DXDwStack@XGRAPHICS@@QAEJXZ 0059d6a0 f   xgraphicsd:cd3dxstack.obj
 0005:0003212a       ??0XAsmCD3DXSzStack@XGRAPHICS@@QAE@XZ 0059d6aa f   xgraphicsd:cd3dxstack.obj
 0005:0003213e       ?Pop@XAsmCD3DXSzStack@XGRAPHICS@@QAEJPAPAD@Z 0059d6be f   xgraphicsd:cd3dxstack.obj
 0005:00032194       ?GetLastError@XAsmCD3DXSzStack@XGRAPHICS@@QAEJXZ 0059d714 f   xgraphicsd:cd3dxstack.obj
 0005:000321d2       ??1XAsmCD3DXDwStack@XGRAPHICS@@QAE@XZ 0059d752 f   xgraphicsd:cd3dxstack.obj
 0005:000321e8       ?Push@XAsmCD3DXDwStack@XGRAPHICS@@QAEJK@Z 0059d768 f   xgraphicsd:cd3dxstack.obj
 0005:00032289       ??1XAsmCD3DXSzStack@XGRAPHICS@@QAE@XZ 0059d809 f   xgraphicsd:cd3dxstack.obj
 0005:000322d4       ?Push@XAsmCD3DXSzStack@XGRAPHICS@@QAEJPAD@Z 0059d854 f   xgraphicsd:cd3dxstack.obj
 0005:000323d9       ?NumCombinerStages@D3DPIXELSHADERDEF_OPT@XGRAPHICS@@QBEKXZ 0059d959 f i xgraphicsd:pixelshaderverifier.obj
 0005:000323e8       ?GetCombinerInputRegister@D3DPIXELSHADERDEF_OPT@XGRAPHICS@@QBEKKKK@Z 0059d968 f i xgraphicsd:pixelshaderverifier.obj
 0005:00032406       ?GetCombinerInputChannel@D3DPIXELSHADERDEF_OPT@XGRAPHICS@@QBEKKKK@Z 0059d986 f i xgraphicsd:pixelshaderverifier.obj
 0005:00032424       ?GetCombinerInputMapping@D3DPIXELSHADERDEF_OPT@XGRAPHICS@@QBEKKKK@Z 0059d9a4 f i xgraphicsd:pixelshaderverifier.obj
 0005:00032444       ?GetCombinerStageD3DConstant@D3DPIXELSHADERDEF_OPT@XGRAPHICS@@QBEKKK@Z 0059d9c4 f i xgraphicsd:pixelshaderverifier.obj
 0005:0003248d       ?GetCombinerOutputRegister@D3DPIXELSHADERDEF_OPT@XGRAPHICS@@QBEKKKK@Z 0059da0d f i xgraphicsd:pixelshaderverifier.obj
 0005:000324ea       ?GetCombinerOutputFlagsMapping@D3DPIXELSHADERDEF_OPT@XGRAPHICS@@QBEKKK@Z 0059da6a f i xgraphicsd:pixelshaderverifier.obj
 0005:0003250a       ?GetCombinerOutputBlueToAlpha@D3DPIXELSHADERDEF_OPT@XGRAPHICS@@QBEKKK@Z 0059da8a f i xgraphicsd:pixelshaderverifier.obj
 0005:0003257d       ?GetCombinerOutputMulOrDP@D3DPIXELSHADERDEF_OPT@XGRAPHICS@@QBEKKK@Z 0059dafd f i xgraphicsd:pixelshaderverifier.obj
 0005:000325e8       ?GetCombinerOutputSumOrMux@D3DPIXELSHADERDEF_OPT@XGRAPHICS@@QBEKKK@Z 0059db68 f i xgraphicsd:pixelshaderverifier.obj
 0005:00032606       ?IsFinalCombinerActive@D3DPIXELSHADERDEF_OPT@XGRAPHICS@@QBE_NXZ 0059db86 f i xgraphicsd:pixelshaderverifier.obj
 0005:00032621       ?GetFinalCombinerD3DConstant@D3DPIXELSHADERDEF_OPT@XGRAPHICS@@QBEKK@Z 0059dba1 f i xgraphicsd:pixelshaderverifier.obj
 0005:0003265a       ?IsConstantReg@XGRAPHICS@@YG_NE@Z 0059dbda f   xgraphicsd:pixelshaderverifier.obj
 0005:0003267a       ??0OpList@XGRAPHICS@@QAE@XZ 0059dbfa f i xgraphicsd:pixelshaderverifier.obj
 0005:00032686       ?FindData@OpList@XGRAPHICS@@QAE_NPAVOp@2@@Z 0059dc06 f i xgraphicsd:pixelshaderverifier.obj
 0005:000326aa       ??1OpList@XGRAPHICS@@QAE@XZ 0059dc2a f i xgraphicsd:pixelshaderverifier.obj
 0005:000326cd       ?AddRef@Op@XGRAPHICS@@QAEHXZ 0059dc4d f i xgraphicsd:pixelshaderverifier.obj
 0005:000326d2       ?NumParams@Op@XGRAPHICS@@QBEHXZ 0059dc52 f i xgraphicsd:pixelshaderverifier.obj
 0005:000326df       ??0Node@XGRAPHICS@@QAE@XZ  0059dc5f f   xgraphicsd:pixelshaderverifier.obj
 0005:000326f5       ?TinyValidate@Node@XGRAPHICS@@QAE_NXZ 0059dc75 f   xgraphicsd:pixelshaderverifier.obj
 0005:00032725       ?Copy@Op@XGRAPHICS@@QAEPAV12@XZ 0059dca5 f   xgraphicsd:pixelshaderverifier.obj
 0005:0003272a       ??0Table@XGRAPHICS@@AAE@XZ 0059dcaa f i xgraphicsd:pixelshaderverifier.obj
 0005:0003272d       ?GetNode@Table@XGRAPHICS@@QAEPAVNode@2@K@Z 0059dcad f i xgraphicsd:pixelshaderverifier.obj
 0005:0003274b       ?InterpretFinalCombiner@Table@XGRAPHICS@@QAEHPBUD3DPIXELSHADERDEF_OPT@2@@Z 0059dccb f i xgraphicsd:pixelshaderverifier.obj
 0005:00032750       ??0PixelShaderVerifierImp@XGRAPHICS@@QAE@XZ 0059dcd0 f i xgraphicsd:pixelshaderverifier.obj
 0005:000327be       ?SetData@OpList@XGRAPHICS@@QAEXPAVOp@2@@Z 0059dd3e f i xgraphicsd:pixelshaderverifier.obj
 0005:00032810       ??_GOpList@XGRAPHICS@@QAEPAXI@Z 0059dd90 f i xgraphicsd:pixelshaderverifier.obj
 0005:00032840       ?EncaseOpWithNode@Node@XGRAPHICS@@SGPAV12@PAVOp@2@@Z 0059ddc0 f   xgraphicsd:pixelshaderverifier.obj
 0005:000328a7       ?ClobberSameList@XGRAPHICS@@YG_NPAVNode@1@@Z 0059de27 f   xgraphicsd:pixelshaderverifier.obj
 0005:000328e3       ?Cleanup@Op@XGRAPHICS@@AAEXXZ 0059de63 f   xgraphicsd:pixelshaderverifier.obj
 0005:0003293b       ?Propagate2@Table@XGRAPHICS@@AAE_NP6G_NPAVNode@2@@Z0PAX@Z 0059debb f i xgraphicsd:pixelshaderverifier.obj
 0005:00032a2e       ?Propagate@Table@XGRAPHICS@@QAE_NP6G_NPAVNode@2@@Z@Z 0059dfae f i xgraphicsd:pixelshaderverifier.obj
 0005:00032a77       ?SetTableConstValuesFromShader@Table@XGRAPHICS@@QAEXPBUD3DPIXELSHADERDEF_OPT@2@@Z 0059dff7 f i xgraphicsd:pixelshaderverifier.obj
 0005:00032b63       ?Compare@XGRAPHICS@@YG_NPAVNode@1@0@Z 0059e0e3 f   xgraphicsd:pixelshaderverifier.obj
 0005:00032d9e       ?Verify@XGRAPHICS@@YG_NPAVTable@1@0PAUXD3DXErrorLog@1@@Z 0059e31e f   xgraphicsd:pixelshaderverifier.obj
 0005:00032e62       ??0PixelShaderVerifier@XGRAPHICS@@QAE@XZ 0059e3e2 f   xgraphicsd:pixelshaderverifier.obj
 0005:00032e8a       ??1Op@XGRAPHICS@@AAE@XZ    0059e40a f i xgraphicsd:pixelshaderverifier.obj
 0005:00032ed6       ??_GOp@XGRAPHICS@@AAEPAXI@Z 0059e456 f i xgraphicsd:pixelshaderverifier.obj
 0005:00032f06       ?Release@Op@XGRAPHICS@@QAEHXZ 0059e486 f i xgraphicsd:pixelshaderverifier.obj
 0005:00032f1a       ?Cleanup@Node@XGRAPHICS@@QAEXXZ 0059e49a f   xgraphicsd:pixelshaderverifier.obj
 0005:00032f44       ??1Node@XGRAPHICS@@QAE@XZ  0059e4c4 f   xgraphicsd:pixelshaderverifier.obj
 0005:00032f49       ?CopyFrom@Node@XGRAPHICS@@QAE_NPAV12@@Z 0059e4c9 f   xgraphicsd:pixelshaderverifier.obj
 0005:00032f8d       ??_GNode@XGRAPHICS@@QAEPAXI@Z 0059e50d f i xgraphicsd:pixelshaderverifier.obj
 0005:00032fbd       ?UseOp@Node@XGRAPHICS@@QAEXPAVOp@2@@Z 0059e53d f   xgraphicsd:pixelshaderverifier.obj
 0005:00032fe0       ?InitTable@Table@XGRAPHICS@@QAE_NPAVNode@2@@Z 0059e560 f i xgraphicsd:pixelshaderverifier.obj
 0005:00033068       ??_ENode@XGRAPHICS@@QAEPAXI@Z 0059e5e8 f i xgraphicsd:pixelshaderverifier.obj
 0005:000330db       ??0Op@XGRAPHICS@@AAE@XZ    0059e65b f i xgraphicsd:pixelshaderverifier.obj
 0005:00033119       ?Copy@Node@XGRAPHICS@@QAEPAV12@XZ 0059e699 f   xgraphicsd:pixelshaderverifier.obj
 0005:000331b2       ?MakeOp@Op@XGRAPHICS@@SGPAV12@W4Opcode@2@PAVNode@2@11@Z 0059e732 f   xgraphicsd:pixelshaderverifier.obj
 0005:00033276       ?MakeEmptyOp@Op@XGRAPHICS@@SGPAV12@W4Opcode@2@@Z 0059e7f6 f   xgraphicsd:pixelshaderverifier.obj
 0005:000332f5       ?Cleanup@Table@XGRAPHICS@@QAEXXZ 0059e875 f i xgraphicsd:pixelshaderverifier.obj
 0005:00033315       ?InterpretCombinerStage@Table@XGRAPHICS@@QAEHPBUD3DPIXELSHADERDEF_OPT@2@K@Z 0059e895 f i xgraphicsd:pixelshaderverifier.obj
 0005:000337fc       ??1Table@XGRAPHICS@@QAE@XZ 0059ed7c f i xgraphicsd:pixelshaderverifier.obj
 0005:00033801       ??_GTable@XGRAPHICS@@QAEPAXI@Z 0059ed81 f i xgraphicsd:pixelshaderverifier.obj
 0005:00033831       ??1PixelShaderVerifierImp@XGRAPHICS@@QAE@XZ 0059edb1 f i xgraphicsd:pixelshaderverifier.obj
 0005:00033842       ??_GPixelShaderVerifierImp@XGRAPHICS@@QAEPAXI@Z 0059edc2 f i xgraphicsd:pixelshaderverifier.obj
 0005:00033877       ?MakeTable@Table@XGRAPHICS@@SGPAV12@H@Z 0059edf7 f i xgraphicsd:pixelshaderverifier.obj
 0005:00033956       ?BuildTable@Table@XGRAPHICS@@SGJPBUD3DPIXELSHADERDEF_OPT@2@PAPAV12@@Z 0059eed6 f i xgraphicsd:pixelshaderverifier.obj
 0005:00033a92       ?Verify@XGRAPHICS@@YG_NPAVTable@1@PBUD3DPIXELSHADERDEF_OPT@1@PBD@Z 0059f012 f   xgraphicsd:pixelshaderverifier.obj
 0005:00033b69       ?Verify@XGRAPHICS@@YG_NPBUD3DPIXELSHADERDEF_OPT@1@0PAUXD3DXErrorLog@1@@Z 0059f0e9 f   xgraphicsd:pixelshaderverifier.obj
 0005:00033c37       ?SetOriginal@PixelShaderVerifierImp@XGRAPHICS@@QAEJABUD3DPIXELSHADERDEF_OPT@2@@Z 0059f1b7 f i xgraphicsd:pixelshaderverifier.obj
 0005:00033c60       ?Compare@PixelShaderVerifierImp@XGRAPHICS@@QAEJABUD3DPIXELSHADERDEF_OPT@2@AA_NPAUXD3DXErrorLog@2@@Z 0059f1e0 f i xgraphicsd:pixelshaderverifier.obj
 0005:00033cc9       ??1PixelShaderVerifier@XGRAPHICS@@QAE@XZ 0059f249 f   xgraphicsd:pixelshaderverifier.obj
 0005:00033cda       ?SetOriginal@PixelShaderVerifier@XGRAPHICS@@QAEJABUD3DPIXELSHADERDEF_OPT@2@@Z 0059f25a f   xgraphicsd:pixelshaderverifier.obj
 0005:00033ce7       ?Compare@PixelShaderVerifier@XGRAPHICS@@QAEJABUD3DPIXELSHADERDEF_OPT@2@AA_NPAUXD3DXErrorLog@2@@Z 0059f267 f   xgraphicsd:pixelshaderverifier.obj
 0005:00034f08       ??_C@_0DC@KOGBIHFF@Error?3?5Destination?5memory?5must?5b@ 005a0488     xgraphicsd:swizzler.obj
 0005:00034f44       ??_C@_0DG@PJKMOLN@16?9bit?5unswizzle?3?5Destination?5mu@ 005a04c4     xgraphicsd:swizzler.obj
 0005:00034f84       ??_C@_0DI@GNCMPFOM@16?9bit?5unswizzle?3?5Source?5memory?5@ 005a0504     xgraphicsd:swizzler.obj
 0005:00034fc8       ??_C@_0DG@CMMCFKJE@32?9bit?5unswizzle?3?5Destination?5mu@ 005a0548     xgraphicsd:swizzler.obj
 0005:00035008       ??_C@_0DI@NOAIBOAC@32?9bit?5unswizzle?3?5Source?5memory?5@ 005a0588     xgraphicsd:swizzler.obj
 0005:0003504c       ??_C@_0CN@DMLGCDMA@XBSwizzleRect?3?5pDest?5must?5be?516?9@ 005a05cc     xgraphicsd:swizzler.obj
 0005:00035088       ??_C@_0HC@CBCHCFKM@XGSwizzleRect?5?9?5The?5pitch?5of?5the@ 005a0608     xgraphicsd:swizzler.obj
 0005:00035110       ??_C@_0HN@CMHPDALD@XGSwizzleRect?5?9?5The?5swizzled?5rec@ 005a0690     xgraphicsd:swizzler.obj
 0005:000351a8       ??_C@_0DC@BNFGOJFD@XGSwizzleRect?5?9?5BytesPerPixel?5mu@ 005a0728     xgraphicsd:swizzler.obj
 0005:000351e4       ??_C@_0DM@ICJHEOPG@XGSwizzleRect?5?9?5Width?5and?5Height@ 005a0764     xgraphicsd:swizzler.obj
 0005:0003522c       ??_C@_0DF@HIEEEEAG@XGSwizzleRect?5?9?5Width?5and?5Height@ 005a07ac     xgraphicsd:swizzler.obj
 0005:0003526c       ??_C@_0DB@LDDIGOMN@XGUnswizzleRect?3?5pSource?5must?5be@ 005a07ec     xgraphicsd:swizzler.obj
 0005:000352a8       ??_C@_0HI@JGLLNFJH@XGUnwizzleRect?5?9?5The?5pitch?5of?5th@ 005a0828     xgraphicsd:swizzler.obj
 0005:00035338       ??_C@_0HJ@EBMNNNMD@XGUnwizzleRect?5?9?5The?5swizzled?5re@ 005a08b8     xgraphicsd:swizzler.obj
 0005:000353d0       ??_C@_0GK@KKALBNMH@XGSwizzleBox?5?9?5The?5slice?5pitch?5o@ 005a0950     xgraphicsd:swizzler.obj
 0005:00035450       ??_C@_0HF@JMNFJEHN@XGSwizzleBox?5?9?5The?5row?5pitch?5of?5@ 005a09d0     xgraphicsd:swizzler.obj
 0005:000354e0       ??_C@_0HM@MMFDHBGB@XGSwizzleBox?5?9?5The?5swizzled?5rect@ 005a0a60     xgraphicsd:swizzler.obj
 0005:00035578       ??_C@_0FI@EOJFHAPL@XGSwizzleBox?5?9?5either?5all?5of?5pBo@ 005a0af8     xgraphicsd:swizzler.obj
 0005:000355e8       ??_C@_0GM@GAKGHDJN@XGUnswizzleBox?5?9?5The?5slice?5pitch@ 005a0b68     xgraphicsd:swizzler.obj
 0005:00035670       ??_C@_0HH@DHGHBLFK@XGUnswizzleBox?5?9?5The?5row?5pitch?5o@ 005a0bf0     xgraphicsd:swizzler.obj
 0005:00035700       ??_C@_0HJ@LOPHFEBO@XGUnswizzleBox?5?9?5The?5swizzled?5re@ 005a0c80     xgraphicsd:swizzler.obj
 0005:00035794       ??_C@_0CK@DIJPOAAA@stall?5for?5shaders?5smaller?5than?52@ 005a0d14     xgraphicsd:api.obj
 0005:000357c8       ??_C@_0CG@GALFPJNF@18?9cycle?5stall?5for?5using?5xvsw?5or@ 005a0d48     xgraphicsd:api.obj
 0005:000357f8       ??_C@_0EK@GBGCFNHC@writing?5to?5X?5output?5registers?5ca@ 005a0d78     xgraphicsd:api.obj
 0005:00035850       ??_C@_0EC@BACPOGBN@stall?5from?5using?5a0?4x?5the?5instru@ 005a0dd0     xgraphicsd:api.obj
 0005:000358a0       ??_C@_0DK@PEIABHFL@stall?5from?5using?5a0?4x?5the?5instru@ 005a0e20     xgraphicsd:api.obj
 0005:000358e8       ??_C@_0DF@JLMFHKMJ@stall?5from?5stalling?5immediately?5@ 005a0e68     xgraphicsd:api.obj
 0005:00035928       ??_C@_0FA@KBLDFGCA@bypass?5plus?5shadow?9stall?5from?5us@ 005a0ea8     xgraphicsd:api.obj
 0005:00035988       ??_C@_0FI@MBHEAFMN@standard?5stall?5plus?5shadow?9stall@ 005a0f08     xgraphicsd:api.obj
 0005:000359f8       ??_C@_0EF@OGEOAGEB@shadow?9stall?5from?5using?5a?5regist@ 005a0f78     xgraphicsd:api.obj
 0005:00035a4c       ??_C@_0P@MPFCIFMN@standard?5stall?$AA@ 005a0fcc     xgraphicsd:api.obj
 0005:00035a60       ??_C@_0BC@MGJMOBAL@bypass?5?$CIno?5stall?$CJ?$AA@ 005a0fe0     xgraphicsd:api.obj
 0005:00035a78       ??_C@_0DG@HEIBCDLM@register?5initialization?5?$CIfirst?5t@ 005a0ff8     xgraphicsd:api.obj
 0005:00035ba0       ??_C@_0L@EMEJPEKL@VEROP_ONE?5?$AA@ 005a1120     xgraphicsd:api.obj
 0005:00035bb0       ??_C@_0L@MIEEKJMF@VEROP_ZERO?$AA@ 005a1130     xgraphicsd:api.obj
 0005:00035bc0       ??_C@_0L@BECBDIIJ@VEROP_INVL?$AA@ 005a1140     xgraphicsd:api.obj
 0005:00035bd0       ??_C@_0L@OEHAGMIO@VEROP_DSTW?$AA@ 005a1150     xgraphicsd:api.obj
 0005:00035be0       ??_C@_0L@FBNOBCMD@VEROP_DSTZ?$AA@ 005a1160     xgraphicsd:api.obj
 0005:00035bf0       ??_C@_0L@HKPDEBAA@VEROP_DSTY?$AA@ 005a1170     xgraphicsd:api.obj
 0005:00035c00       ??_C@_0L@GDOIHAEB@VEROP_DSTX?$AA@ 005a1180     xgraphicsd:api.obj
 0005:00035c10       ??_C@_0L@OLKEJALE@VEROP_LITW?$AA@ 005a1190     xgraphicsd:api.obj
 0005:00035c20       ??_C@_0L@FOAKOOPJ@VEROP_LITZ?$AA@ 005a11a0     xgraphicsd:api.obj
 0005:00035c30       ??_C@_0L@HFCHLNDK@VEROP_LITY?$AA@ 005a11b0     xgraphicsd:api.obj
 0005:00035c40       ??_C@_0L@GMDMIMHL@VEROP_LITX?$AA@ 005a11c0     xgraphicsd:api.obj
 0005:00035c50       ??_C@_0L@NAKPNCEB@VEROP_LOGW?$AA@ 005a11d0     xgraphicsd:api.obj
 0005:00035c60       ??_C@_0L@GFABKMAM@VEROP_LOGZ?$AA@ 005a11e0     xgraphicsd:api.obj
 0005:00035c70       ??_C@_0L@EOCMPPMP@VEROP_LOGY?$AA@ 005a11f0     xgraphicsd:api.obj
 0005:00035c80       ??_C@_0L@FHDHMOIO@VEROP_LOGX?$AA@ 005a1200     xgraphicsd:api.obj
 0005:00035c90       ??_C@_0L@JBIGKOD@VEROP_EXPW?$AA@ 005a1210     xgraphicsd:api.obj
 0005:00035ca0       ??_C@_0L@LMLGBEKO@VEROP_EXPZ?$AA@ 005a1220     xgraphicsd:api.obj
 0005:00035cb0       ??_C@_0L@JHJLEHGN@VEROP_EXPY?$AA@ 005a1230     xgraphicsd:api.obj
 0005:00035cc0       ??_C@_0L@IOIAHGCM@VEROP_EXPX?$AA@ 005a1240     xgraphicsd:api.obj
 0005:00035cd0       ??_C@_0L@NBLMMEH@VEROP_RSQW?$AA@ 005a1250     xgraphicsd:api.obj
 0005:00035ce0       ??_C@_0L@LILFLCAK@VEROP_RSQZ?$AA@ 005a1260     xgraphicsd:api.obj
 0005:00035cf0       ??_C@_0L@JDJIOBMJ@VEROP_RSQY?$AA@ 005a1270     xgraphicsd:api.obj
 0005:00035d00       ??_C@_0L@IKIDNAII@VEROP_RSQX?$AA@ 005a1280     xgraphicsd:api.obj
 0005:00035d10       ??_C@_0L@ECKAOMMG@VEROP_RCCW?$AA@ 005a1290     xgraphicsd:api.obj
 0005:00035d20       ??_C@_0L@PHAOJCIL@VEROP_RCCZ?$AA@ 005a12a0     xgraphicsd:api.obj
 0005:00035d30       ??_C@_0L@NMCDMBEI@VEROP_RCCY?$AA@ 005a12b0     xgraphicsd:api.obj
 0005:00035d40       ??_C@_0L@MFDIPAAJ@VEROP_RCCX?$AA@ 005a12c0     xgraphicsd:api.obj
 0005:00035d50       ??_C@_0L@FMMAPBOP@VEROP_RCPW?$AA@ 005a12d0     xgraphicsd:api.obj
 0005:00035d60       ??_C@_0L@OJGOIPKC@VEROP_RCPZ?$AA@ 005a12e0     xgraphicsd:api.obj
 0005:00035d70       ??_C@_0L@MCEDNMGB@VEROP_RCPY?$AA@ 005a12f0     xgraphicsd:api.obj
 0005:00035d80       ??_C@_0L@NLFIONCA@VEROP_RCPX?$AA@ 005a1300     xgraphicsd:api.obj
 0005:00035d90       ??_C@_0L@KPKCFMPN@VEROP_IMVW?$AA@ 005a1310     xgraphicsd:api.obj
 0005:00035da0       ??_C@_0L@BKAMCCLA@VEROP_IMVZ?$AA@ 005a1320     xgraphicsd:api.obj
 0005:00035db0       ??_C@_0L@DBCBHBHD@VEROP_IMVY?$AA@ 005a1330     xgraphicsd:api.obj
 0005:00035dc0       ??_C@_0L@CIDKEADC@VEROP_IMVX?$AA@ 005a1340     xgraphicsd:api.obj
 0005:00035dd0       ??_C@_0L@LDAGDENE@VEROP_NOPW?$AA@ 005a1350     xgraphicsd:api.obj
 0005:00035de0       ??_C@_0L@GKIEKJJ@VEROP_NOPZ?$AA@ 005a1360     xgraphicsd:api.obj
 0005:00035df0       ??_C@_0L@CNIFBJFK@VEROP_NOPY?$AA@ 005a1370     xgraphicsd:api.obj
 0005:00035e00       ??_C@_0L@DEJOCIBL@VEROP_NOPX?$AA@ 005a1380     xgraphicsd:api.obj
 0005:00035e10       ??_C@_0L@CMLKICL@VEROP_UNU2?$AA@ 005a1390     xgraphicsd:api.obj
 0005:00035e20       ??_C@_0L@CJOGPLOI@VEROP_UNU1?$AA@ 005a13a0     xgraphicsd:api.obj
 0005:00035e30       ??_C@_0L@OGGHJJGC@VEROP_ARL?5?$AA@ 005a13b0     xgraphicsd:api.obj
 0005:00035e40       ??_C@_0L@JEFBMBKC@VEROP_SGE?5?$AA@ 005a13c0     xgraphicsd:api.obj
 0005:00035e50       ??_C@_0L@FOLEIPOE@VEROP_SLT?5?$AA@ 005a13d0     xgraphicsd:api.obj
 0005:00035e60       ??_C@_0L@HKBEIHLO@VEROP_MAX?5?$AA@ 005a13e0     xgraphicsd:api.obj
 0005:00035e70       ??_C@_0L@KHALHAJD@VEROP_MIN?5?$AA@ 005a13f0     xgraphicsd:api.obj
 0005:00035e80       ??_C@_0L@IEAOIDLP@VEROP_DST?5?$AA@ 005a1400     xgraphicsd:api.obj
 0005:00035e90       ??_C@_0L@NOGMOHHB@VEROP_DP4?5?$AA@ 005a1410     xgraphicsd:api.obj
 0005:00035ea0       ??_C@_0L@IDIHHGEF@VEROP_DPH?5?$AA@ 005a1420     xgraphicsd:api.obj
 0005:00035eb0       ??_C@_0L@NLCDPBPE@VEROP_DP3?5?$AA@ 005a1430     xgraphicsd:api.obj
 0005:00035ec0       ??_C@_0L@GPCINNKK@VEROP_MAD?5?$AA@ 005a1440     xgraphicsd:api.obj
 0005:00035ed0       ??_C@_0L@JNAGMAJJ@VEROP_ADD?5?$AA@ 005a1450     xgraphicsd:api.obj
 0005:00035ee0       ??_C@_0L@LOEAEMNK@VEROP_MUL?5?$AA@ 005a1460     xgraphicsd:api.obj
 0005:00035ef0       ??_C@_0L@JAFFNNIH@VEROP_MOV?5?$AA@ 005a1470     xgraphicsd:api.obj
 0005:00035f00       ??_C@_0L@NDHINLOF@VEROP_NOP?5?$AA@ 005a1480     xgraphicsd:api.obj
 0005:00035f10       ??_C@_0BN@IGMNIAGP@OpParamCount?3?5invalid?5op?3?5?$CFd?$AA@ 005a1490     xgraphicsd:api.obj
 0005:00035f38       ??_C@_0FL@FEILOLGG@OpParamCount?3?5DST?5performs?5diffe@ 005a14b8     xgraphicsd:api.obj
 0005:00035fa8       ?kOpType@?1??MacOpType@TLEngineSim@XGRAPHICS@@QAE?AW4OpType@23@PBU_D3DVsInstruction@@@Z@4QBW4423@B 005a1528     xgraphicsd:api.obj
 0005:00035ff4       ?kOpType@?1??ILUOpType@TLEngineSim@XGRAPHICS@@QAE?AW4OpType@23@PBU_D3DVsInstruction@@@Z@4QBW4423@B 005a1574     xgraphicsd:api.obj
 0005:0003601c       ??_C@_0O@BIEHAEEM@Unexpected?5mx?$AA@ 005a159c     xgraphicsd:api.obj
 0005:0003602c       ??_C@_09KKJFEFON@pc?5?$CB?$DN?5pc2?$AA@ 005a15ac     xgraphicsd:api.obj
 0005:00036038       ?kRegOrder@?1??AssignFreeReg@Renamer@XGRAPHICS@@AAEJPAGG_N@Z@4QBEB 005a15b8     xgraphicsd:api.obj
 0005:00036048       ?kStandardPostfix@?CC@??ConvertMicrocodeToVsInstructions@Assembler@XGRAPHICS@@SGJ_NKPBXPAU_D3DVertexShaderProgram@@PAKPAUXD3DXErrorLog@3@@Z@4QBKB 005a15c8     xgraphicsd:api.obj
 0005:00036070       ??_C@_0CL@FAGJOAEE@Input?5microcode?5has?5too?5many?5ins@ 005a15f0     xgraphicsd:api.obj
 0005:000360a4       ??_C@_0CF@HCAIOEHJ@Invalid?5input?5microcode?5shader?5t@ 005a1624     xgraphicsd:api.obj
 0005:000360d0       ??_C@_0BO@OGDPFCGB@Invalid?5input?5microcode?5size?4?$AA@ 005a1650     xgraphicsd:api.obj
 0005:000360f4       ??_C@_0CM@DBBJCMHH@FRC?3?5only?5valid?5outputs?5masks?5ar@ 005a1674     xgraphicsd:api.obj
 0005:00036128       ??_C@_0CP@PGOOHGLE@No?5temporary?5register?5available?5@ 005a16a8     xgraphicsd:api.obj
 0005:00036160       ??_C@_0DF@COCKOHPF@No?5temporary?5register?5available?5@ 005a16e0     xgraphicsd:api.obj
 0005:000361a0       ??_C@_0CB@JLKJGAOP@Invalid?5instruction?5combination?4@ 005a1720     xgraphicsd:api.obj
 0005:000361c8       ??_C@_0DM@JNDLOHEI@Invalid?5instruction?5combination?4@ 005a1748     xgraphicsd:api.obj
 0005:00036210       ??_C@_0ED@NJCPJPAK@Invalid?5instruction?5combination?4@ 005a1790     xgraphicsd:api.obj
 0005:00036260       ??_C@_0DL@OPGGGCLN@Invalid?5instruction?5combination?4@ 005a17e0     xgraphicsd:api.obj
 0005:000362a8       ??_C@_0DM@HOFFDKCK@Invalid?5instruction?5combination?4@ 005a1828     xgraphicsd:api.obj
 0005:000362f0       ??_C@_0BO@LHALCCNF@Can?8t?5pair?5first?5instruction?4?$AA@ 005a1870     xgraphicsd:api.obj
 0005:00036318       ??_C@_0JN@DPGBBGAN@Xbox?8s?5LOG?5macro?5is?5no?5more?5accu@ 005a1898     xgraphicsd:api.obj
 0005:000363d8       ??_C@_0JN@DCKLJDLF@Xbox?8s?5EXP?5macro?5is?5no?5more?5accu@ 005a1958     xgraphicsd:api.obj
 0005:00036498       ??_C@_0EG@JPOLAKPB@matrix?5macro?5expands?5to?5use?5out?9@ 005a1a18     xgraphicsd:api.obj
 0005:000364ec       ??_C@_0DG@DBFIPHFJ@VerNode?3?3EncaseOpWithNode?3?5new?5V@ 005a1a6c     xgraphicsd:api.obj
 0005:0003652c       ??_C@_0BD@GFCCJNDE@Unknown?5ILU?5opcode?$AA@ 005a1aac     xgraphicsd:api.obj
 0005:00036544       ??_C@_0BD@PPNPFOPN@Unknown?5MAC?5opcode?$AA@ 005a1ac4     xgraphicsd:api.obj
 0005:0003655c       ??_C@_02JGONLBAJ@a0?$AA@   005a1adc     xgraphicsd:api.obj
 0005:00036560       ??_C@_01PAPGNFGE@c?$AA@    005a1ae0     xgraphicsd:api.obj
 0005:00036564       ??_C@_01OJONOECF@b?$AA@    005a1ae4     xgraphicsd:api.obj
 0005:00036568       ??_C@_01MCMALHOG@a?$AA@    005a1ae8     xgraphicsd:api.obj
 0005:0003656c       ??_C@_05EHKMENLG@c?$CFd?$CFs?$AA@ 005a1aec     xgraphicsd:api.obj
 0005:00036574       ??_C@_07DFCAHPML@?4?$CFc?$CFc?$CFc?$AA@ 005a1af4     xgraphicsd:api.obj
 0005:00036580       ??_C@_05CDHPHOOM@?4?$CFc?$CFc?$AA@ 005a1b00     xgraphicsd:api.obj
 0005:00036588       ?s@?1??ParseMux@InstructionDisassembler@XGRAPHICS@@AAEJDHHHHHHHPBU_D3DVsInstruction@@_N@Z@4QBDB 005a1b08     xgraphicsd:api.obj
 0005:00036590       ??_C@_01LBDDMOBJ@?$FN?$AA@ 005a1b10     xgraphicsd:api.obj
 0005:00036594       ??_C@_03JGJPCCHE@?$CL?$CFd?$AA@ 005a1b14     xgraphicsd:api.obj
 0005:00036598       ??_C@_05KJDIJICA@?$FLa0?4x?$AA@ 005a1b18     xgraphicsd:api.obj
 0005:000365a0       ?m@?1??ParseMux@InstructionDisassembler@XGRAPHICS@@AAEJDHHHHHHHPBU_D3DVsInstruction@@_N@Z@4QBDB 005a1b20     xgraphicsd:api.obj
 0005:000365a8       ??_C@_01KDCPPGHE@r?$AA@    005a1b28     xgraphicsd:api.obj
 0005:000365ac       ??_C@_0CC@BBAKJKFH@pVr?9?$DOfirst?5?$DM?$DN?5i?5?$CG?$CG?5i?5?$DM?$DN?5pVr?9?$DOlas@ 005a1b2c     xgraphicsd:api.obj
 0005:000365d4       ??_C@_04OKNJIBDB@vreg?$AA@ 005a1b54     xgraphicsd:api.obj
 0005:000365dc       ??_C@_09MOMNELD@?$CFd?3?5?$CF08x?6?$AA@ 005a1b5c     xgraphicsd:api.obj
 0005:000365e8       ??_C@_0BF@OCKNBPKJ@?$CFs?$CI?$CFd?$CJ?5?3?5?$CFs?5V?$CFd?3?5?$CFs?6?$AA@ 005a1b68     xgraphicsd:api.obj
 0005:00036604       ??_C@_07FPLKDJGL@warning?$AA@ 005a1b84     xgraphicsd:api.obj
 0005:00036610       ??_C@_0P@NMBMEFIH@Unknown?5opcode?$AA@ 005a1b90     xgraphicsd:api.obj
 0005:00036624       ??_C@_0BE@PNNENGGC@Unknown?5opcode?5?$CI?$CFd?$CJ?$AA@ 005a1ba4     xgraphicsd:api.obj
 0005:0003663c       ??_C@_0CG@KGPECPBH@VerNode?3?3Copy?3?5CopyFrom?$CIthis?$CJ?5fa@ 005a1bbc     xgraphicsd:api.obj
 0005:0003666c       ??_C@_0CJ@MLPKBFAO@VerNode?3?3Copy?3?5couldn?8t?5create?5n@ 005a1bec     xgraphicsd:api.obj
 0005:000366a0       ??_C@_04GEPNNBKI@logp?$AA@ 005a1c20     xgraphicsd:api.obj
 0005:000366a8       ??_C@_04LNEKGJAK@expp?$AA@ 005a1c28     xgraphicsd:api.obj
 0005:000366b0       ?kExpandXChannel@?7??Disassemble@InstructionDisassembler@XGRAPHICS@@AAEJPBU_D3DVsInstruction@@_N1@Z@4QB_NB 005a1c30     xgraphicsd:api.obj
 0005:000366bc       ?macArgMask@?7??Disassemble@InstructionDisassembler@XGRAPHICS@@AAEJPBU_D3DVsInstruction@@_N1@Z@4QBEB 005a1c3c     xgraphicsd:api.obj
 0005:000366d0       ?iluArgMask@?7??Disassemble@InstructionDisassembler@XGRAPHICS@@AAEJPBU_D3DVsInstruction@@_N1@Z@4QBEB 005a1c50     xgraphicsd:api.obj
 0005:000366dc       ??_C@_0CN@HOLKLG@VerTable?3?3MakeTable?3?5new?5VerNode@ 005a1c5c     xgraphicsd:api.obj
 0005:00036714       ??_C@_0CK@EHGIKAII@VerTable?3?3MakeTable?3?5new?5VerTabl@ 005a1c94     xgraphicsd:api.obj
 0005:00036748       ??_C@_0DD@IEHNLBEC@VerTable?3?3InitTable?$CI?$CFp?$CJ?3?5CopyFro@ 005a1cc8     xgraphicsd:api.obj
 0005:00036788       ??_C@_0CC@BJOFMKBK@VerConstTableList?3?3SetData?5faile@ 005a1d08     xgraphicsd:api.obj
 0005:000367b0       ??_C@_0DJ@CJJPBPMB@VerConstTableList?3?3SetData?3?5new?5@ 005a1d30     xgraphicsd:api.obj
 0005:000367f4       ??_C@_0CN@OLJBJKF@VerConstTableList?3?3SetData?3?5Init@ 005a1d74     xgraphicsd:api.obj
 0005:0003682c       ??_C@_0CO@JNDOHOIK@VerConstTableList?3?3SetData?3?5Make@ 005a1dac     xgraphicsd:api.obj
 0005:00036864       ??_C@_0BI@ODJJFHBP@?$AN?6?5?5?5?5?5?5?5?5?5?5?5?5?5?5?5?5?5?$CL?5?5?5?$AA@ 005a1de4     xgraphicsd:api.obj
 0005:00036880       ??_C@_08LCKBCEOE@?$CFs?1?1?5end?$AA@ 005a1e00     xgraphicsd:api.obj
 0005:0003688c       ??_C@_07LCGEOBC@?$CFd?3?5?$CFs?6?$AA@ 005a1e0c     xgraphicsd:api.obj
 0005:00036898       ??_C@_0CL@IGDFLBGE@VerOp?3?3MakeEmptyOp?3?5new?5VerNode?$FL@ 005a1e18     xgraphicsd:api.obj
 0005:000368cc       ??_C@_0CG@PNOKNDAJ@VerOp?3?3MakeEmptyOp?3?5new?5VerOp?5fa@ 005a1e4c     xgraphicsd:api.obj
 0005:000368fc       ??_C@_0BO@GPGGIBGM@VerOp?3?3Copy?3?5CopyFrom?5failed?$CB?$AA@ 005a1e7c     xgraphicsd:api.obj
 0005:00036920       ??_C@_0DA@BJGJDCOO@VerOp?3?3Copy?3?5MakeEmptyOp?$CI?$CFd?0?5?$CFd?$CJ@ 005a1ea0     xgraphicsd:api.obj
 0005:0003695c       ??_C@_03OFAPEBGM@?$CFs?6?$AA@ 005a1edc     xgraphicsd:api.obj
 0005:00036960       ??_C@_0CC@NJIIIGEG@VerOp?3?3MakeOpV?5?3?5CopyFrom?5failed@ 005a1ee0     xgraphicsd:api.obj
 0005:00036988       ??_C@_0CF@EMBGMCMB@VerOp?3?3MakeOpV?5?3?5MakeEmptyOp?5fai@ 005a1f08     xgraphicsd:api.obj
 0005:000369b4       ??_C@_0BP@EDPMOEOF@VerOp?3?3MakeOp?3?5MakeOpV?5failed?$CB?$AA@ 005a1f34     xgraphicsd:api.obj
 0005:000369dc       ??_C@_0DA@GLIKBMPN@CopyFrom?5to?5Write?5to?5constant?5re@ 005a1f5c     xgraphicsd:api.obj
 0005:00036a18       ??_C@_0CO@FDBAHBLD@CopyFrom?5to?5Write?5to?5output?5regi@ 005a1f98     xgraphicsd:api.obj
 0005:00036a50       ??_C@_0DK@FEFGJLOP@CopyFrom?5to?5Write?5to?5ilu?5?$CIor?5sec@ 005a1fd0     xgraphicsd:api.obj
 0005:00036a98       ??_C@_0CP@CLPBFOLN@CopyFrom?5to?5Write?5to?5primary?5reg@ 005a2018     xgraphicsd:api.obj
 0005:00036ad0       ??_C@_0CN@ENFFJJC@Interpret?3?5VerOp?3?3MakeOp?$CIVEROP_L@ 005a2050     xgraphicsd:api.obj
 0005:00036b08       ??_C@_0CN@PIMDFM@Interpret?3?5VerOp?3?3MakeOp?$CIVEROP_L@ 005a2088     xgraphicsd:api.obj
 0005:00036b40       ??_C@_0CN@BPFKJION@Interpret?3?5VerOp?3?3MakeOp?$CIVEROP_E@ 005a20c0     xgraphicsd:api.obj
 0005:00036b78       ??_C@_0CO@DKCAIBIH@Interpret?3?5VerOp?3?3MakeOp?$CIVEROP_R@ 005a20f8     xgraphicsd:api.obj
 0005:00036bb0       ??_C@_0CO@IIMJKOHK@Interpret?3?5VerOp?3?3MakeOp?$CIVEROP_R@ 005a2130     xgraphicsd:api.obj
 0005:00036be8       ??_C@_0CO@IBAEGEGO@Interpret?3?5VerOp?3?3MakeOp?$CIVEROP_R@ 005a2168     xgraphicsd:api.obj
 0005:00036c20       ??_C@_0CE@HLLPENDF@Interpret?3?5CopyFrom?0?5for?5IMV?5fai@ 005a21a0     xgraphicsd:api.obj
 0005:00036c4c       ??_C@_0CO@EFKEKING@Interpret?3?5VerOp?3?3MakeOp?$CIVEROP_N@ 005a21cc     xgraphicsd:api.obj
 0005:00036c84       ??_C@_0CF@BLHNPIGP@CopyFrom?0?5for?5ARL?5instruction?5fa@ 005a2204     xgraphicsd:api.obj
 0005:00036cb0       ??_C@_0CN@HGNEGILM@Interpret?3?5VerOp?3?3MakeOp?$CIVEROP_N@ 005a2230     xgraphicsd:api.obj
 0005:00036ce8       ??_C@_0CN@GNNBLNDH@Interpret?3?5VerOp?3?3MakeOp?$CIVEROP_S@ 005a2268     xgraphicsd:api.obj
 0005:00036d20       ??_C@_0CN@BNKFKDAH@Interpret?3?5VerOp?3?3MakeOp?$CIVEROP_S@ 005a22a0     xgraphicsd:api.obj
 0005:00036d58       ??_C@_0CN@PCKKOHBE@Interpret?3?5VerOp?3?3MakeOp?$CIVEROP_M@ 005a22d8     xgraphicsd:api.obj
 0005:00036d90       ??_C@_0CN@ELIMHMGF@Interpret?3?5VerOp?3?3MakeOp?$CIVEROP_M@ 005a2310     xgraphicsd:api.obj
 0005:00036dc8       ??_C@_0CN@LJNEIHFI@Interpret?3?5VerOp?3?3MakeOp?$CIVEROP_D@ 005a2348     xgraphicsd:api.obj
 0005:00036e00       ??_C@_0CN@PBHNGEL@Interpret?3?5VerOp?3?3MakeOp?$CIVEROP_D@ 005a2380     xgraphicsd:api.obj
 0005:00036e38       ??_C@_0CN@NPFMEBLD@Interpret?3?5VerOp?3?3MakeOp?$CIVEROP_D@ 005a23b8     xgraphicsd:api.obj
 0005:00036e70       ??_C@_0CN@GFEGAPHH@Interpret?3?5VerOp?3?3MakeOp?$CIVEROP_D@ 005a23f0     xgraphicsd:api.obj
 0005:00036ea8       ??_C@_0CN@BEHKCMFH@Interpret?3?5VerOp?3?3MakeOp?$CIVEROP_M@ 005a2428     xgraphicsd:api.obj
 0005:00036ee0       ??_C@_0CN@MMGCGFFH@Interpret?3?5VerOp?3?3MakeOp?$CIVEROP_A@ 005a2460     xgraphicsd:api.obj
 0005:00036f18       ??_C@_0CN@IJAKPNNL@Interpret?3?5VerOp?3?3MakeOp?$CIVEROP_M@ 005a2498     xgraphicsd:api.obj
 0005:00036f50       ??_C@_0CP@CMMNDNCC@Interpret?3?5CopyFrom?5for?5Mov?5inst@ 005a24d0     xgraphicsd:api.obj
 0005:00036f88       ??_C@_0DJ@ELCDDJDA@a?$FL2?$FN?$FL?$CFd?$FN?4mpArl?5is?5null?5after?5mpN@ 005a2508     xgraphicsd:api.obj
 0005:00036fcc       ??_C@_0DG@MKLKFNFB@a?$FL1?$FN?$FL?$CFd?$FN?4mpArl?5is?5null?5after?5mpN@ 005a254c     xgraphicsd:api.obj
 0005:0003700c       ??_C@_0DG@KDHGKBFM@a?$FL0?$FN?$FL?$CFd?$FN?4mpArl?5is?5null?5after?5mpN@ 005a258c     xgraphicsd:api.obj
 0005:0003704c       ??_C@_0DI@OAIFPKFG@Interpret?3?5one?5of?5the?5calls?5to?5a@ 005a25cc     xgraphicsd:api.obj
 0005:00037090       ??_C@_0BA@NODJLMGN@Unknown?5cmx?3?5?$CFd?$AA@ 005a2610     xgraphicsd:api.obj
 0005:000370a4       ??_C@_0BA@BCJDLMPD@Unknown?5bmx?3?5?$CFd?$AA@ 005a2624     xgraphicsd:api.obj
 0005:000370b8       ??_C@_0BA@JMBMLLBA@Unknown?5amx?3?5?$CFd?$AA@ 005a2638     xgraphicsd:api.obj
 0005:000370cc       ??_C@_0CC@MJEEJKJP@BreakUpMad?3?5MakeOp?5returned?5NULL@ 005a264c     xgraphicsd:api.obj
 0005:000370f4       ??_C@_0CM@PGDAEHLO@BreakUpMad?3?5EncaseOpWithNode?5ret@ 005a2674     xgraphicsd:api.obj
 0005:00037128       ??_C@_0BG@IFAHOMJJ@mad?5with?5?$CFd?5params?$DP?$DP?$DP?$AA@ 005a26a8     xgraphicsd:api.obj
 0005:00037144       ??_C@_0CI@NNNHLAAL@BuildTable?3?5Interpret?5ran?5out?5of@ 005a26c4     xgraphicsd:api.obj
 0005:00037174       ??_C@_0CE@HLHEBHOG@BuildTable?3?5pc2?9?$DOSetData?$CIpt?$CJ?5fai@ 005a26f4     xgraphicsd:api.obj
 0005:000371a0       ??_C@_0CD@KGGDHJLO@BuildTable?3?5pc?9?$DOSetData?$CIpt?$CJ?5fail@ 005a2720     xgraphicsd:api.obj
 0005:000371cc       ??_C@_0CJ@CGMHEJJB@BuildTable?3?5new?5VerConstTableLis@ 005a274c     xgraphicsd:api.obj
 0005:00037200       ??_C@_0CD@OCCNICHG@BuildTable?3?5pt?9?$DOInitTable?$CI?$CJ?5fail@ 005a2780     xgraphicsd:api.obj
 0005:0003722c       ??_C@_0CG@BIIDKKON@BuildTable?3?5pt?5?$DN?5MakeTable?$CI?$CFd?$CJ?5f@ 005a27ac     xgraphicsd:api.obj
 0005:0003725c       ??_C@_0CA@JLLIEOIB@Called?5BuildTable?5with?5NULL?5ppc?$AA@ 005a27dc     xgraphicsd:api.obj
 0005:00037284       ??_C@_0CH@DCLCDDGD@Called?5BuildTable?5with?5NULL?5ppOu@ 005a2804     xgraphicsd:api.obj
 0005:000372b4       ??_C@_0CG@FLBFNEOP@Verify?5was?5passed?5null?5table?5poi@ 005a2834     xgraphicsd:api.obj
 0005:000372e4       ??_C@_0CJ@NAJJMPEN@Temporary?5register?$FL?$CFd?$FN?$FL?$CFd?$FN?5didn?8@ 005a2864     xgraphicsd:api.obj
 0005:00037318       ??_C@_0CI@BINPEMEP@Constant?5register?$FL?$CFd?$FN?$FL?$CFd?$FN?5didn?8t@ 005a2898     xgraphicsd:api.obj
 0005:00037348       ??_C@_0CL@LDGDKBCH@Output?5register?5?$CFs?5o?$FL?$CFd?$FN?$FL?$CFd?$FN?5did@ 005a28c8     xgraphicsd:api.obj
 0005:0003737c       ??_C@_0BK@BBNGILHI@Verify?3?5BuildTable?5failed?$AA@ 005a28fc     xgraphicsd:api.obj
 0005:0003739c       ??_C@_0CB@KKLLJMGJ@It?5looks?5like?5?$CFs?5broke?5something@ 005a291c     xgraphicsd:api.obj
 0005:000373c4       ??_C@_0DG@ECKJNFEN@BuildTable?5failed?4?5pt?$FL0?$FN?3?$CFp?5t?$FL1?$FN@ 005a2944     xgraphicsd:api.obj
 0005:00037404       ??_C@_0CK@CNAACEBG@Assembler?5failed?4?5?$CIbad?5value?5in?5@ 005a2984     xgraphicsd:api.obj
 0005:00037438       ??_C@_0BH@JEFOLMJK@Final?5Stall?3?5?$CFc?5?$CF?42f?5?6?$AA@ 005a29b8     xgraphicsd:api.obj
 0005:00037454       ??_C@_09JLLMOHCK@?$CFd?3?5?$CI?$CFd?$CJ?5?$AA@ 005a29d4     xgraphicsd:api.obj
 0005:00037460       ??_C@_0P@ONCMDNHG@?$CFd?3?5?$CI?$CFc?5?$CF?42f?$CJ?5?$AA@ 005a29e0     xgraphicsd:api.obj
 0005:00037474       ??_C@_0N@FKEHIHBB@?$DL?5?9?9?9?9?9?9?9?9?9?6?$AA@ 005a29f4     xgraphicsd:api.obj
 0005:00037484       ??_C@_0BI@LHJKFIDG@?$DL?5Final?5Stall?3?5?$CFc?5?$CF?42f?6?$AA@ 005a2a04     xgraphicsd:api.obj
 0005:000374a0       ??_C@_0BD@LGDKEMMM@?$CF3d?3?5?$CI?$CFc?5?$CF?42f?$CJ?5?$CFs?6?$AA@ 005a2a20     xgraphicsd:api.obj
 0005:000374b8       ??_C@_0BP@OJHAACLJ@?$DL?5Program?5has?5?$CFd?5instructions?6?$AA@ 005a2a38     xgraphicsd:api.obj
 0005:000374e0       ??_C@_0CI@OCIOLFJI@The?5two?5shaders?5are?5of?5different@ 005a2a60     xgraphicsd:api.obj
 0005:00037510       ??_C@_0BB@OGPIDKBN@the?5V1?5optimizer?$AA@ 005a2a90     xgraphicsd:api.obj
 0005:00037524       ??_C@_0BB@JBGGOION@the?5V2?5optimizer?$AA@ 005a2aa4     xgraphicsd:api.obj
 0005:00037538       ??_C@_0CP@IDEFANIE@Couldn?8t?5create?5PreOptimizedTabl@ 005a2ab8     xgraphicsd:api.obj
 0005:00037570       ??_C@_0ED@FFKAGMFD@Read?5from?5uninitialized?5register@ 005a2af0     xgraphicsd:api.obj
 0005:000375c0       ??_C@_0EN@FKJDLOFJ@Internal?5vertex?5shader?5optimizer@ 005a2b40     xgraphicsd:api.obj
 0005:0003761c       ??_C@_0DB@BAAMIOKC@Too?5many?5microcode?5instructions?3@ 005a2b9c     xgraphicsd:api.obj
 0005:00037658       ??_C@_0CN@NCIIKOCG@?1?1?5Optimization?5saved?5?$CFd?5slots?0?5@ 005a2bd8     xgraphicsd:api.obj
 0005:00037690       ??_C@_0DB@CMBMCALJ@?1?1?5?5?5?5microcode?3?5?$CFd?5slots?0?5?$CFg?5cy@ 005a2c10     xgraphicsd:api.obj
 0005:000376cc       ??_C@_0L@CAGLCGBO@?1?1?$CFc?3?5?$CFs?$AN?6?$AA@ 005a2c4c     xgraphicsd:api.obj
 0005:000376dc       ??_C@_0BD@NAHMECA@?$AN?6?1?1Stall?5Types?3?$AN?6?$AA@ 005a2c5c     xgraphicsd:api.obj
 0005:000376f4       ??_C@_0BO@CFKFCDAN@?1?$CK?5Final?5Stall?3?5?$CFc?5?$CF?42f?5?$CK?1?5?$AN?6?$AA@ 005a2c74     xgraphicsd:api.obj
 0005:00037718       ??_C@_02PCIJFNDE@?$AN?6?$AA@ 005a2c98     xgraphicsd:api.obj
 0005:0003771c       ??_C@_0BE@PFOIHMDN@?1?$CK?5?$CF3d?5?$CFc?5?$CF?42f?5?$CK?1?5?5?$AA@ 005a2c9c     xgraphicsd:api.obj
 0005:00037734       ??_C@_0BD@LLANOCE@?1?$CK?5?$CF3d?5?5?5?5?5?5?5?5?$CK?1?5?5?$AA@ 005a2cb4     xgraphicsd:api.obj
 0005:0003774c       ??_C@_0BC@PIJBDNCA@?1?$CKslot?5stall?5?$CK?1?$AN?6?$AA@ 005a2ccc     xgraphicsd:api.obj
 0005:00037764       ??_C@_0BD@DOHLHOAG@?$CDpragma?5fragment?$AN?6?$AA@ 005a2ce4     xgraphicsd:api.obj
 0005:0003777c       ??_C@_0CA@FJKACMPH@xvsw?41?41?$AN?6?$CDpragma?5screenspace?$AN?6?$AA@ 005a2cfc     xgraphicsd:api.obj
 0005:000377a4       ??_C@_0L@FEMKICKI@xvss?41?41?$AN?6?$AA@ 005a2d24     xgraphicsd:api.obj
 0005:000377b4       ??_C@_0BP@FDNLNALG@xvs?41?41?$AN?6?$CDpragma?5screenspace?$AN?6?$AA@ 005a2d34     xgraphicsd:api.obj
 0005:000377dc       ??_C@_0BG@BICHEMOI@?1?1?5instructions?3?5?$CFd?$AN?6?$AA@ 005a2d5c     xgraphicsd:api.obj
 0005:000377f8       ?kStandardPostfix@?9??InstructionsToMicrocode@Assembler@XGRAPHICS@@AAEJ_N00KPAU_D3DVertexShaderProgram@@PAVBuffer@3@PAUXD3DXErrorLog@3@00@Z@4QBKB 005a2d78     xgraphicsd:api.obj
 0005:00037820       ?kShaderTypes@?BE@??CompileVertexShaderToUCode@Assembler@XGRAPHICS@@AAEJ_N00KPAUXGBuffer@@PAPAU4@PAVBuffer@3@PAUXD3DXErrorLog@3@00@Z@4QAY01$$CBDA 005a2da0     xgraphicsd:api.obj
 0005:00037828       ??_C@_0BB@PGBGBGMF@ppCompiledShader?$AA@ 005a2da8     xgraphicsd:api.obj
 0005:0003783c       ??_C@_0CG@BKKJGGPK@pTokenizedShader?5?$HM?$HM?5m_bInputMicr@ 005a2dbc     xgraphicsd:api.obj
 0005:0003786c       ??_C@_0BO@GBEAENJH@?1?1?5Xbox?5Shader?5Assembler?5?$CFs?$AN?6?$AA@ 005a2dec     xgraphicsd:api.obj
 0005:00037890       ??_C@_0BF@GNDCGJMA@Unknown?5shader?5type?4?$AA@ 005a2e10     xgraphicsd:api.obj
 0005:000378b0       ??_C@_0FJ@OEBFHOGH@XGSpliceVertexShaders?3?5Resulting@ 005a2e30     xgraphicsd:api.obj
 0005:00037920       ??_C@_0GJ@EIPPKNNP@XGSpliceVertexShaders?3?5pNewShade@ 005a2ea0     xgraphicsd:api.obj
 0005:000379a0       ??_C@_0FO@HKBMKLND@XGSpliceVertexShaders?3?5if?5pNewSh@ 005a2f20     xgraphicsd:api.obj
 0005:00037a10       ??_C@_0EJ@EOFIIMDJ@XGSpliceVertexShaders?3?5two?5or?5mo@ 005a2f90     xgraphicsd:api.obj
 0005:00037a68       ??_C@_0FD@MALMDMIG@XGSpliceVertexShaders?3?5Unknown?5S@ 005a2fe8     xgraphicsd:api.obj
 0005:00037ad0       ??_C@_0GJ@EJJLAEBJ@XGSpliceVertexShaders?3?5destinati@ 005a3050     xgraphicsd:api.obj
 0005:00037b50       ??_C@_0DL@CMIHIIBB@XGSpliceVertexShaders?3?5one?5of?5th@ 005a30d0     xgraphicsd:api.obj
 0005:00037b98       ??_C@_0DG@EEJOICLC@XGSpliceVertexShaders?3?5ppShaderA@ 005a3118     xgraphicsd:api.obj
 0005:00037bd8       ??_C@_0EA@HHIHJEE@XGSpliceVertexShaders?3?5Must?5prov@ 005a3158     xgraphicsd:api.obj
 0005:00037c24       ??_C@_0BM@PJNINDHP@PS_COMBINEROUTPUT_AB_CD_MUX?$AA@ 005a31a4     xgraphicsd:pixelshader.obj
 0005:00037c48       ??_C@_0BM@HOKLBFMH@PS_COMBINEROUTPUT_AB_CD_SUM?$AA@ 005a31c8     xgraphicsd:pixelshader.obj
 0005:00037c6c       ??_C@_0CB@JLJJBJLK@PS_COMBINEROUTPUT_CD_DOT_PRODUCT@ 005a31ec     xgraphicsd:pixelshader.obj
 0005:00037c94       ??_C@_0BO@MLJCLEKB@PS_COMBINEROUTPUT_CD_MULTIPLY?$AA@ 005a3214     xgraphicsd:pixelshader.obj
 0005:00037cb8       ??_C@_0CB@MLNNODJN@PS_COMBINEROUTPUT_AB_DOT_PRODUCT@ 005a3238     xgraphicsd:pixelshader.obj
 0005:00037ce0       ??_C@_0BO@MPBMOAHN@PS_COMBINEROUTPUT_AB_MULTIPLY?$AA@ 005a3260     xgraphicsd:pixelshader.obj
 0005:00037d04       ??_C@_0BP@OLBAGMPJ@PS_COMBINEROUTPUT_SHIFTRIGHT_1?$AA@ 005a3284     xgraphicsd:pixelshader.obj
 0005:00037d2c       ??_C@_0BO@PEAONKIL@PS_COMBINEROUTPUT_SHIFTLEFT_2?$AA@ 005a32ac     xgraphicsd:pixelshader.obj
 0005:00037d50       ??_C@_0CD@BNEAIEIM@PS_COMBINEROUTPUT_SHIFTLEFT_1_BI@ 005a32d0     xgraphicsd:pixelshader.obj
 0005:00037d7c       ??_C@_0BO@NPCDIJEI@PS_COMBINEROUTPUT_SHIFTLEFT_1?$AA@ 005a32fc     xgraphicsd:pixelshader.obj
 0005:00037da0       ??_C@_0BH@JGDLEMED@PS_COMBINEROUTPUT_BIAS?$AA@ 005a3320     xgraphicsd:pixelshader.obj
 0005:00037dbc       ??_C@_0BL@KMOLPKKJ@PS_COMBINEROUTPUT_IDENTITY?$AA@ 005a333c     xgraphicsd:pixelshader.obj
 0005:00037ddc       ??_C@_0BA@IJCNEKDN@PS_CHANNEL_BLUE?$AA@ 005a335c     xgraphicsd:pixelshader.obj
 0005:00037df0       ??_C@_0BB@IBBAONA@PS_CHANNEL_ALPHA?$AA@ 005a3370     xgraphicsd:pixelshader.obj
 0005:00037e04       ??_C@_0P@KBBIFEGO@PS_CHANNEL_RGB?$AA@ 005a3384     xgraphicsd:pixelshader.obj
 0005:00037e18       ??_C@_0BE@MDOADBOH@PS_REGISTER_DISCARD?$AA@ 005a3398     xgraphicsd:pixelshader.obj
 0005:00037e30       ??_C@_0BE@PPNCKEOL@PS_REGISTER_EF_PROD?$AA@ 005a33b0     xgraphicsd:pixelshader.obj
 0005:00037e48       ??_C@_0BF@NHLALFGK@PS_REGISTER_V1R0_SUM?$AA@ 005a33c8     xgraphicsd:pixelshader.obj
 0005:00037e64       ??_C@_0P@IBFDBAPO@PS_REGISTER_R1?$AA@ 005a33e4     xgraphicsd:pixelshader.obj
 0005:00037e78       ??_C@_0P@JIEICBLP@PS_REGISTER_R0?$AA@ 005a33f8     xgraphicsd:pixelshader.obj
 0005:00037e8c       ??_C@_0P@LHOIAOMO@PS_REGISTER_T3?$AA@ 005a340c     xgraphicsd:pixelshader.obj
 0005:00037ea0       ??_C@_0P@KOPDDPIP@PS_REGISTER_T2?$AA@ 005a3420     xgraphicsd:pixelshader.obj
 0005:00037eb4       ??_C@_0P@IFNOGMEM@PS_REGISTER_T1?$AA@ 005a3434     xgraphicsd:pixelshader.obj
 0005:00037ec8       ??_C@_0P@JMMFFNAN@PS_REGISTER_T0?$AA@ 005a3448     xgraphicsd:pixelshader.obj
 0005:00037edc       ??_C@_0P@IGFKLICC@PS_REGISTER_V1?$AA@ 005a345c     xgraphicsd:pixelshader.obj
 0005:00037ef0       ??_C@_0P@JPEBIJGD@PS_REGISTER_V0?$AA@ 005a3470     xgraphicsd:pixelshader.obj
 0005:00037f04       ??_C@_0BA@GEKINAFL@PS_REGISTER_FOG?$AA@ 005a3484     xgraphicsd:pixelshader.obj
 0005:00037f18       ??_C@_0P@JMLHNJLJ@PS_REGISTER_C1?$AA@ 005a3498     xgraphicsd:pixelshader.obj
 0005:00037f2c       ??_C@_0P@IFKMOIPI@PS_REGISTER_C0?$AA@ 005a34ac     xgraphicsd:pixelshader.obj
 0005:00037f40       ??_C@_0BB@FLHMIIBK@PS_REGISTER_ZERO?$AA@ 005a34c0     xgraphicsd:pixelshader.obj
 0005:00037f54       ??_C@_0BO@HGGHBKJK@PS_INPUTMAPPING_SIGNED_NEGATE?$AA@ 005a34d4     xgraphicsd:pixelshader.obj
 0005:00037f78       ??_C@_0CA@PCNEPMOP@PS_INPUTMAPPING_SIGNED_IDENTITY?$AA@ 005a34f8     xgraphicsd:pixelshader.obj
 0005:00037fa0       ??_C@_0CA@GGINABFD@PS_INPUTMAPPING_HALFBIAS_NEGATE?$AA@ 005a3520     xgraphicsd:pixelshader.obj
 0005:00037fc8       ??_C@_0CA@OOOPFPKN@PS_INPUTMAPPING_HALFBIAS_NORMAL?$AA@ 005a3548     xgraphicsd:pixelshader.obj
 0005:00037ff0       ??_C@_0BO@JCBOBJFN@PS_INPUTMAPPING_EXPAND_NEGATE?$AA@ 005a3570     xgraphicsd:pixelshader.obj
 0005:00038014       ??_C@_0BO@BKHMEHKD@PS_INPUTMAPPING_EXPAND_NORMAL?$AA@ 005a3594     xgraphicsd:pixelshader.obj
 0005:00038038       ??_C@_0CA@JADKLGHN@PS_INPUTMAPPING_UNSIGNED_INVERT?$AA@ 005a35b8     xgraphicsd:pixelshader.obj
 0005:00038060       ??_C@_0CC@DIFNPBPD@PS_INPUTMAPPING_UNSIGNED_IDENTIT@ 005a35e0     xgraphicsd:pixelshader.obj
 0005:00038088       ??_C@_0BE@FADOFHDB@PS_COMPAREMODE_Q_GE?$AA@ 005a3608     xgraphicsd:pixelshader.obj
 0005:000380a0       ??_C@_0BE@PLCJLMA@PS_COMPAREMODE_Q_LT?$AA@ 005a3620     xgraphicsd:pixelshader.obj
 0005:000380b8       ??_C@_0BE@BHJOCNOB@PS_COMPAREMODE_R_GE?$AA@ 005a3638     xgraphicsd:pixelshader.obj
 0005:000380d0       ??_C@_0BE@EIBCOBBA@PS_COMPAREMODE_R_LT?$AA@ 005a3650     xgraphicsd:pixelshader.obj
 0005:000380e8       ??_C@_0BE@JINONIEB@PS_COMPAREMODE_T_GE?$AA@ 005a3668     xgraphicsd:pixelshader.obj
 0005:00038100       ??_C@_0BE@MHFCBELA@PS_COMPAREMODE_T_LT?$AA@ 005a3680     xgraphicsd:pixelshader.obj
 0005:00038118       ??_C@_0BE@CKPOAEFB@PS_COMPAREMODE_S_GE?$AA@ 005a3698     xgraphicsd:pixelshader.obj
 0005:00038130       ??_C@_0BE@HFHCMIKA@PS_COMPAREMODE_S_LT?$AA@ 005a36b0     xgraphicsd:pixelshader.obj
 0005:00038148       ??_C@_0BO@NJOFEJJN@PS_DOTMAPPING_HILO_HEMISPHERE?$AA@ 005a36c8     xgraphicsd:pixelshader.obj
 0005:0003816c       ??_C@_0O@OMEDHCII@NOT_SUPPORTED?$AA@ 005a36ec     xgraphicsd:pixelshader.obj
 0005:0003817c       ??_C@_0BF@DEHOAJCI@PS_DOTMAPPING_HILO_1?$AA@ 005a36fc     xgraphicsd:pixelshader.obj
 0005:00038198       ??_C@_0BK@MJGKBCBC@PS_DOTMAPPING_MINUS1_TO_1?$AA@ 005a3718     xgraphicsd:pixelshader.obj
 0005:000381b8       ??_C@_0BN@HAEGALPK@PS_DOTMAPPING_MINUS1_TO_1_GL?$AA@ 005a3738     xgraphicsd:pixelshader.obj
 0005:000381dc       ??_C@_0BO@IEBFFHIL@PS_DOTMAPPING_MINUS1_TO_1_D3D?$AA@ 005a375c     xgraphicsd:pixelshader.obj
 0005:00038200       ??_C@_0BK@BDBMBNBN@PS_DOTMAPPING_ZERO_TO_ONE?$AA@ 005a3780     xgraphicsd:pixelshader.obj
 0005:00038220       ??_C@_07DNODLGKM@INVALID?$AA@ 005a37a0     xgraphicsd:pixelshader.obj
 0005:0003822c       ??_C@_0CF@GEBLHAKA@PS_TEXTUREMODES_DOT_RFLCT_SPEC_C@ 005a37ac     xgraphicsd:pixelshader.obj
 0005:00038258       ??_C@_0BL@IDIKJILC@PS_TEXTUREMODES_DOTPRODUCT?$AA@ 005a37d8     xgraphicsd:pixelshader.obj
 0005:00038278       ??_C@_0BK@NKANAKNG@PS_TEXTUREMODES_DPNDNT_GB?$AA@ 005a37f8     xgraphicsd:pixelshader.obj
 0005:00038298       ??_C@_0BK@JEECGEDF@PS_TEXTUREMODES_DPNDNT_AR?$AA@ 005a3818     xgraphicsd:pixelshader.obj
 0005:000382b8       ??_C@_0BN@MLPDJGM@PS_TEXTUREMODES_DOT_STR_CUBE?$AA@ 005a3838     xgraphicsd:pixelshader.obj
 0005:000382dc       ??_C@_0BL@LOCILLF@PS_TEXTUREMODES_DOT_STR_3D?$AA@ 005a385c     xgraphicsd:pixelshader.obj
 0005:000382fc       ??_C@_0BP@KPCOFINK@PS_TEXTUREMODES_DOT_RFLCT_SPEC?$AA@ 005a387c     xgraphicsd:pixelshader.obj
 0005:00038324       ??_C@_0BP@CPMOEBEB@PS_TEXTUREMODES_DOT_RFLCT_DIFF?$AA@ 005a38a4     xgraphicsd:pixelshader.obj
 0005:0003834c       ??_C@_0BH@MGOJENGI@PS_TEXTUREMODES_DOT_ZW?$AA@ 005a38cc     xgraphicsd:pixelshader.obj
 0005:00038368       ??_C@_0BH@OCBFCFCE@PS_TEXTUREMODES_DOT_ST?$AA@ 005a38e8     xgraphicsd:pixelshader.obj
 0005:00038384       ??_C@_0BF@GAMPPPPK@PS_TEXTUREMODES_BRDF?$AA@ 005a3904     xgraphicsd:pixelshader.obj
 0005:000383a0       ??_C@_0BP@FJADJIJJ@PS_TEXTUREMODES_BUMPENVMAP_LUM?$AA@ 005a3920     xgraphicsd:pixelshader.obj
 0005:000383c8       ??_C@_0BL@NKJAGMOH@PS_TEXTUREMODES_BUMPENVMAP?$AA@ 005a3948     xgraphicsd:pixelshader.obj
 0005:000383e8       ??_C@_0BK@HCGLCDEC@PS_TEXTUREMODES_CLIPPLANE?$AA@ 005a3968     xgraphicsd:pixelshader.obj
 0005:00038408       ??_C@_0BJ@OMDEEPLG@PS_TEXTUREMODES_PASSTHRU?$AA@ 005a3988     xgraphicsd:pixelshader.obj
 0005:00038428       ??_C@_0BI@BKMFEJKL@PS_TEXTUREMODES_CUBEMAP?$AA@ 005a39a8     xgraphicsd:pixelshader.obj
 0005:00038444       ??_C@_0BK@CMIPCDFL@PS_TEXTUREMODES_PROJECT3D?$AA@ 005a39c4     xgraphicsd:pixelshader.obj
 0005:00038464       ??_C@_0BK@CNENEJGM@PS_TEXTUREMODES_PROJECT2D?$AA@ 005a39e4     xgraphicsd:pixelshader.obj
 0005:00038484       ??_C@_0BF@CBPGELKM@PS_TEXTUREMODES_NONE?$AA@ 005a3a04     xgraphicsd:pixelshader.obj
 0005:000384a0       ??_C@_0BL@MNLHALHA@PS_COMBINERCOUNT_UNIQUE_C1?$AA@ 005a3a20     xgraphicsd:pixelshader.obj
 0005:000384c0       ??_C@_0BJ@PMCAOAEB@PS_COMBINERCOUNT_SAME_C1?$AA@ 005a3a40     xgraphicsd:pixelshader.obj
 0005:000384e0       ??_C@_0BL@NEKMDKDB@PS_COMBINERCOUNT_UNIQUE_C0?$AA@ 005a3a60     xgraphicsd:pixelshader.obj
 0005:00038500       ??_C@_0BJ@OFDLNBAA@PS_COMBINERCOUNT_SAME_C0?$AA@ 005a3a80     xgraphicsd:pixelshader.obj
 0005:00038520       ??_C@_0BJ@JNOPHBNP@PS_COMBINERCOUNT_MUX_MSB?$AA@ 005a3aa0     xgraphicsd:pixelshader.obj
 0005:00038540       ??_C@_0BJ@CFFDBGLK@PS_COMBINERCOUNT_MUX_LSB?$AA@ 005a3ac0     xgraphicsd:pixelshader.obj
 0005:00038560       ??_C@_0CJ@OGCIOFMP@More?5than?52?5constants?5used?5in?5st@ 005a3ae0     xgraphicsd:pixelshader.obj
 0005:00038594       ??_C@_0CP@LJCKJMDJ@More?5than?52?5constants?5used?5in?5fi@ 005a3b14     xgraphicsd:pixelshader.obj
 0005:000385cc       ??_C@_0CD@HHDHFMJL@Invalid?5constant?5source?5register@ 005a3b4c     xgraphicsd:pixelshader.obj
 0005:000385f8       ??_C@_0CI@KIEMAAMC@psd?4PSFinalCombinerConstants?5?$DN?50@ 005a3b78     xgraphicsd:pixelshader.obj
 0005:00038628       ??_C@_0BL@MMDCPGEM@psd?4PSC1Mapping?5?$DN?50x?$CF08x?$DL?6?$AA@ 005a3ba8     xgraphicsd:pixelshader.obj
 0005:00038648       ??_C@_0BL@KJFFMNAK@psd?4PSC0Mapping?5?$DN?50x?$CF08x?$DL?6?$AA@ 005a3bc8     xgraphicsd:pixelshader.obj
 0005:00038668       ??_C@_0CI@HFJNCECC@psd?4PSFinalCombinerConstant1?5?$DN?50@ 005a3be8     xgraphicsd:pixelshader.obj
 0005:00038698       ??_C@_0CI@KIALPNKH@psd?4PSFinalCombinerConstant0?5?$DN?50@ 005a3c18     xgraphicsd:pixelshader.obj
 0005:000386c8       ??_C@_07OBAFEHGA@?5?$HM?50?$CJ?$DL?6?$AA@ 005a3c48     xgraphicsd:pixelshader.obj
 0005:000386d4       ??_C@_0CL@KPMGKINC@?5?$HM?5PS_FINALCOMBINERSETTING_COMPL@ 005a3c54     xgraphicsd:pixelshader.obj
 0005:00038708       ??_C@_04DOPOEINB@?5?$HM?50?$AA@ 005a3c88     xgraphicsd:pixelshader.obj
 0005:00038710       ??_C@_0CJ@ODEJDNHO@?5?$HM?5PS_FINALCOMBINERSETTING_COMPL@ 005a3c90     xgraphicsd:pixelshader.obj
 0005:00038744       ??_C@_05MPGJKLED@?5?5?5?50?$AA@ 005a3cc4     xgraphicsd:pixelshader.obj
 0005:0003874c       ??_C@_0CG@LOKGKNKH@?5?5?5?5PS_FINALCOMBINERSETTING_CLAM@ 005a3ccc     xgraphicsd:pixelshader.obj
 0005:0003877c       ??_C@_0DB@HLNIGLD@psd?4PSFinalCombinerInputsEFG?$DNPS_@ 005a3cfc     xgraphicsd:pixelshader.obj
 0005:000387b8       ??_C@_0DC@DFGBICNP@psd?4PSFinalCombinerInputsABCD?$DNPS@ 005a3d38     xgraphicsd:pixelshader.obj
 0005:000387f4       ??_C@_0CO@IBGANADA@?6?1?1?9?9?9?9?9?9?9?9?9?9?9?9?9?5FinalCombiner?5?9@ 005a3d74     xgraphicsd:pixelshader.obj
 0005:0003882c       ??_C@_0BP@JMJNLDH@psd?4PSConstant1?$FL?$CFd?$FN?5?$DN?50x?$CF08x?$DL?6?$AA@ 005a3dac     xgraphicsd:pixelshader.obj
 0005:00038854       ??_C@_0BP@IOGPBAHE@psd?4PSConstant0?$FL?$CFd?$FN?5?$DN?50x?$CF08x?$DL?6?$AA@ 005a3dd4     xgraphicsd:pixelshader.obj
 0005:0003887c       ??_C@_0CM@ONHFKAMN@psd?4PSAlphaOutputs?$FL?$CFd?$FN?$DNPS_COMBIN@ 005a3dfc     xgraphicsd:pixelshader.obj
 0005:000388b0       ??_C@_03NBFACCKM@?$CJ?$DL?6?$AA@ 005a3e30     xgraphicsd:pixelshader.obj
 0005:000388b4       ??_C@_0CG@HCDEAOGC@?5?$HM?5PS_COMBINEROUTPUT_CD_BLUE_TO_@ 005a3e34     xgraphicsd:pixelshader.obj
 0005:000388e4       ??_C@_0CG@PFJJPHEB@?5?$HM?5PS_COMBINEROUTPUT_AB_BLUE_TO_@ 005a3e64     xgraphicsd:pixelshader.obj
 0005:00038914       ??_C@_0BG@LLDKIPCK@?5?5?5?5?$CFs?5?$HM?5?$CFs?5?$HM?5?$CFs?5?$HM?5?$CFs?$AA@ 005a3e94     xgraphicsd:pixelshader.obj
 0005:00038930       ??_C@_0CK@LENGGBLM@psd?4PSRGBOutputs?$FL?$CFd?$FN?$DNPS_COMBINER@ 005a3eb0     xgraphicsd:pixelshader.obj
 0005:00038964       ??_C@_0CK@DDDCMHLD@psd?4PSAlphaInputs?$FL?$CFd?$FN?$DNPS_COMBINE@ 005a3ee4     xgraphicsd:pixelshader.obj
 0005:00038998       ??_C@_0BD@FABMLNFM@?5?5?5?5?$CFs?5?$HM?5?$CFs?5?$HM?5?$CFs?0?6?$AA@ 005a3f18     xgraphicsd:pixelshader.obj
 0005:000389b0       ??_C@_0CI@BFCOOBCJ@psd?4PSRGBInputs?$FL?$CFd?$FN?$DNPS_COMBINERI@ 005a3f30     xgraphicsd:pixelshader.obj
 0005:000389e0       ??_C@_0CJ@HBANDBN@?6?1?1?9?9?9?9?9?9?9?9?9?9?9?9?9?5Stage?5?$CFd?5?9?9?9?9?9?9@ 005a3f60     xgraphicsd:pixelshader.obj
 0005:00038a14       ??_C@_0BJ@EACGJMPE@?5?5?5?5?$CFs?5?$HM?5?$CFs?5?$HM?5?$CFs?5?$HM?5?$CFs?$CJ?$DL?6?$AA@ 005a3f94     xgraphicsd:pixelshader.obj
 0005:00038a34       ??_C@_0BI@NJNELOKN@?5?5?5?5?$CFs?5?$HM?5?$CFs?5?$HM?5?$CFs?5?$HM?5?$CFs?0?6?$AA@ 005a3fb4     xgraphicsd:pixelshader.obj
 0005:00038a50       ??_C@_0CD@GOACFNFO@psd?4PSCompareMode?$DNPS_COMPAREMODE@ 005a3fd0     xgraphicsd:pixelshader.obj
 0005:00038a7c       ??_C@_07FBOIPOMB@?5?5?5?50?0?6?$AA@ 005a3ffc     xgraphicsd:pixelshader.obj
 0005:00038a88       ??_C@_0CB@HCKFEKBM@psd?4PSDotMapping?$DNPS_DOTMAPPING?$CI?6@ 005a4008     xgraphicsd:pixelshader.obj
 0005:00038ab0       ??_C@_0DC@BMOOAKPC@psd?4PSInputTexture?$DNPS_INPUTTEXTU@ 005a4030     xgraphicsd:pixelshader.obj
 0005:00038aec       ??_C@_09BOKEBOF@?5?5?5?5?$CFs?$CJ?$DL?6?$AA@ 005a406c     xgraphicsd:pixelshader.obj
 0005:00038af8       ??_C@_08BBHDMPAG@?5?5?5?5?$CFs?0?6?$AA@ 005a4078     xgraphicsd:pixelshader.obj
 0005:00038b04       ??_C@_0CF@NCGNIIAM@psd?4PSTextureModes?$DNPS_TEXTUREMOD@ 005a4084     xgraphicsd:pixelshader.obj
 0005:00038b30       ??_C@_0BE@IKBFJGHN@?5?5?5?5?$CFs?5?$HM?5?$CFs?5?$HM?5?$CFs?$CJ?$DL?6?$AA@ 005a40b0     xgraphicsd:pixelshader.obj
 0005:00038b48       ??_C@_08NMLNKACA@?5?5?5?5?$CFd?0?6?$AA@ 005a40c8     xgraphicsd:pixelshader.obj
 0005:00038b54       ??_C@_0CH@FGJIHAMD@psd?4PSCombinerCount?$DNPS_COMBINERC@ 005a40d4     xgraphicsd:pixelshader.obj
 0005:00038b84       ??_C@_0CA@MMDDBNKG@ZeroMemory?$CI?$CGpsd?0?5sizeof?$CIpsd?$CJ?$CJ?$DL?6?$AA@ 005a4104     xgraphicsd:pixelshader.obj
 0005:00038bac       ??_C@_0BI@HOFHBCKH@D3DPIXELSHADERDEF?5psd?$DL?6?$AA@ 005a412c     xgraphicsd:pixelshader.obj
 0005:00038bc8       ??_C@_0CH@HGCOOEPH@Invalid?5texture?5destination?5regi@ 005a4148     xgraphicsd:pixelshader.obj
 0005:00038bf8       ??_C@_0BL@LEBBICPN@Unrecognized?5Instruction?4?6?$AA@ 005a4178     xgraphicsd:pixelshader.obj
 0005:00038c18       ??_C@_0EB@MLBDOKOH@One?5or?5more?5components?5of?5a?5pixe@ 005a4198     xgraphicsd:pixelshader.obj
 0005:00038c68       ??_C@_0CB@EFKJBBKA@Unable?5to?5create?5output?5buffer?4?6@ 005a41e8     xgraphicsd:pixelshader.obj
 0005:00038ef8       ??_C@_0BD@HPFELLEJ@Assert?5failed?3?5?$CFs?6?$AA@ 005a4478     xgraphicsd:pixelshaderopt.obj
 0005:00038f10       ??_C@_05MPMHHKEC@i?5?$DM?52?$AA@ 005a4490     xgraphicsd:pixelshaderopt.obj
 0005:00038f18       ??_C@_0CK@PEJNAJML@More?5than?52?5constants?5used?5in?5st@ 005a4498     xgraphicsd:pixelshaderopt.obj
 0005:00038f4c       ??_C@_0DA@KABMFMJL@More?5than?52?5constants?5used?5in?5fi@ 005a44cc     xgraphicsd:pixelshaderopt.obj
 0005:00038f88       ??_C@_0CE@JIAKIDJP@Invalid?5constant?5source?5register@ 005a4508     xgraphicsd:pixelshaderopt.obj
 0005:00038fb4       ??_C@_0CJ@IKGCBBJD@psd?4PSFinalCombinerConstants?5?$DN?50@ 005a4534     xgraphicsd:pixelshaderopt.obj
 0005:00038fe8       ??_C@_0BM@IAAGMBEC@psd?4PSC1Mapping?5?$DN?50x?$CF08x?$DL?$AN?6?$AA@ 005a4568     xgraphicsd:pixelshaderopt.obj
 0005:0003900c       ??_C@_0BM@BPNMECNM@psd?4PSC0Mapping?5?$DN?50x?$CF08x?$DL?$AN?6?$AA@ 005a458c     xgraphicsd:pixelshaderopt.obj
 0005:00039030       ??_C@_0CJ@CKLFCCMP@psd?4PSFinalCombinerConstant1?5?$DN?50@ 005a45b0     xgraphicsd:pixelshaderopt.obj
 0005:00039064       ??_C@_0CJ@LHLKMDLJ@psd?4PSFinalCombinerConstant0?5?$DN?50@ 005a45e4     xgraphicsd:pixelshaderopt.obj
 0005:00039098       ??_C@_08LCPDJKBA@?5?$HM?50?$CJ?$DL?$AN?6?$AA@ 005a4618     xgraphicsd:pixelshaderopt.obj
 0005:000390a4       ??_C@_0DC@KNMPKBLP@psd?4PSFinalCombinerInputsEFG?$DNPS_@ 005a4624     xgraphicsd:pixelshaderopt.obj
 0005:000390e0       ??_C@_0DD@OJPJFAMI@psd?4PSFinalCombinerInputsABCD?$DNPS@ 005a4660     xgraphicsd:pixelshaderopt.obj
 0005:00039120       ??_C@_0DA@DDCBIJJO@?$AN?6?1?1?9?9?9?9?9?9?9?9?9?9?9?9?9?5FinalCombiner?5@ 005a46a0     xgraphicsd:pixelshaderopt.obj
 0005:0003915c       ??_C@_0CA@EHBEJCNL@psd?4PSConstant1?$FL?$CFd?$FN?5?$DN?50x?$CF08x?$DL?$AN?6?$AA@ 005a46dc     xgraphicsd:pixelshaderopt.obj
 0005:00039184       ??_C@_0CA@KIEGCEDK@psd?4PSConstant0?$FL?$CFd?$FN?5?$DN?50x?$CF08x?$DL?$AN?6?$AA@ 005a4704     xgraphicsd:pixelshaderopt.obj
 0005:000391ac       ??_C@_0CN@BKJIDFKC@psd?4PSAlphaOutputs?$FL?$CFd?$FN?$DNPS_COMBIN@ 005a472c     xgraphicsd:pixelshaderopt.obj
 0005:000391e4       ??_C@_04CABBEBOO@?$CJ?$DL?$AN?6?$AA@ 005a4764     xgraphicsd:pixelshaderopt.obj
 0005:000391ec       ??_C@_0CL@DNMDNHMJ@psd?4PSRGBOutputs?$FL?$CFd?$FN?$DNPS_COMBINER@ 005a476c     xgraphicsd:pixelshaderopt.obj
 0005:00039220       ??_C@_0CL@KNPLCOPO@psd?4PSAlphaInputs?$FL?$CFd?$FN?$DNPS_COMBINE@ 005a47a0     xgraphicsd:pixelshaderopt.obj
 0005:00039254       ??_C@_0BE@JNCNPPGN@?5?5?5?5?$CFs?5?$HM?5?$CFs?5?$HM?5?$CFs?0?$AN?6?$AA@ 005a47d4     xgraphicsd:pixelshaderopt.obj
 0005:0003926c       ??_C@_0CJ@LNAHEIIC@psd?4PSRGBInputs?$FL?$CFd?$FN?$DNPS_COMBINERI@ 005a47ec     xgraphicsd:pixelshaderopt.obj
 0005:000392a0       ??_C@_0CL@FFGGJHIC@?$AN?6?1?1?9?9?9?9?9?9?9?9?9?9?9?9?9?5Stage?5?$CFd?5?9?9?9?9?9@ 005a4820     xgraphicsd:pixelshaderopt.obj
 0005:000392d4       ??_C@_0BK@EFDAOOJG@?5?5?5?5?$CFs?5?$HM?5?$CFs?5?$HM?5?$CFs?5?$HM?5?$CFs?$CJ?$DL?$AN?6?$AA@ 005a4854     xgraphicsd:pixelshaderopt.obj
 0005:000392f4       ??_C@_0BJ@FHBOPFOE@?5?5?5?5?$CFs?5?$HM?5?$CFs?5?$HM?5?$CFs?5?$HM?5?$CFs?0?$AN?6?$AA@ 005a4874     xgraphicsd:pixelshaderopt.obj
 0005:00039314       ??_C@_0CE@HDBNIAKB@psd?4PSCompareMode?$DNPS_COMPAREMODE@ 005a4894     xgraphicsd:pixelshaderopt.obj
 0005:00039340       ??_C@_08BDJCOENH@?5?5?5?50?0?$AN?6?$AA@ 005a48c0     xgraphicsd:pixelshaderopt.obj
 0005:0003934c       ??_C@_0CC@OLNDAHAK@psd?4PSDotMapping?$DNPS_DOTMAPPING?$CI?$AN@ 005a48cc     xgraphicsd:pixelshaderopt.obj
 0005:00039374       ??_C@_0DD@KMAPIDDF@psd?4PSInputTexture?$DNPS_INPUTTEXTU@ 005a48f4     xgraphicsd:pixelshaderopt.obj
 0005:000393b4       ??_C@_0L@CPMBACLJ@?5?5?5?5?$CFs?$CJ?$DL?$AN?6?$AA@ 005a4934     xgraphicsd:pixelshaderopt.obj
 0005:000393c4       ??_C@_09BGNCCIPF@?5?5?5?5?$CFs?0?$AN?6?$AA@ 005a4944     xgraphicsd:pixelshaderopt.obj
 0005:000393d0       ??_C@_0CG@PGMENPKM@psd?4PSTextureModes?$DNPS_TEXTUREMOD@ 005a4950     xgraphicsd:pixelshaderopt.obj
 0005:00039400       ??_C@_0BF@NBJOOGBI@?5?5?5?5?$CFs?5?$HM?5?$CFs?5?$HM?5?$CFs?$CJ?$DL?$AN?6?$AA@ 005a4980     xgraphicsd:pixelshaderopt.obj
 0005:0003941c       ??_C@_09MEBCGDGH@?5?5?5?5?$CFd?0?$AN?6?$AA@ 005a499c     xgraphicsd:pixelshaderopt.obj
 0005:00039428       ??_C@_0CI@PNJLPFHF@psd?4PSCombinerCount?$DNPS_COMBINERC@ 005a49a8     xgraphicsd:pixelshaderopt.obj
 0005:00039458       ??_C@_0CB@MANJMLMP@ZeroMemory?$CI?$CGpsd?0?5sizeof?$CIpsd?$CJ?$CJ?$DL?$AN?6@ 005a49d8     xgraphicsd:pixelshaderopt.obj
 0005:00039480       ??_C@_0BJ@LHGMJPFG@D3DPIXELSHADERDEF?5psd?$DL?$AN?6?$AA@ 005a4a00     xgraphicsd:pixelshaderopt.obj
 0005:000394a0       ??_C@_0BI@DONPOBOO@?1?1?5Optimized?5shader?$AN?6?$AN?6?$AA@ 005a4a20     xgraphicsd:pixelshaderopt.obj
 0005:000394bc       ??_C@_0CI@NMAPLHFE@Invalid?5texture?5destination?5regi@ 005a4a3c     xgraphicsd:pixelshaderopt.obj
 0005:000394ec       ??_C@_0BM@DMBIGBCM@Unrecognized?5Instruction?4?$AN?6?$AA@ 005a4a6c     xgraphicsd:pixelshaderopt.obj
 0005:00039510       ??_C@_0EC@MBAFJKDO@One?5or?5more?5components?5of?5a?5pixe@ 005a4a90     xgraphicsd:pixelshaderopt.obj
 0005:00039560       ??_C@_0EO@DDBFLLPH@Input?5Pixel?5Shader?5Microcode?5was@ 005a4ae0     xgraphicsd:pixelshaderopt.obj
 0005:000395c0       ??_C@_0CI@JLCNOOJP@Unable?5to?5create?5intermediate?5bu@ 005a4b40     xgraphicsd:pixelshaderopt.obj
 0005:000395f0       ??_C@_0CC@CJDDPEPG@Unable?5to?5create?5output?5buffer?4?$AN@ 005a4b70     xgraphicsd:pixelshaderopt.obj
 0005:00039630       ??_C@_0GN@DEKJJLAG@Version?5Token?3?5Code?5and?5declarat@ 005a4bb0     xgraphicsd:vshdrval.obj
 0005:000396b4       ??_C@_0DD@EHPNAHCE@Xbox?5specific?5instruction?0?5but?5n@ 005a4c34     xgraphicsd:vshdrval.obj
 0005:000396f4       ??_C@_0DN@MNNAKFPO@Unrecognized?5instruction?4?5Aborti@ 005a4c74     xgraphicsd:vshdrval.obj
 0005:00039740       ??_C@_0DF@HKOCKIEJ@Instruction?5not?5supported?5by?5non@ 005a4cc0     xgraphicsd:vshdrval.obj
 0005:00039780       ??_C@_0DK@MMGHGPMF@Instruction?5not?5supported?5by?5ver@ 005a4d00     xgraphicsd:vshdrval.obj
 0005:000397c8       ??_C@_0BJ@GGJELMAP@Invalid?5parameter?5count?4?$AA@ 005a4d48     xgraphicsd:vshdrval.obj
 0005:000397e8       ??_C@_0O@NALGGDJF@Out?5of?5memory?$AA@ 005a4d68     xgraphicsd:vshdrval.obj
 0005:000397f8       ??_C@_0DB@DFEJCKDK@Read?5of?5uninitialized?5component?$CF@ 005a4d78     xgraphicsd:vshdrval.obj
 0005:00039834       ??_C@_01LKDEMHDF@s?$AA@    005a4db4     xgraphicsd:vshdrval.obj
 0005:00039838       ??_C@_01MHEDDDHA@v?$AA@    005a4db8     xgraphicsd:vshdrval.obj
 0005:0003983c       ??_C@_0BL@LCEAELCC@Read?5of?5uninitialized?5A0?4x?$AA@ 005a4dbc     xgraphicsd:vshdrval.obj
 0005:00039860       ??_C@_0EG@KCICJHCH@Only?5the?5mov?5instruction?5is?5allo@ 005a4de0     xgraphicsd:vshdrval.obj
 0005:000398b4       ??_C@_0CK@FDCFOPKA@Format?5for?5address?5register?5must@ 005a4e34     xgraphicsd:vshdrval.obj
 0005:000398e8       ??_C@_0FH@PDDIIPKM@Address?5register?5not?5available?5f@ 005a4e68     xgraphicsd:vshdrval.obj
 0005:00039950       ??_C@_0ED@EKGBEGAN@The?5only?5valid?5write?5masks?5for?5t@ 005a4ed0     xgraphicsd:vshdrval.obj
 0005:000399a0       ??_C@_0ED@HOIJLCKB@Number?5of?5instruction?5slots?5used@ 005a4f20     xgraphicsd:vshdrval.obj
 0005:000399f0       ??_C@_0DF@LKCIKIGB@Vertex?5shader?5must?5contain?5at?5le@ 005a4f70     xgraphicsd:vshdrval.obj
 0005:00039a30       ??_C@_09KDBGKILB@pDstParam?$AA@ 005a4fb0     xgraphicsd:vshdrval.obj
 0005:00039a3c       ??_C@_09FGECFNH@pSrcParam?$AA@ 005a4fbc     xgraphicsd:vshdrval.obj
 0005:00039a48       ??_C@_0HC@MHIIJPCA@Declaration?5Token?5?$CD?$CFd?3?5Input?5reg@ 005a4fc8     xgraphicsd:vshdrval.obj
 0005:00039ad0       ??_C@_0FM@POBCFDCL@Declaration?5Token?5?$CFd?3?5Source?5inp@ 005a5050     xgraphicsd:vshdrval.obj
 0005:00039b40       ??_C@_0GI@IKHHCNBK@Declaration?5Token?5?$CD?$CFd?3?5Tesselati@ 005a50c0     xgraphicsd:vshdrval.obj
 0005:00039bc0       ??_C@_0GG@IIAOCAGA@Declaration?5Token?5?$CD?$CFd?3?5Stream?5nu@ 005a5140     xgraphicsd:vshdrval.obj
 0005:00039c40       ??_C@_0HM@LPMGBFA@Declaration?5Token?5?$CD?$CFd?3?5Stream?5nu@ 005a51c0     xgraphicsd:vshdrval.obj
 0005:00039cd8       ??_C@_0HC@GCPCGEE@Declaration?5Token?5?$CD?$CFd?3?5Cannot?5se@ 005a5258     xgraphicsd:vshdrval.obj
 0005:00039d60       ??_C@_0II@BHDFJBOE@Declaration?5Token?5?$CD?$CFd?3?5Cannot?5se@ 005a52e0     xgraphicsd:vshdrval.obj
 0005:00039e08       ??_C@_0GB@BBBMGLNL@Declaration?5Token?5?$CD?$CFd?3?5Unrecogni@ 005a5388     xgraphicsd:vshdrval.obj
 0005:00039e80       ??_C@_0FC@PODBLMO@Declaration?5Token?5?$CD?$CFd?3?5Stream?5nu@ 005a5400     xgraphicsd:vshdrval.obj
 0005:00039ee8       ??_C@_0GP@FBPKLFPE@Declaration?5Token?5?$CD?$CFd?3?5Stream?5nu@ 005a5468     xgraphicsd:vshdrval.obj
 0005:00039f70       ??_C@_0DG@GCEJCHJB@Declaration?5Token?5?$CD?$CFd?3?5Unrecogni@ 005a54f0     xgraphicsd:vshdrval.obj
 0005:00039fb0       ??_C@_0DP@HFHDACKB@Declaration?5Token?5?$CD?$CFd?3?5Invalid?5r@ 005a5530     xgraphicsd:vshdrval.obj
 0005:0003a000       ??_C@_0EK@ENMAIEKL@Declaration?5Token?5?$CD?$CFd?3?5SKIP?5not?5@ 005a5580     xgraphicsd:vshdrval.obj
 0005:0003a058       ??_C@_0DL@LMOIDMHH@Declaration?5Token?5?$CD?$CFd?3?5Input?5reg@ 005a55d8     xgraphicsd:vshdrval.obj
 0005:0003a0a0       ??_C@_0GI@PDFELBDJ@Declaration?5Token?5?$CD?$CFd?3?5Input?5reg@ 005a5620     xgraphicsd:vshdrval.obj
 0005:0003a120       ??_C@_0EH@ONPOFGAO@Declaration?5Token?5?$CD?$CFd?3?5Tess?5data@ 005a56a0     xgraphicsd:vshdrval.obj
 0005:0003a178       ??_C@_0GI@DDOOLGFM@Declaration?5Token?5?$CD?$CFd?3?5Duplicate@ 005a56f8     xgraphicsd:vshdrval.obj
 0005:0003a1f8       ??_C@_0EF@NDPDCGNE@Declaration?5Token?5?$CD?$CFd?3?5Invalid?5i@ 005a5778     xgraphicsd:vshdrval.obj
 0005:0003a250       ??_C@_0FG@CPEKLDOP@Declaration?5Token?5?$CD?$CFd?3?5Write?5to?5@ 005a57d0     xgraphicsd:vshdrval.obj
 0005:0003a2b8       ??_C@_0GM@CDCGEIKB@Declaration?5Token?5?$CD?$CFd?3?5Write?5to?5@ 005a5838     xgraphicsd:vshdrval.obj
 0005:0003a33c       ??_C@_0BB@ENBBKDCJ@NumConstRegs?5?$DO?50?$AA@ 005a58bc     xgraphicsd:vshdrval.obj
 0005:0003a350       ??_C@_0GM@DPOJBGNB@Declaration?5Token?5?$CD?$CFd?3?5Stream?5se@ 005a58d0     xgraphicsd:vshdrval.obj
 0005:0003a3d4       ??_C@_0CD@ODGHPMDN@m_pConstRegFile?5?$CG?$CG?5m_pInputRegFi@ 005a5954     xgraphicsd:vshdrval.obj
 0005:0003a400       ??_C@_0DC@JCADEDAL@Out?5of?5memory?4?5?5Aborting?5shader?5@ 005a5980     xgraphicsd:vshdrval.obj
 0005:0003a43c       ??_C@_0BA@LIOBFFOA@m_pInputRegFile?$AA@ 005a59bc     xgraphicsd:vshdrval.obj
 0005:0003a450       ??_C@_0CO@JPFHCNLD@Cannot?5swizzle?5on?5vector?$CKmatrix?5@ 005a59d0     xgraphicsd:vshdrval.obj
 0005:0003a488       ??_C@_0ED@EMGFEIFP@Relative?5addressing?5of?5constant?5@ 005a5a08     xgraphicsd:vshdrval.obj
 0005:0003a4d8       ??_C@_0DB@NJKHEJJH@Address?5mode?5must?5be?5absolute?5?$CI?$CF@ 005a5a58     xgraphicsd:vshdrval.obj
 0005:0003a514       ??_C@_0CF@MPHJKLJL@Invalid?5src?5mod?5for?5?$CFs?5source?5pa@ 005a5a94     xgraphicsd:vshdrval.obj
 0005:0003a540       ??_C@_0EK@IBJHPEAH@Invalid?5reg?5num?3?5?$CFd?5for?5?$CFs?5sourc@ 005a5ac0     xgraphicsd:vshdrval.obj
 0005:0003a598       ??_C@_0DH@FODHBDPJ@Invalid?5reg?5num?3?5for?5?$CFs?5source?5p@ 005a5b18     xgraphicsd:vshdrval.obj
 0005:0003a5e0       ??_C@_0EO@JAGACPDJ@Invalid?5reg?5num?3?5?$CFd?5for?5?$CFs?5sourc@ 005a5b60     xgraphicsd:vshdrval.obj
 0005:0003a640       ??_C@_0CG@MGBPAKIC@Invalid?5reg?5type?5for?5?$CFs?5source?5p@ 005a5bc0     xgraphicsd:vshdrval.obj
 0005:0003a670       ??_C@_05NGNMELAD@i?5?$DM?53?$AA@ 005a5bf0     xgraphicsd:vshdrval.obj
 0005:0003a678       ??_C@_05GHAGIHBD@third?$AA@ 005a5bf8     xgraphicsd:vshdrval.obj
 0005:0003a680       ??_C@_06BJCFNGJP@second?$AA@ 005a5c00     xgraphicsd:vshdrval.obj
 0005:0003a688       ??_C@_05NIGAKFML@first?$AA@ 005a5c08     xgraphicsd:vshdrval.obj
 0005:0003a690       ??_C@_0CD@LAJIPLB@m_pTempRegFile?9?$DOGetNumRegs?$CI?$CJ?5?$DO?$DN?5@ 005a5c10     xgraphicsd:vshdrval.obj
 0005:0003a6bc       ??_C@_0CB@NMNGPHDP@Dest?5write?5mask?5cannot?5be?5empty?4@ 005a5c3c     xgraphicsd:vshdrval.obj
 0005:0003a6e4       ??_C@_0CM@HIJJDGLC@Dest?5shifts?5not?5allowed?5for?5vert@ 005a5c64     xgraphicsd:vshdrval.obj
 0005:0003a718       ??_C@_0CO@NBFLPKDL@Dst?5modifiers?5not?5allowed?5for?5ve@ 005a5c98     xgraphicsd:vshdrval.obj
 0005:0003a750       ??_C@_0CB@KBHPDCFI@Invalid?5reg?5type?5for?5dest?5param?4@ 005a5cd0     xgraphicsd:vshdrval.obj
 0005:0003a778       ??_C@_0DP@HKICLMLO@Invalid?5dest?5reg?5num?3?5?$CFd?4?5Max?5al@ 005a5cf8     xgraphicsd:vshdrval.obj
 0005:0003a7c8       ??_C@_0EB@NLMOBAFN@Invalid?5dest?5reg?5num?4?5Allowed?5ra@ 005a5d48     xgraphicsd:vshdrval.obj
 0005:0003a818       ??_C@_0FF@JCLCEIDF@Constant?5registers?5?$CIc?$CD?$CJ?5read?5?$CFd?5@ 005a5d98     xgraphicsd:vshdrval.obj
 0005:0003a880       ??_C@_0FC@LHOICGNB@Input?5registers?5?$CIv?$CD?$CJ?5read?5?$CFd?5tim@ 005a5e00     xgraphicsd:vshdrval.obj
 0005:0003a8e8       ??_C@_0FF@NDFNOGJG@Temp?5registers?5?$CIr?$CD?$CJ?5read?5?$CFd?5time@ 005a5e68     xgraphicsd:vshdrval.obj
 0005:0003a950       ??_C@_0FH@DLOJFNBD@Vertex?5shader?5must?5minimally?5wri@ 005a5ed0     xgraphicsd:vshdrval.obj
 0005:0003a9b8       ??_C@_0HE@BHLFAFIH@Vertex?5shader?5must?5minimally?5wri@ 005a5f38     xgraphicsd:vshdrval.obj
 0005:0003aa48       ??_C@_0EK@GJGCPNFO@A?5valid?5vertex?5state?5shader?5must@ 005a5fc8     xgraphicsd:vshdrval.obj
 0005:0003aaa0       ??_C@_0GC@HGDGLCON@Version?5Token?3?5?$CFd?4?$CFd?5is?5not?5a?5su@ 005a6020     xgraphicsd:vshdrval.obj
 0005:0003ab18       ??_C@_0P@ILLCNIIE@Out?5of?5memory?4?$AA@ 005a6098     xgraphicsd:vshdrval.obj
 0005:0003ab30       ??_C@_0GL@MBPPEFIO@Version?5token?3?50x?$CFx?5indicates?5a?5@ 005a60b0     xgraphicsd:vshdrval.obj
 0005:0003abb0       ??_C@_0HP@HJKGHMAF@Version?5Token?3?50x?$CFx?5is?5invalid?4?5@ 005a6130     xgraphicsd:vshdrval.obj
 0005:0003ac48       ??_C@_0ID@OOMLFCDP@Version?5Token?3?5Vertex?5shader?5ver@ 005a61c8     xgraphicsd:vshdrval.obj
 0005:0003acfc       ??_C@_0M@ICJEOFAB@m_pCurrInst?$AA@ 005a627c     xgraphicsd:pshdrval.obj
 0005:0003ad0c       ??_C@_0DM@HBCJMPMK@Unrecognized?5instruction?4?5Aborti@ 005a628c     xgraphicsd:pshdrval.obj
 0005:0003ad54       ??_C@_0DJ@IDCCLGJJ@Instruction?5not?5supported?5by?5ver@ 005a62d4     xgraphicsd:pshdrval.obj
 0005:0003ad98       ??_C@_0HM@PEFCHJHB@Texture?5register?5result?5of?5TEXKI@ 005a6318     xgraphicsd:pshdrval.obj
 0005:0003ae2c       ??_C@_01PFHFFBPC@t?$AA@    005a63ac     xgraphicsd:pshdrval.obj
 0005:0003ae30       ??_C@_0BL@BIOJMPLF@Tex?5ops?5after?5non?9tex?5ops?4?$AA@ 005a63b0     xgraphicsd:pshdrval.obj
 0005:0003ae50       ??_C@_0BI@JFGBFNNG@Invalid?5TEXM?$CK?5sequence?4?$AA@ 005a63d0     xgraphicsd:pshdrval.obj
 0005:0003ae6c       ??_C@_0BL@OMMIFGJG@Incomplete?5TEXM?$CK?5sequence?4?$AA@ 005a63ec     xgraphicsd:pshdrval.obj
 0005:0003ae8c       ??_C@_0BI@KDNEHMHC@Invalid?5TEXM?$CK?5register?4?$AA@ 005a640c     xgraphicsd:pshdrval.obj
 0005:0003aea8       ??_C@_0DB@FFOJLJII@First?5source?5for?5CND?5instruction@ 005a6428     xgraphicsd:pshdrval.obj
 0005:0003aee8       ??_C@_0FI@KJGNONF@First?5source?5register?5for?5CND?5in@ 005a6468     xgraphicsd:pshdrval.obj
 0005:0003af58       ??_C@_0GI@HNCMODDK@The?5only?5valid?5modifiers?5for?5the@ 005a64d8     xgraphicsd:pshdrval.obj
 0005:0003afd4       ??_C@_0DG@EPLEKGDE@Dest?5write?5mask?5must?5be?5?4rgb?0?5or@ 005a6554     xgraphicsd:pshdrval.obj
 0005:0003b018       ??_C@_0GD@MDJJMOC@Co?9issued?5instructions?5must?5both@ 005a6598     xgraphicsd:pshdrval.obj
 0005:0003b090       ??_C@_0GB@BAIGAJIN@Co?9issued?5instructions?5must?5both@ 005a6610     xgraphicsd:pshdrval.obj
 0005:0003b104       ??_C@_0DN@HBMHHJGM@Co?9issued?5instructions?5cannot?5bo@ 005a6684     xgraphicsd:pshdrval.obj
 0005:0003b150       ??_C@_0DO@LNIPJFDJ@Co?9issued?5instructions?5cannot?5bo@ 005a66d0     xgraphicsd:pshdrval.obj
 0005:0003b1a0       ??_C@_0GI@OLAFGFDO@Co?9issued?5instructions?5cannot?5bo@ 005a6720     xgraphicsd:pshdrval.obj
 0005:0003b220       ??_C@_0FG@PHAFIJFA@Co?9issued?5instruction?5cannot?5wri@ 005a67a0     xgraphicsd:pshdrval.obj
 0005:0003b288       ??_C@_0HH@PAPEGDJE@Dot?9product?5which?5writes?5alpha?5c@ 005a6808     xgraphicsd:pshdrval.obj
 0005:0003b318       ??_C@_0GE@IFOEJPBA@Dot?9product?5which?5writes?5alpha?5c@ 005a6898     xgraphicsd:pshdrval.obj
 0005:0003b390       ??_C@_0HH@GCOAHCJE@Dot?9product?5needs?5color?1vector?5p@ 005a6910     xgraphicsd:pshdrval.obj
 0005:0003b420       ??_C@_0HD@JBLGBKFD@Co?9issued?5instructions?5cannot?5bo@ 005a69a0     xgraphicsd:pshdrval.obj
 0005:0003b4ac       ??_C@_0CF@HHBMIKJP@Nop?5instruction?5cannot?5be?5co?9iss@ 005a6a2c     xgraphicsd:pshdrval.obj
 0005:0003b4d8       ??_C@_0DH@NPCOMDOH@Cannot?5set?5co?9issue?5?$CI?8?$CL?8?$CJ?5on?5con@ 005a6a58     xgraphicsd:pshdrval.obj
 0005:0003b520       ??_C@_0GI@HAIOEPKB@Cannot?5set?5co?9issue?5?$CI?8?$CL?8?$CJ?5on?5a?5t@ 005a6aa0     xgraphicsd:pshdrval.obj
 0005:0003b5a0       ??_C@_0HJ@JOHCFELH@First?5pixel?5blend?5instruction?5ca@ 005a6b20     xgraphicsd:pshdrval.obj
 0005:0003b638       ??_C@_0EJ@LEAAALJJ@At?5least?5one?5pixel?5blending?5inst@ 005a6bb8     xgraphicsd:pshdrval.obj
 0005:0003b690       ??_C@_0HE@BEBJKNH@Total?5number?5of?5instruction?5slot@ 005a6c10     xgraphicsd:pshdrval.obj
 0005:0003b720       ??_C@_0HD@MFGMBAHG@Too?5many?5pixel?5blending?5instruct@ 005a6ca0     xgraphicsd:pshdrval.obj
 0005:0003b7b0       ??_C@_0KH@FLAAKKKI@Too?5many?5texture?5addressing?5inst@ 005a6d30     xgraphicsd:pshdrval.obj
 0005:0003b878       ??_C@_0DP@HIENJPCA@r0?5must?5be?5written?5by?5shader?4?5Un@ 005a6df8     xgraphicsd:pshdrval.obj
 0005:0003b8c8       ??_C@_0EI@DEIBDGOG@Reserved?5bit?$CIs?$CJ?5set?5in?5source?5?$CFd@ 005a6e48     xgraphicsd:pshdrval.obj
 0005:0003b920       ??_C@_0EK@NAMEPKO@Reserved?5bit?$CIs?$CJ?5set?5in?5destinati@ 005a6ea0     xgraphicsd:pshdrval.obj
 0005:0003b978       ??_C@_0EK@LBJFGCCA@Reserved?5bit?$CIs?$CJ?5set?5in?5instructi@ 005a6ef8     xgraphicsd:pshdrval.obj
 0005:0003b9d0       ??_C@_0GL@JHBLHFMH@Version?5Token?3?50x?$CFx?5indicates?5a?5@ 005a6f50     xgraphicsd:pshdrval.obj
 0005:0003ba50       ??_C@_0GA@HKOPBNKA@Version?5Token?3?5?$CFd?4?$CFd?5is?5not?5a?5su@ 005a6fd0     xgraphicsd:pshdrval.obj
 0005:0003bac8       ??_C@_0ID@LEGHPONE@Version?5Token?3?5Pixel?5shader?5vers@ 005a7048     xgraphicsd:pshdrval.obj
 0005:0003bb68       ??_C@_0HN@EBKIDIHI@Version?5Token?3?50x?$CFx?5is?5invalid?4?5@ 005a70e8     xgraphicsd:pshdrval.obj
 0005:0003bc00       ??_C@_0CJ@GOBPOGON@Invalid?5src?5swizzle?5for?5?$CFs?5sourc@ 005a7180     xgraphicsd:pshdrval.obj
 0005:0003bc38       ??_C@_0GG@IMPKLJGB@Invalid?5register?3?5prod?5and?5sum?5c@ 005a71b8     xgraphicsd:pshdrval.obj
 0005:0003bcb8       ??_C@_0EG@OALDHBGK@Invalid?5register?3?5prod?5and?5sum?5c@ 005a7238     xgraphicsd:pshdrval.obj
 0005:0003bd0c       ??_C@_0DC@HJOGCOIP@Invalid?5src?5swizzle?5for?5tex?5op?5?$CI@ 005a728c     xgraphicsd:pshdrval.obj
 0005:0003bd48       ??_C@_0EI@CLLPECBM@Invalid?5reg?5num?5?$CFd?5?$CI?$CFs?5source?5pa@ 005a72c8     xgraphicsd:pshdrval.obj
 0005:0003bda0       ??_C@_0CE@CDCHPCKE@Invalid?5reg?5type?5?$CI?$CFs?5source?5para@ 005a7320     xgraphicsd:pshdrval.obj
 0005:0003bdd0       ??_C@_0EA@KCJPMCNK@Src?5reg?5for?5tex?5ops?5must?5be?5TEXT@ 005a7350     xgraphicsd:pshdrval.obj
 0005:0003be1c       ??_C@_0DE@CBHGKBHG@Second?5source?5parameter?5for?5texm@ 005a739c     xgraphicsd:pshdrval.obj
 0005:0003be5c       ??_C@_07MIAAGCFF@seventh?$AA@ 005a73dc     xgraphicsd:pshdrval.obj
 0005:0003be68       ??_C@_05HPOJNFP@sixth?$AA@ 005a73e8     xgraphicsd:pshdrval.obj
 0005:0003be70       ??_C@_05OECDCONL@fifth?$AA@ 005a73f0     xgraphicsd:pshdrval.obj
 0005:0003be78       ??_C@_06HNIPMCFK@fourth?$AA@ 005a73f8     xgraphicsd:pshdrval.obj
 0005:0003be80       ??_C@_0DA@BCNKJBFN@Dest?5register?5other?5than?5discard@ 005a7400     xgraphicsd:pshdrval.obj
 0005:0003bebc       ??_C@_0DJ@FBJGLCOO@Dest?5write?5mask?5must?5be?5the?5same@ 005a743c     xgraphicsd:pshdrval.obj
 0005:0003bf00       ??_C@_0DC@CLEHHIA@Dest?5write?5mask?5must?5be?5?4rgb?0?5?4a@ 005a7480     xgraphicsd:pshdrval.obj
 0005:0003bf3c       ??_C@_0BD@KNDFBHOD@Invalid?5dst?5shift?4?$AA@ 005a74bc     xgraphicsd:pshdrval.obj
 0005:0003bf58       ??_C@_0FE@CEJOHNGB@Invalid?5destination?5modifier?5?$CIus@ 005a74d8     xgraphicsd:pshdrval.obj
 0005:0003bfbc       ??_C@_0BG@DMJIACKB@Invalid?5dst?5modifier?4?$AA@ 005a753c     xgraphicsd:pshdrval.obj
 0005:0003bfd8       ??_C@_0CC@GGEMFLBG@Dst?5shift?5not?5allowed?5for?5tex?5op@ 005a7558     xgraphicsd:pshdrval.obj
 0005:0003c000       ??_C@_0CB@PCFGLJKI@Invalid?5dst?5modifier?5for?5tex?5op?4@ 005a7580     xgraphicsd:pshdrval.obj
 0005:0003c028       ??_C@_0CD@GEJDHKNO@TEX?5ops?5must?5write?5all?5component@ 005a75a8     xgraphicsd:pshdrval.obj
 0005:0003c054       ??_C@_0DE@MFDEDGJ@Must?5use?5texture?5register?5a?5dest@ 005a75d4     xgraphicsd:pshdrval.obj
 0005:0003c094       ??_C@_0BL@LIJMHDJD@Fog?5register?5invalid?5dest?4?$AA@ 005a7614     xgraphicsd:pshdrval.obj
 0005:0003c0b4       ??_C@_0BM@NEDIEDBA@prod?5register?5invalid?5dest?4?$AA@ 005a7634     xgraphicsd:pshdrval.obj
 0005:0003c0d8       ??_C@_0BL@DJAHGCJ@sum?5register?5invalid?5dest?4?$AA@ 005a7658     xgraphicsd:pshdrval.obj
 0005:0003c0f8       ??_C@_0FE@ILDOCFHC@Texture?5registers?5?$CIt?$CD?$CJ?5read?5?$CFd?5t@ 005a7678     xgraphicsd:pshdrval.obj
 0005:0003c160       ??_C@_0FK@JKCLKABE@Tex?5registers?5must?5appear?5in?5seq@ 005a76e0     xgraphicsd:pshdrval.obj
 0005:0003c1cc       ??_C@_0CD@EKECKAPO@Tex?5register?5t?$CFd?5already?5declare@ 005a774c     xgraphicsd:pshdrval.obj
 0005:0003c1f8       ??_C@_0GL@BFAHOKE@Tex?5register?5t?$CFd?5already?5declare@ 005a7778     xgraphicsd:pshdrval.obj
 0005:0003c278       ??_C@_0M@NFFLCHKC@pPrevWriter?$AA@ 005a77f8     xgraphicsd:pshdrval.obj
 0005:0003c288       ??_C@_0DD@CNBMFGAJ@Invalid?5const?5register?5num?3?5?$CFd?4?5@ 005a7808     xgraphicsd:pshdrval.obj
 0005:0003c2c8       ??_C@_0FH@NOFBLKDM@Destination?5for?5DEF?5instruction?5@ 005a7848     xgraphicsd:pshdrval.obj
 0005:0003c330       ??_C@_0DP@LLPCPNHI@Const?5declaration?5?$CIDEF?$CJ?5must?5app@ 005a78b0     xgraphicsd:pshdrval.obj
 0005:0003c37c       ??_C@_03PIAGHCPC@bx2?$AA@  005a78fc     xgraphicsd:cd3dxassembler.obj
 0005:0003c380       ??_C@_04NBAGBPGE@bias?$AA@ 005a7900     xgraphicsd:cd3dxassembler.obj
 0005:0003c388       ??_C@_02KCBABBGA@d2?$AA@   005a7908     xgraphicsd:cd3dxassembler.obj
 0005:0003c38c       ??_C@_02LHCMELHE@x2?$AA@   005a790c     xgraphicsd:cd3dxassembler.obj
 0005:0003c390       ??_C@_04NHDIBMI@m3x2?$AA@  005a7910     xgraphicsd:cd3dxassembler.obj
 0005:0003c398       ??_C@_04BEGILAIJ@m3x3?$AA@ 005a7918     xgraphicsd:cd3dxassembler.obj
 0005:0003c3a0       ??_C@_04FLCJCGEO@m3x4?$AA@ 005a7920     xgraphicsd:cd3dxassembler.obj
 0005:0003c3a8       ??_C@_04IJLPIIDA@m4x3?$AA@ 005a7928     xgraphicsd:cd3dxassembler.obj
 0005:0003c3b0       ??_C@_04MGPOBOPH@m4x4?$AA@ 005a7930     xgraphicsd:cd3dxassembler.obj
 0005:0003c3b8       ??_C@_03NJFDAMGG@frc?$AA@  005a7938     xgraphicsd:cd3dxassembler.obj
 0005:0003c3bc       ??_C@_07NCIFLAPF@texbrdf?$AA@ 005a793c     xgraphicsd:cd3dxassembler.obj
 0005:0003c3c8       ??_C@_0N@FKGOHOIG@texm3x2depth?$AA@ 005a7948     xgraphicsd:cd3dxassembler.obj
 0005:0003c3d8       ??_C@_03HCLKCHGG@xfc?$AA@  005a7958     xgraphicsd:cd3dxassembler.obj
 0005:0003c3dc       ??_C@_03DOHPGFMP@xdd?$AA@  005a795c     xgraphicsd:cd3dxassembler.obj
 0005:0003c3e0       ??_C@_03OPLNNOIG@xdm?$AA@  005a7960     xgraphicsd:cd3dxassembler.obj
 0005:0003c3e4       ??_C@_04DHOMOMCF@xmmc?$AA@ 005a7964     xgraphicsd:cd3dxassembler.obj
 0005:0003c3ec       ??_C@_04FNKIOKH@xmma?$AA@  005a796c     xgraphicsd:cd3dxassembler.obj
 0005:0003c3f4       ??_C@_0N@KDLHKEAM@texm3x3vspec?$AA@ 005a7974     xgraphicsd:cd3dxassembler.obj
 0005:0003c404       ??_C@_0M@EJPNKOAD@texm3x3spec?$AA@ 005a7984     xgraphicsd:cd3dxassembler.obj
 0005:0003c414       ??_C@_0M@MJBNLHJI@texm3x3diff?$AA@ 005a7994     xgraphicsd:cd3dxassembler.obj
 0005:0003c424       ??_C@_0L@DIAEELDK@texm3x3tex?$AA@ 005a79a4     xgraphicsd:cd3dxassembler.obj
 0005:0003c434       ??_C@_0L@FGBICJOM@texm3x3pad?$AA@ 005a79b4     xgraphicsd:cd3dxassembler.obj
 0005:0003c444       ??_C@_0L@FGEGCIK@texm3x2tex?$AA@ 005a79c4     xgraphicsd:cd3dxassembler.obj
 0005:0003c454       ??_C@_0L@GLHIAAFM@texm3x2pad?$AA@ 005a79d4     xgraphicsd:cd3dxassembler.obj
 0005:0003c464       ??_C@_09MCDLOMLJ@texreg2gb?$AA@ 005a79e4     xgraphicsd:cd3dxassembler.obj
 0005:0003c470       ??_C@_09IMHEICFK@texreg2ar?$AA@ 005a79f0     xgraphicsd:cd3dxassembler.obj
 0005:0003c47c       ??_C@_07OKHFAMNG@texbeml?$AA@ 005a79fc     xgraphicsd:cd3dxassembler.obj
 0005:0003c488       ??_C@_06OEEPMCPH@texbem?$AA@ 005a7a08     xgraphicsd:cd3dxassembler.obj
 0005:0003c490       ??_C@_03JDBMONBN@tex?$AA@  005a7a10     xgraphicsd:cd3dxassembler.obj
 0005:0003c494       ??_C@_07KMHBLLCI@texkill?$AA@ 005a7a14     xgraphicsd:cd3dxassembler.obj
 0005:0003c4a0       ??_C@_08FDJGCBLL@texcoord?$AA@ 005a7a20     xgraphicsd:cd3dxassembler.obj
 0005:0003c4ac       ??_C@_03LEPADAIH@cnd?$AA@  005a7a2c     xgraphicsd:cd3dxassembler.obj
 0005:0003c4b0       ??_C@_03NHABKNJA@lrp?$AA@  005a7a30     xgraphicsd:cd3dxassembler.obj
 0005:0003c4b4       ??_C@_03KCMAIMAP@sub?$AA@  005a7a34     xgraphicsd:cd3dxassembler.obj
 0005:0003c4b8       ??_C@_02OBHGOMPC@x4?$AA@   005a7a38     xgraphicsd:cd3dxassembler.obj
 0005:0003c4bc       ??_C@_0BC@OLOFEEHK@invalid?5mask?5?8?$CFs?8?$AA@ 005a7a3c     xgraphicsd:cd3dxassembler.obj
 0005:0003c4d4       ??_C@_0BF@HCOGMEGH@invalid?5swizzle?5?8?$CFs?8?$AA@ 005a7a54     xgraphicsd:cd3dxassembler.obj
 0005:0003c4f0       ??_C@_0BK@LGANAEDG@invalid?5register?5?8?$CFs?$FL?$CFd?$FN?8?$AA@ 005a7a70     xgraphicsd:cd3dxassembler.obj
 0005:0003c510       ??_C@_0CB@OLJIFADM@invalid?5register?5?8?$CFs?$FLa0?4x?5?$CL?5?$CFd?$FN?8@ 005a7a90     xgraphicsd:cd3dxassembler.obj
 0005:0003c538       ??_C@_0BG@CDEBKFJO@invalid?5register?5?8?$CFs?8?$AA@ 005a7ab8     xgraphicsd:cd3dxassembler.obj
 0005:0003c554       ??_C@_02JNOCDCKA@oT?$AA@   005a7ad4     xgraphicsd:cd3dxassembler.obj
 0005:0003c558       ??_C@_02IBHKIHHH@oB?$AA@   005a7ad8     xgraphicsd:cd3dxassembler.obj
 0005:0003c55c       ??_C@_02NHCACAPB@oD?$AA@   005a7adc     xgraphicsd:cd3dxassembler.obj
 0005:0003c560       ??_C@_03CFFIJAMA@sum?$AA@  005a7ae0     xgraphicsd:cd3dxassembler.obj
 0005:0003c564       ??_C@_04EDCDKCIE@prod?$AA@ 005a7ae4     xgraphicsd:cd3dxassembler.obj
 0005:0003c56c       ??_C@_03KJMBPJEB@fog?$AA@  005a7aec     xgraphicsd:cd3dxassembler.obj
 0005:0003c570       ??_C@_07FGAIHHOI@discard?$AA@ 005a7af0     xgraphicsd:cd3dxassembler.obj
 0005:0003c57c       ??_C@_04DDFHDMOL@zero?$AA@ 005a7afc     xgraphicsd:cd3dxassembler.obj
 0005:0003c584       ??_C@_05OCGPFHFO@_hemi?$AA@ 005a7b04     xgraphicsd:cd3dxassembler.obj
 0005:0003c58c       ??_C@_06HIFKHGJE@_hemi3?$AA@ 005a7b0c     xgraphicsd:cd3dxassembler.obj
 0005:0003c594       ??_C@_06GBEBEHNF@_hemi2?$AA@ 005a7b14     xgraphicsd:cd3dxassembler.obj
 0005:0003c59c       ??_C@_06EKGMBEBG@_hemi1?$AA@ 005a7b1c     xgraphicsd:cd3dxassembler.obj
 0005:0003c5a4       ??_C@_03MCFJIBCE@_hl?$AA@  005a7b24     xgraphicsd:cd3dxassembler.obj
 0005:0003c5a8       ??_C@_06LOEJJPCM@_sign3?$AA@ 005a7b28     xgraphicsd:cd3dxassembler.obj
 0005:0003c5b0       ??_C@_06KHFCKOGN@_sign2?$AA@ 005a7b30     xgraphicsd:cd3dxassembler.obj
 0005:0003c5b8       ??_C@_06IMHPPNKO@_sign1?$AA@ 005a7b38     xgraphicsd:cd3dxassembler.obj
 0005:0003c5c0       ??_C@_04PIFCECGP@_sat?$AA@ 005a7b40     xgraphicsd:cd3dxassembler.obj
 0005:0003c5c8       ??_C@_04EMPCMEAG@_sgn?$AA@ 005a7b48     xgraphicsd:cd3dxassembler.obj
 0005:0003c5d0       ??_C@_04KFCDACOJ@_bx2?$AA@ 005a7b50     xgraphicsd:cd3dxassembler.obj
 0005:0003c5d8       ??_C@_05FLDOPDPI@_bias?$AA@ 005a7b58     xgraphicsd:cd3dxassembler.obj
 0005:0003c5e0       ??_C@_0BN@JNLNGCLO@invalid?5destination?5register?$AA@ 005a7b60     xgraphicsd:cd3dxassembler.obj
 0005:0003c604       ??_C@_0CO@DLMAGKCF@Can?8t?5use?5A0?4x?5within?5a?5destinat@ 005a7b84     xgraphicsd:cd3dxassembler.obj
 0005:0003c63c       ??_C@_0BD@NIJHOCFA@invalid?5write?5mask?$AA@ 005a7bbc     xgraphicsd:cd3dxassembler.obj
 0005:0003c654       ??_C@_0DK@HMEPGNMJ@source?5modifiers?5are?5not?5allowed@ 005a7bd4     xgraphicsd:cd3dxassembler.obj
 0005:0003c69c       ??_C@_0BI@JILJCFIK@invalid?5source?5register?$AA@ 005a7c1c     xgraphicsd:cd3dxassembler.obj
 0005:0003c6b8       ??_C@_0BA@PILANKE@invalid?5swizzle?$AA@ 005a7c38     xgraphicsd:cd3dxassembler.obj
 0005:0003c6cc       ??_C@_0BB@DKNONOPK@invalid?5constant?$AA@ 005a7c4c     xgraphicsd:cd3dxassembler.obj
 0005:0003c6e0       ??_C@_03BHEEIFFN@def?$AA@  005a7c60     xgraphicsd:cd3dxassembler.obj
 0005:0003c6e4       ??_C@_03CANDOKPF@xps?$AA@  005a7c64     xgraphicsd:cd3dxassembler.obj
 0005:0003c6e8       ??_C@_02FAFNGEII@ps?$AA@   005a7c68     xgraphicsd:cd3dxassembler.obj
 0005:0003c6ec       ??_C@_04OMIOKAJA@xvss?$AA@ 005a7c6c     xgraphicsd:cd3dxassembler.obj
 0005:0003c6f4       ??_C@_04IIOCGFJE@xvsw?$AA@ 005a7c74     xgraphicsd:cd3dxassembler.obj
 0005:0003c6fc       ??_C@_03CEFOJGEH@xvs?$AA@  005a7c7c     xgraphicsd:cd3dxassembler.obj
 0005:0003c700       ??_C@_02FENABIDK@vs?$AA@   005a7c80     xgraphicsd:cd3dxassembler.obj
 0005:0003c704       ??_C@_0CL@POHKFIF@preprocessor?5directives?5are?5not?5@ 005a7c84     xgraphicsd:cd3dxassembler.obj
 0005:0003c738       ??_C@_0P@FMEOLDDB@unknown?5pragma?$AA@ 005a7cb8     xgraphicsd:cd3dxassembler.obj
 0005:0003c74c       ??_C@_08IEIKBDDE@fragment?$AA@ 005a7ccc     xgraphicsd:cd3dxassembler.obj
 0005:0003c758       ??_C@_0M@BMOHHHNJ@screenspace?$AA@ 005a7cd8     xgraphicsd:cd3dxassembler.obj
 0005:0003c768       ??_C@_07HJOMKKBA@?$CDpragma?$AA@ 005a7ce8     xgraphicsd:cd3dxassembler.obj
 0005:0003c774       ??_C@_05IPCKHCMJ@?$CDline?$AA@ 005a7cf4     xgraphicsd:cd3dxassembler.obj
 0005:0003c77c       ??_C@_0BN@CFIOMDHG@Internal?5assembler?5error?$CB?5?$CFd?$AA@ 005a7cfc     xgraphicsd:cd3dxassembler.obj
 0005:0003c7a0       ??_C@_02NJPGOMH@?$CFf?$AA@ 005a7d20     xgraphicsd:cd3dxassembler.obj
 0005:0003c7a8       ??_C@_0EI@HBCJGIFB@Instruction?5combination?5is?5not?5a@ 005a7d28     xgraphicsd:cd3dxassembler.obj
 0005:0003c800       ??_C@_0BG@JIPLKDOB@a0?4x?5can?8t?5be?5negated?$AA@ 005a7d80     xgraphicsd:cd3dxassembler.obj
 0005:0003c81c       ??_C@_0DB@DKAPLPGN@a0?4x?5can?5only?5appear?5once?5in?5an?5@ 005a7d9c     xgraphicsd:cd3dxassembler.obj
 0005:0003c858       ??_C@_0CF@GFHCMKJJ@illegal?5register?5in?5index?5expres@ 005a7dd8     xgraphicsd:cd3dxassembler.obj
 0005:0003c884       ??_C@_0N@MNJHOOI@syntax?5error?$AA@ 005a7e04     xgraphicsd:cd3dxassembler.obj
 0005:0003c894       ??_C@_07GEOCHCNA@?$CFs?$CFd_?$CFs?$AA@ 005a7e14     xgraphicsd:cd3dxassembler.obj
 0005:0003c8a0       ??_C@_0CP@LILJCPPC@complement?5cannot?5be?5used?5with?5o@ 005a7e20     xgraphicsd:cd3dxassembler.obj
 0005:0003c8d8       ??_C@_0CL@DIIPPLJG@complement?5not?5supported?5in?5vert@ 005a7e58     xgraphicsd:cd3dxassembler.obj
 0005:0003c90c       ??_C@_0BA@HADFIBON@invalid?5version?$AA@ 005a7e8c     xgraphicsd:cd3dxassembler.obj
 0005:0003c920       ??_C@_0EM@CJEKNAII@Expected?5a?5version?5statement?5?$CI?8p@ 005a7ea0     xgraphicsd:cd3dxassembler.obj
 0005:0003c97c       ??_C@_0BE@CHCCDJIL@yacc?5stack?5overflow?$AA@ 005a7efc     xgraphicsd:cd3dxassembler.obj
 0005:0003c994       ??_C@_0CA@GBOFKHDF@Could?5not?5read?5data?5from?5source?$AA@ 005a7f14     xgraphicsd:cd3dxassembler.obj
 0005:0003c9bc       ??_C@_0BI@CPFPCFIE@Error?5assembling?5shader?$AA@ 005a7f3c     xgraphicsd:cd3dxassembler.obj
 0005:0003c9d8       ??_C@_0BD@KCANCOLN@Expected?5an?5?$CDendif?$AA@ 005a7f58     xgraphicsd:preprocessor.obj
 0005:0003c9f0       ?kEnum@?4??CheckForEnum@PreProcessor@XGRAPHICS@@AAEJAAVBuffer@3@PA_N@Z@4QBDB 005a7f70     xgraphicsd:preprocessor.obj
 0005:0003c9f8       ??_C@_0CM@NFLDFCBL@Couldn?8t?5find?5object?5to?5incremen@ 005a7f78     xgraphicsd:preprocessor.obj
 0005:0003ca2c       ??_C@_0CD@PFFEPMPL@Expected?5parenthesized?5expressio@ 005a7fac     xgraphicsd:preprocessor.obj
 0005:0003ca58       ??_C@_0BG@MOAGIOFG@?$CDif?5is?5not?5supported?4?$AA@ 005a7fd8     xgraphicsd:preprocessor.obj
 0005:0003ca74       ??_C@_0BI@OJPCMHKM@?$CDelif?5is?5not?5supported?4?$AA@ 005a7ff4     xgraphicsd:preprocessor.obj
 0005:0003ca90       ??_C@_0BB@GHLLFMPE@Unexpected?5?$CDelse?$AA@ 005a8010     xgraphicsd:preprocessor.obj
 0005:0003caa4       ??_C@_0BC@DHAEIEFK@Unexpected?5?$CDendif?$AA@ 005a8024     xgraphicsd:preprocessor.obj
 0005:0003cabc       ??_C@_0DB@ECHBCKDH@File?5names?5have?5to?5be?5quoted?5wit@ 005a803c     xgraphicsd:preprocessor.obj
 0005:0003caf8       ??_C@_0BM@DKIIFAEN@Include?5file?5name?5too?5long?4?$AA@ 005a8078     xgraphicsd:preprocessor.obj
 0005:0003cb1c       ??_C@_0BD@DJDGFPBO@Expected?5file?5name?$AA@ 005a809c     xgraphicsd:preprocessor.obj
 0005:0003cb38       ??_C@_0ID@FBPAGDLP@single?9line?5comment?5ends?5with?5th@ 005a80b8     xgraphicsd:preprocessor.obj
 0005:0003cbd8       ??_C@_0CN@HCFOOKA@Expected?5an?5argument?5enclosed?5in@ 005a8158     xgraphicsd:preprocessor.obj
 0005:0003cc10       ??_C@_0BJ@JGAJAMNJ@Expected?5macro?5parameter?$AA@ 005a8190     xgraphicsd:preprocessor.obj
 0005:0003cc30       ??_C@_03GKDDHBBI@dec?$AA@  005a81b0     xgraphicsd:preprocessor.obj
 0005:0003cc34       ??_C@_03JEAMEGCE@inc?$AA@  005a81b4     xgraphicsd:preprocessor.obj
 0005:0003cc38       ??_C@_01FGNFDNOH@?$CF?$AA@ 005a81b8     xgraphicsd:preprocessor.obj
 0005:0003cc3c       ??_C@_0BK@PEJOGKFA@Expected?5macro?5parameter?4?$AA@ 005a81bc     xgraphicsd:preprocessor.obj
 0005:0003cc5c       ??_C@_0DH@NMGBAFMG@Too?5many?5nested?5levels?5of?5?$CDifdef@ 005a81dc     xgraphicsd:preprocessor.obj
 0005:0003cca0       ??_C@_0BA@CHELIHIB@symbol?5expected?$AA@ 005a8220     xgraphicsd:preprocessor.obj
 0005:0003ccb4       ??_C@_09KNEALEFF@?$CDline?5?$CFd?6?$AA@ 005a8234     xgraphicsd:preprocessor.obj
 0005:0003ccc0       ??_C@_0P@JJPEMBPP@?$CDline?5?$CFd?5?$CC?$CFs?$CC?6?$AA@ 005a8240     xgraphicsd:preprocessor.obj
 0005:0003ccd4       ??_C@_0BG@CFKBFNHB@Syntax?5error?5in?5enum?4?$AA@ 005a8254     xgraphicsd:preprocessor.obj
 0005:0003ccf0       ??_C@_0BM@JDKOFJAC@Missing?5open?5brace?5in?5enum?4?$AA@ 005a8270     xgraphicsd:preprocessor.obj
 0005:0003cd14       ??_C@_0BG@PDCENBKE@Source?5line?5too?5long?4?$AA@ 005a8294     xgraphicsd:preprocessor.obj
 0005:0003cd30       ??_C@_0CO@FAIGHHPI@Un?9terminated?5C?9style?5comment?4?5E@ 005a82b0     xgraphicsd:preprocessor.obj
 0005:0003cd68       ??_C@_0BI@GODPHHLF@Expected?5argument?5name?4?$AA@ 005a82e8     xgraphicsd:preprocessor.obj
 0005:0003cd84       ??_C@_0BJ@PFCEMFPP@Duplicate?5argument?5name?4?$AA@ 005a8304     xgraphicsd:preprocessor.obj
 0005:0003cda4       ??_C@_0BF@LAFALPLH@Expected?5?8?0?8?5or?5?8?$CJ?8?4?$AA@ 005a8324     xgraphicsd:preprocessor.obj
 0005:0003cdc0       ??_C@_01NBENCBCI@?$CK?$AA@ 005a8340     xgraphicsd:preprocessor.obj
 0005:0003cdc4       ??_C@_0O@FJMDMIPK@Expected?5?8?$CI?8?4?$AA@ 005a8344     xgraphicsd:preprocessor.obj
 0005:0003cdd4       ??_C@_0BP@KBBBANFM@Expected?5macro?5parameter?5name?4?$AA@ 005a8354     xgraphicsd:preprocessor.obj
 0005:0003cdfc       ??_C@_0BA@FGOMI@Expected?5comma?4?$AA@ 005a837c     xgraphicsd:preprocessor.obj
 0005:0003ce10       ??_C@_0O@OBHPKPJP@Expected?5?8?$CJ?8?4?$AA@ 005a8390     xgraphicsd:preprocessor.obj
 0005:0003ce20       ??_C@_0BP@LHOKOOLI@This?5symbol?5is?5already?5defined?$AA@ 005a83a0     xgraphicsd:preprocessor.obj
 0005:0003ce48       ??_C@_0BD@FEPOONDK@Unexpected?5symbol?4?$AA@ 005a83c8     xgraphicsd:preprocessor.obj
 0005:0003ce60       ??_C@_0CD@NHOHEPNE@Expected?5a?5comma?5or?5a?5close?5pare@ 005a83e0     xgraphicsd:preprocessor.obj
 0005:0003ce8c       ??_C@_0BC@NBEDGNEJ@Too?5few?5arguments?$AA@ 005a840c     xgraphicsd:preprocessor.obj
 0005:0003cea4       ??_C@_0BD@KIBEHICB@Too?5many?5arguments?$AA@ 005a8424     xgraphicsd:preprocessor.obj
 0005:0003cebc       ??_C@_0N@KMCDOALD@Expected?5?8?$CI?8?$AA@ 005a843c     xgraphicsd:preprocessor.obj
 0005:0003cecc       ??_C@_0CC@DELPEAD@Expected?5endm?5before?5end?5of?5file@ 005a844c     xgraphicsd:preprocessor.obj
 0005:0003cef4       ?kEndM@?7??CheckForMacroDeclaration@PreProcessor@XGRAPHICS@@AAEJAAVBuffer@3@PA_N@Z@4QBDB 005a8474     xgraphicsd:preprocessor.obj
 0005:0003cefc       ??_C@_0BO@FKCOGGMI@This?5macro?5is?5already?5defined?$AA@ 005a847c     xgraphicsd:preprocessor.obj
 0005:0003cf20       ?kMacro@?7??CheckForMacroDeclaration@PreProcessor@XGRAPHICS@@AAEJAAVBuffer@3@PA_N@Z@4QBDB 005a84a0     xgraphicsd:preprocessor.obj
 0005:0003cf28       ??_C@_0BJ@ONJGCBLJ@Expanded?5macro?5too?5long?4?$AA@ 005a84a8     xgraphicsd:preprocessor.obj
 0005:0003cf48       ??_C@_0BC@GENGIBGE@Expected?5a?5comma?4?$AA@ 005a84c8     xgraphicsd:preprocessor.obj
 0005:0003cf60       ??_C@_0BM@GEBLOLIA@Couldn?8t?5open?5include?5file?4?$AA@ 005a84e0     xgraphicsd:preprocessor.obj
 0005:0003cf88       ??_C@_0FI@MJOMKBLF@Can?8t?5process?5?$CDinclude?5because?5n@ 005a8508     xgraphicsd:preprocessor.obj
 0005:0003cff8       ??_C@_0EF@MOPFAPDL@Too?5many?5levels?5of?5include?5direc@ 005a8578     xgraphicsd:preprocessor.obj
 0005:0003d04c       ??_C@_0BP@JOMDOCBE@Unknown?5preprocessor?5directive?$AA@ 005a85cc     xgraphicsd:preprocessor.obj
 0005:0003d074       ??_C@_05PAODFFED@endif?$AA@ 005a85f4     xgraphicsd:preprocessor.obj
 0005:0003d07c       ??_C@_04GNFOIEOK@elif?$AA@ 005a85fc     xgraphicsd:preprocessor.obj
 0005:0003d084       ??_C@_04FHMCPBIP@else?$AA@ 005a8604     xgraphicsd:preprocessor.obj
 0005:0003d08c       ??_C@_06ENONKJGC@ifndef?$AA@ 005a860c     xgraphicsd:preprocessor.obj
 0005:0003d094       ??_C@_05LOELCHJN@ifdef?$AA@ 005a8614     xgraphicsd:preprocessor.obj
 0005:0003d09c       ??_C@_07FHOHOHLG@include?$AA@ 005a861c     xgraphicsd:preprocessor.obj
 0005:0003d0a8       ??_C@_02HEBPBKGD@if?$AA@   005a8628     xgraphicsd:preprocessor.obj
 0005:0003d0ac       ??_C@_05PKCPKOLM@undef?$AA@ 005a862c     xgraphicsd:preprocessor.obj
 0005:0003d0b4       ??_C@_06PGFLMPLC@pragma?$AA@ 005a8634     xgraphicsd:preprocessor.obj
 0005:0003d0bc       ??_C@_06EPMMJFDC@define?$AA@ 005a863c     xgraphicsd:preprocessor.obj
 0005:0003d0c4       ??_C@_0BD@LELAIBAH@Dead?5Code?5Stripper?$AA@ 005a8644     xgraphicsd:pixelshaderoptimizer.obj
 0005:0003d0dc       ??_C@_0BA@BIEAODAA@outputIndex?5?$DM?52?$AA@ 005a865c     xgraphicsd:pixelshaderoptimizer.obj
 0005:0003d0f0       ?outputOffset@?6??GetCombinerOutputRegister@D3DPIXELSHADERDEF_OPT@XGRAPHICS@@QBEKKKK@Z@4QBEB 005a8670     xgraphicsd:pixelshaderoptimizer.obj
 0005:0003d0f8       ??_C@_0EE@JJCPFOHJ@stage?5?$DM?5MAX_COMBINER_STAGES?5?$CG?$CG?5r@ 005a8678     xgraphicsd:pixelshaderoptimizer.obj
 0005:0003d150       ??_C@_0ED@NBGHLCJH@stage?5?$DM?5MAX_COMBINER_STAGES?5?$CG?$CG?5r@ 005a86d0     xgraphicsd:pixelshaderoptimizer.obj
 0005:0003d1a0       ??_C@_0DB@GNCLAIPI@stage?5?$DM?5MAX_COMBINER_STAGES?5?$CG?$CG?5r@ 005a8720     xgraphicsd:pixelshaderoptimizer.obj
 0005:0003d1dc       ?outputOffset@?6??SetCombinerOutputRegister@D3DPIXELSHADERDEF_OPT@XGRAPHICS@@QAEXKKKK@Z@4QBEB 005a875c     xgraphicsd:pixelshaderoptimizer.obj
 0005:0003d1e0       ?kUseBits@?M@??GetCombinerInputUsedBitSet@D3DPIXELSHADERDEF_OPT@XGRAPHICS@@QAEKKK@Z@4QBKB 005a8760     xgraphicsd:pixelshaderoptimizer.obj
 0005:0003d1f0       ??_C@_0BC@LNCAHGAA@Pair?5Instructions?$AA@ 005a8770     xgraphicsd:pixelshaderoptimizer.obj
 0005:0003d208       ??_C@_0BE@FDHLBFLF@Remove?5Empty?5Stages?$AA@ 005a8788     xgraphicsd:pixelshaderoptimizer.obj
 0005:0003d220       ??_C@_0BN@EAAONJBL@value?5?$DM?$DN?5MAX_COMBINER_STAGES?$AA@ 005a87a0     xgraphicsd:pixelshaderoptimizer.obj
 0005:0003d248       ??_C@_0EF@NGNCEPDH@destStage?5?$DM?5MAX_COMBINER_STAGES?5@ 005a87c8     xgraphicsd:pixelshaderoptimizer.obj
 0005:0003d29c       ??_C@_0BM@DAPAKIOO@stage?5?$DM?5MAX_COMBINER_STAGES?$AA@ 005a881c     xgraphicsd:pixelshaderoptimizer.obj
 0005:0003d2c0       ??_C@_0BD@MPFCKHAF@Final?5verification?$AA@ 005a8840     xgraphicsd:pixelshaderoptimizer.obj
 0005:0003d2ec       ??_C@_05NGOBIDGO@pInst?$AA@ 005a886c     xgraphicsd:valbase.obj
 0005:0003d2f4       ??_C@_0CF@NGPGBDPH@D3D?5Shader?5Validator?3?5no?5error?5l@ 005a8874     xgraphicsd:valbase.obj
 0005:0003d320       ??_C@_01EKENIIDA@3?$AA@    005a88a0     xgraphicsd:valbase.obj
 0005:0003d324       ??_C@_02LCNFDDLB@2?5?$AA@  005a88a4     xgraphicsd:valbase.obj
 0005:0003d328       ??_C@_02LAJDINOI@1?5?$AA@  005a88a8     xgraphicsd:valbase.obj
 0005:0003d32c       ??_C@_02LBFBOHNP@0?5?$AA@  005a88ac     xgraphicsd:valbase.obj
 0005:0003d330       ??_C@_02HLFBCGLF@W?1?$AA@  005a88b0     xgraphicsd:valbase.obj
 0005:0003d334       ??_C@_02HDIJLFOG@Z?1?$AA@  005a88b4     xgraphicsd:valbase.obj
 0005:0003d338       ??_C@_02HBMPALLP@Y?1?$AA@  005a88b8     xgraphicsd:valbase.obj
 0005:0003d33c       ??_C@_02HAANGBII@X?1?$AA@  005a88bc     xgraphicsd:valbase.obj
 0005:0003d340       ??_C@_02GDPKPJHH@A?1?$AA@  005a88c0     xgraphicsd:valbase.obj
 0005:0003d344       ??_C@_02GBLMEHCO@B?1?$AA@  005a88c4     xgraphicsd:valbase.obj
 0005:0003d348       ??_C@_02GHHHIFMF@G?1?$AA@  005a88c8     xgraphicsd:valbase.obj
 0005:0003d34c       ??_C@_02HNJKOEFO@R?1?$AA@  005a88cc     xgraphicsd:valbase.obj
 0005:0003d350       ??_C@_0CM@CCDELGJN@pWriteNode?5?$CG?$CG?5pWriteNode?9?$DOm_bWri@ 005a88d0     xgraphicsd:valbase.obj
 0005:0003d384       ??_C@_0CL@OIMCOELG@Direct3D?5Shader?5Validator?3?5Out?5o@ 005a8904     xgraphicsd:valbase.obj
 0005:0003d3b8       ??_C@_0BA@BALBBNGL@Out?5of?5memory?4?6?$AA@ 005a8938     xgraphicsd:valbase.obj
 0005:0003d3cc       ??_C@_0BE@CDMFGIA@?$CIValidation?5Error?$CJ?5?$AA@ 005a894c     xgraphicsd:valbase.obj
 0005:0003d3e4       ??_C@_0BG@IOPDAFCL@?$CIValidation?5Warning?$CJ?5?$AA@ 005a8964     xgraphicsd:valbase.obj
 0005:0003d400       ??_C@_0BL@JPJJJNAK@?$CIValidation?5Global?5Error?$CJ?5?$AA@ 005a8980     xgraphicsd:valbase.obj
 0005:0003d420       ??_C@_0BN@EDCJPDHH@?$CIValidation?5Global?5Warning?$CJ?5?$AA@ 005a89a0     xgraphicsd:valbase.obj
 0005:0003d444       ??_C@_0M@GAMOENMP@Stack?5Empty?$AA@ 005a89c4     xgraphicsd:cd3dxstack.obj
 0005:0003d454       ??_C@_0DB@IFCPPOHL@stage?5?$DM?5MAX_COMBINER_STAGES?5?$CG?$CG?5c@ 005a89d4     xgraphicsd:pixelshaderverifier.obj
 0005:0003d490       ??_C@_0BC@LDEDGFDP@constantIndex?5?$DM?52?$AA@ 005a8a10     xgraphicsd:pixelshaderverifier.obj
 0005:0003d4a8       ?kNumArgsForOpcode@?1??NumParams@Op@XGRAPHICS@@QBEHXZ@4QBHB 005a8a28     xgraphicsd:pixelshaderverifier.obj
 0005:0003d4c0       ??_C@_0DA@LIGHELJE@Node?3?3EncaseOpWithNode?3?5new?5Node@ 005a8a40     xgraphicsd:pixelshaderverifier.obj
 0005:0003d4fc       ??_C@_0CE@DCDHJIOJ@Output?5register?5R0?4?$CFs?5didn?8t?5mat@ 005a8a7c     xgraphicsd:pixelshaderverifier.obj
 0005:0003d528       ??_C@_03FNOJMHE@rgb?$AA@   005a8aa8     xgraphicsd:pixelshaderverifier.obj
 0005:0003d52c       ??_C@_05IAEKHIAN@alpha?$AA@ 005a8aac     xgraphicsd:pixelshaderverifier.obj
 0005:0003d534       ??_C@_0DA@GIEHOKFF@Table?3?3InitTable?$CI?$CFp?$CJ?3?5CopyFrom?$CIs@ 005a8ab4     xgraphicsd:pixelshaderverifier.obj
 0005:0003d570       ??_C@_0CD@OBFBNBBE@Node?3?3Copy?3?5CopyFrom?$CIthis?$CJ?5faile@ 005a8af0     xgraphicsd:pixelshaderverifier.obj
 0005:0003d59c       ??_C@_0CG@OFDPDAEE@Node?3?3Copy?3?5couldn?8t?5create?5new?5@ 005a8b1c     xgraphicsd:pixelshaderverifier.obj
 0005:0003d5cc       ??_C@_0BL@IPELPNEO@Op?3?3MakeOp?3?5new?5Op?5failed?$CB?$AA@ 005a8b4c     xgraphicsd:pixelshaderverifier.obj
 0005:0003d5ec       ??_C@_0CA@MIMPNOIJ@Op?3?3MakeEmptyOp?3?5new?5Op?5failed?$CB?$AA@ 005a8b6c     xgraphicsd:pixelshaderverifier.obj
 0005:0003d614       ??_C@_0CL@OKHMMAKL@CopyFrom?5to?5write?5output?5to?5alph@ 005a8b94     xgraphicsd:pixelshaderverifier.obj
 0005:0003d648       ??_C@_0CC@HMBOLALB@CopyFrom?5to?5write?5output?5failed?4@ 005a8bc8     xgraphicsd:pixelshaderverifier.obj
 0005:0003d670       ??_C@_0CM@KPBIKJON@InterpretCombinerStage?3?5Op?3?3Make@ 005a8bf0     xgraphicsd:pixelshaderverifier.obj
 0005:0003d6a4       ??_C@_0CH@DMMGLJGM@Table?3?3MakeTable?3?5new?5Node?$FL?$CFd?$FN?5f@ 005a8c24     xgraphicsd:pixelshaderverifier.obj
 0005:0003d6d4       ??_C@_0CE@GILNDDEJ@Table?3?3MakeTable?3?5new?5Table?5fail@ 005a8c54     xgraphicsd:pixelshaderverifier.obj
 0005:0003d700       ??_C@_0DA@PHEPOEHO@BuildTable?3?5InterpretCombiner?5ra@ 005a8c80     xgraphicsd:pixelshaderverifier.obj
 0005:0003d73c       ??_C@_0CE@OIDKCOMA@BuildTable?5failed?4?5pt?$FL0?$FN?3?$CFp?5t?$FL1?$FN@ 005a8cbc     xgraphicsd:pixelshaderverifier.obj
 0005:0003ef60       _you_must_also_link_with_xgraphicsd_lib 005aa4e0     xgraphicsd:api.obj
 0005:0003ef64       ?WaR_dependants@VS_GRAPH_OPTIMIZER@XGRAPHICS@@3_NA 005aa4e4     xgraphicsd:instructiongraph.obj
 0005:0003ef65       ?disablePairing@VS_GRAPH_OPTIMIZER@XGRAPHICS@@3_NA 005aa4e5     xgraphicsd:instructiongraph.obj
 0005:0003ef66       ?unPairOps@VS_GRAPH_OPTIMIZER@XGRAPHICS@@3_NA 005aa4e6     xgraphicsd:instructiongraph.obj
 0005:0003ef67       ?avoidILUTempMoves@VS_GRAPH_OPTIMIZER@XGRAPHICS@@3_NA 005aa4e7     xgraphicsd:instructiongraph.obj
 0005:0003ef68       ?dummy@Register@VS_GRAPH_OPTIMIZER@XGRAPHICS@@2PAV123@A 005aa4e8     xgraphicsd:instructiongraph.obj
 0005:0003ef6c       ?objects@GraphOptimizerObject@VS_GRAPH_OPTIMIZER@XGRAPHICS@@0V?$set@PAVGraphOptimizerObject@VS_GRAPH_OPTIMIZER@XGRAPHICS@@U?$less@PAVGraphOptimizerObject@VS_GRAPH_OPTIMIZER@XGRAPHICS@@@23@@23@A 005aa4ec     xgraphicsd:instructiongraph.obj
 0005:0003ef7c       ?collections@Register@VS_GRAPH_OPTIMIZER@XGRAPHICS@@0V?$set@PAV?$collection@PAVRegister@VS_GRAPH_OPTIMIZER@XGRAPHICS@@@VS_GRAPH_OPTIMIZER@XGRAPHICS@@U?$less@PAV?$collection@PAVRegister@VS_GRAPH_OPTIMIZER@XGRAPHICS@@@VS_GRAPH_OPTIMIZER@XGRAPHICS@@@23@@23@A 005aa4fc     xgraphicsd:instructiongraph.obj
 0005:0003ef8c       ?collections@Instruction@VS_GRAPH_OPTIMIZER@XGRAPHICS@@0V?$set@PAV?$collection@PAVInstruction@VS_GRAPH_OPTIMIZER@XGRAPHICS@@@VS_GRAPH_OPTIMIZER@XGRAPHICS@@U?$less@PAV?$collection@PAVInstruction@VS_GRAPH_OPTIMIZER@XGRAPHICS@@@VS_GRAPH_OPTIMIZER@XGRAPHICS@@@23@@23@A 005aa50c     xgraphicsd:instructiongraph.obj
 0005:0003efa8       ?g_pErrorLog@XGRAPHICS@@3PAUXD3DXErrorLog@1@A 005aa528     xgraphicsd:pixelshader.obj
 0005:0003efb0       ?g_D3DConstants@XGRAPHICS@@3PAKA 005aa530     xgraphicsd:pixelshader.obj
 0005:0003eff0       ?g_constMapping@XGRAPHICS@@3PAY01KA 005aa570     xgraphicsd:pixelshader.obj
 0005:0003f038       ?g_dwStage@XGRAPHICS@@3KA  005aa5b8     xgraphicsd:pixelshader.obj
 0005:0003f03c       ?g_pPSD@XGRAPHICS@@3PAU_D3DPixelShaderDef@@A 005aa5bc     xgraphicsd:pixelshader.obj
 0005:0003f098       ?d3dxasm_vs@XGRAPHICS@@3PAHA 005aa618     xgraphicsd:cd3dxassembler.obj
 0005:0003f868       ?d3dxasm_ss@XGRAPHICS@@3PAFA 005aade8     xgraphicsd:cd3dxassembler.obj
 0005:0003fc50       ?d3dxasm_lval@XGRAPHICS@@3HA 005ab1d0     xgraphicsd:cd3dxassembler.obj
 0005:0003fc54       ?d3dxasm_val@XGRAPHICS@@3HA 005ab1d4     xgraphicsd:cd3dxassembler.obj
 0005:0003fc58       ?d3dxasm_vsp@XGRAPHICS@@3PAHA 005ab1d8     xgraphicsd:cd3dxassembler.obj
 0005:0003fc5c       ?d3dxasm_ssp@XGRAPHICS@@3PAFA 005ab1dc     xgraphicsd:cd3dxassembler.obj
 0005:0003fc60       ?d3dxasm_char@XGRAPHICS@@3HA 005ab1e0     xgraphicsd:cd3dxassembler.obj
 0005:0003fc64       ?d3dxasm_errflag@XGRAPHICS@@3HA 005ab1e4     xgraphicsd:cd3dxassembler.obj
 0005:0003fc68       ?d3dxasm_nerrs@XGRAPHICS@@3HA 005ab1e8     xgraphicsd:cd3dxassembler.obj
 0005:0003fc6c       ?d3dxasm_debug@XGRAPHICS@@3HA 005ab1ec     xgraphicsd:cd3dxassembler.obj
 0006:00000000       ?XID_BeginTypeDescriptionTable@@3KA 005ac540     xapilibd:typeinfo.obj
 0006:00001008       _GamepadTypeInfoENTRY      005ad548     xapilibd:typeinfo.obj
 0006:00002010       _IrRemoteTypeInfoENTRY     005ae550     xapilibd:typeinfo.obj
 0006:00003018       ?XID_EndTypeDescriptionTable@@3KA 005af558     xapilibd:typeinfo.obj
 0006:00004020       _USBD_BeginClassDescriptionTable 005b0560     xapilibd:usbd.obj
 0006:00005028       _XID_DescriptionPointer    005b1568     xapilibd:xid.obj
 0006:0000502c       _XID_1DescriptionPointer   005b156c     xapilibd:xid.obj
 0006:00006034       _USBHUB_DescriptionPointer 005b2574     xapilibd:hub.obj
 0006:0000703c       _USBD_EndClassDescriptionTable 005b357c     xapilibd:usbd.obj
 0006:00008041       ?sm_2ndLevelHub@IUsbInit@@0EA 005b4581     xapilibd:usbinit.obj
 0006:00009044       _XPP_XInitDevicesHasBeenCalled 005b5584     xapilibd:xpp.obj
 0006:00009048       ?XID_OpenDeviceList@@3PAU_XID_OPEN_DEVICE@@A 005b5588     xapilibd:xidinp.obj
 0006:0000904c       _XDEVICE_TYPE_GAMEPAD_TABLE 005b558c     xapilibd:typeinfo.obj
 0006:00009058       ?GamepadDefaults@@3U_XINPUT_GAMEPAD@@A 005b5598     xapilibd:typeinfo.obj
 0006:0000906c       ?GameInputReportInfoList@@3PAU_XID_REPORT_TYPE_INFO@@A 005b55ac     xapilibd:typeinfo.obj
 0006:00009074       ?RumbleDefaults@@3U_XINPUT_RUMBLE@@A 005b55b4     xapilibd:typeinfo.obj
 0006:00009078       ?GameOutputReportInfoList@@3PAU_XID_REPORT_TYPE_INFO@@A 005b55b8     xapilibd:typeinfo.obj
 0006:00009080       ?GameDefaultPolling@@3U_XINPUT_POLLING_PARAMETERS@@A 005b55c0     xapilibd:typeinfo.obj
 0006:00009084       ?GamepadTypeInfo@@3U_XID_TYPE_INFORMATION@@A 005b55c4     xapilibd:typeinfo.obj
 0006:000090b0       _XDEVICE_TYPE_IR_REMOTE_TABLE 005b55f0     xapilibd:typeinfo.obj
 0006:000090bc       ?IrRemoteDefaults@@3U_XINPUT_IR_REMOTE@@A 005b55fc     xapilibd:typeinfo.obj
 0006:000090c0       ?IrRemoteReportInfoList@@3PAU_XID_REPORT_TYPE_INFO@@A 005b5600     xapilibd:typeinfo.obj
 0006:000090c8       ?IrRemoteDefaultPolling@@3U_XINPUT_POLLING_PARAMETERS@@A 005b5608     xapilibd:typeinfo.obj
 0006:000090cc       ?IrRemoteTypeInfo@@3U_XID_TYPE_INFORMATION@@A 005b560c     xapilibd:typeinfo.obj
 0006:0000911c       _XID_Description           005b565c     xapilibd:xid.obj
 0006:00009134       _XID_1Description          005b5674     xapilibd:xid.obj
 0006:0000914c       ?XID_gResourceRequirements@@3U_USB_RESOURCE_REQUIREMENTS@@A 005b568c     xapilibd:xid.obj
 0006:00009168       ?USBD_PageZeroBytesRemaining@@3KA 005b56a8     xapilibd:usbmem.obj
 0006:0000916c       _USBHUB_Types              005b56ac     xapilibd:hub.obj
 0006:00009170       _USBHUB_Description        005b56b0     xapilibd:hub.obj
 0006:0000a1a0       _USBD_Init@8               005b66e0 f   xapilibd:usbd.obj
 0006:0000a23c       _USBD_NewHostController@8  005b677c f   xapilibd:usbd.obj
 0006:0000a301       _XID_Init@4                005b6841 f   xapilibd:xid.obj
 0006:0000a5e5       _HCD_DriverEntry@4         005b6b25 f   xapilibd:ohcd.obj
 0006:0000a5f7       _HCD_EnumHardware@0        005b6b37 f   xapilibd:ohcd.obj
 0006:0000a649       @OHCD_fSetResources@8      005b6b89 f   xapilibd:ohcd.obj
 0006:0000a6b2       _HCD_NewHostController@12  005b6bf2 f   xapilibd:ohcd.obj
 0006:0000a8a2       ?Init@CDeviceTree@@QAEXKK@Z 005b6de2 f   xapilibd:tree.obj
 0006:0000a96d       ?GetMaxDeviceTypeCount@IUsbInit@@QAEKPAU_XPP_DEVICE_TYPE@@@Z 005b6ead f   xapilibd:usbinit.obj
 0006:0000a9d6       ?UseDefaultCount@IUsbInit@@QAEHXZ 005b6f16 f   xapilibd:usbinit.obj
 0006:0000a9ec       ?RegisterResources@IUsbInit@@QAEXPAU_USB_RESOURCE_REQUIREMENTS@@@Z 005b6f2c f   xapilibd:usbinit.obj
 0006:0000ac88       ?Process@IUsbInit@@QAEXXZ  005b71c8 f   xapilibd:usbinit.obj
 0006:0000ae23       @OHCD_fPoolInit@4          005b7363 f   xapilibd:pool.obj
 0006:0000b16b       @OHCD_ScheduleInitialize@4 005b76ab f   xapilibd:schedule.obj
 0006:0000b1e4       @OHCD_RootHubInitialize@4  005b7724 f   xapilibd:roothub.obj
 0006:0000b2c0       _OHCD_DevSysCheckHardware@4 005b7800 f   xapilibd:devsys.obj
 0006:0000b2ee       _OHCD_DevSysTakeControl@4  005b782e f   xapilibd:devsys.obj
 0006:0000b368       _USBHUB_Init@4             005b78a8 f   xapilibd:hub.obj
 0006:0000c3f5       _XdReportDeviceInsertionRemoval@12 005b8935 f   xapilibd:xpp.obj
 0006:0000c420       _XPeekDevices@12           005b8960 f   xapilibd:xpp.obj
 0006:0000c48c       _XInitDevices@8            005b89cc f   xapilibd:xpp.obj
 0006:0000c4c1       _XGetDevices@4             005b8a01 f   xapilibd:xpp.obj
 0006:0000c50f       _XGetDeviceChanges@12      005b8a4f f   xapilibd:xpp.obj
 0006:0000c5b7       ?XidInsertHandle@@YGXPAU_XID_OPEN_DEVICE@@@Z 005b8af7 f   xapilibd:xidinp.obj
 0006:0000c5eb       ?XidRemoveHandle@@YGXPAU_XID_OPEN_DEVICE@@@Z 005b8b2b f   xapilibd:xidinp.obj
 0006:0000c669       ?XidCheckHandle@@YGXPADPAU_XID_OPEN_DEVICE@@@Z 005b8ba9 f   xapilibd:xidinp.obj
 0006:0000c6f6       _XInputOpen@16             005b8c36 f   xapilibd:xidinp.obj
 0006:0000c819       _XInputClose@4             005b8d59 f   xapilibd:xidinp.obj
 0006:0000c876       _XInputGetCapabilities@8   005b8db6 f   xapilibd:xidinp.obj
 0006:0000cb23       _XInputGetState@8          005b9063 f   xapilibd:xidinp.obj
 0006:0000cbe1       _XInputSetState@8          005b9121 f   xapilibd:xidinp.obj
 0006:0000cc4a       _XInputPoll@4              005b918a f   xapilibd:xidinp.obj
 0006:0000cccd       ?GetTypeInformation@@YIPAU_XID_TYPE_INFORMATION@@EPAE@Z 005b920d f   xapilibd:typeinfo.obj
 0006:0000cd14       ?GetTypeInformation@@YIPAU_XID_TYPE_INFORMATION@@PAU_XPP_DEVICE_TYPE@@@Z 005b9254 f   xapilibd:typeinfo.obj
 0006:0000cd4c       ??0IUsbInit@@QAE@KPAU_XDEVICE_PREALLOC_TYPE@@@Z 005b928c f i xapilibd:usbd.obj
 0006:0000cdbf       ?GetNodeCount@IUsbInit@@QAEEXZ 005b92ff f i xapilibd:usbd.obj
 0006:0000cdc6       ?GetMaxCompositeInterfaces@IUsbInit@@QAEEXZ 005b9306 f i xapilibd:usbd.obj
 0006:0000cdcd       ?GetHcdResourcePtr@IUsbInit@@QAEPAU_HCD_RESOURCE_REQUIREMENTS@@XZ 005b930d f i xapilibd:usbd.obj
 0006:0000cdd4       ?AllocDevice@CDeviceTree@@QAEPAVIUsbDevice@@XZ 005b9314 f i xapilibd:usbd.obj
 0006:0000ce62       _USBD_CompleteRequest@4    005b93a2 f   xapilibd:usbd.obj
 0006:0000ce7e       _USBD_CalculateUsbBandwidth@12 005b93be f   xapilibd:usbd.obj
 0006:0000cefd       ?USBD_FindClassDriver@@YGPAU_USB_CLASS_DRIVER_DESCRIPTION@@T_PNP_CLASS_ID@@@Z 005b943d f   xapilibd:usbd.obj
 0006:0000cf43       ?XID_AllocateHandle@@YGPAU_XID_OPEN_DEVICE@@XZ 005b9483 f i xapilibd:xid.obj
 0006:0000cf7f       ?XID_FreeHandle@@YGXPAU_XID_OPEN_DEVICE@@@Z 005b94bf f i xapilibd:xid.obj
 0006:0000cfa0       ?XID_SetEnumWatchdog@@YGXXZ 005b94e0 f i xapilibd:xid.obj
 0006:0000cfc1       ?XID_ClearEnumWatchdog@@YGXXZ 005b9501 f i xapilibd:xid.obj
 0006:0000cfd0       ?XID_WatchdogTimerProc@@YGXPAU_KDPC@@PAX11@Z 005b9510 f   xapilibd:xid.obj
 0006:0000cff8       ?XID_fRemoveDeviceComplete@@YIXPAU_XID_DEVICE_NODE@@@Z 005b9538 f   xapilibd:xid.obj
 0006:0000d087       ?XID_fFindNode@@YIPAU_XID_DEVICE_NODE@@PAU_XID_TYPE_INFORMATION@@K@Z 005b95c7 f   xapilibd:xid.obj
 0006:0000d10f       ?XID_fOpenEndpoints@@YIJPAU_XID_OPEN_DEVICE@@PAU_XINPUT_POLLING_PARAMETERS@@@Z 005b964f f   xapilibd:xid.obj
 0006:0000d23b       ?XID_CloseEndpointStateMachine@@YGXPAU_URB_CLOSE_ENDPOINT@@PAU_XID_OPEN_DEVICE@@@Z 005b977b f   xapilibd:xid.obj
 0006:0000d367       ?XID_NewInterruptData@@YGXPAT_URB@@PAU_XID_OPEN_DEVICE@@@Z 005b98a7 f   xapilibd:xid.obj
 0006:0000d4f9       ?XID_ClearInputStallComplete@@YGXPAT_URB@@PAU_XID_OPEN_DEVICE@@@Z 005b9a39 f   xapilibd:xid.obj
 0006:0000d5f8       ?XID_ProcessGamepadData@@YIXPAU_XID_OPEN_DEVICE@@@Z 005b9b38 f   xapilibd:xid.obj
 0006:0000d65e       ?XID_ProcessIRRemoteData@@YIXPAU_XID_OPEN_DEVICE@@@Z 005b9b9e f   xapilibd:xid.obj
 0006:0000d68b       ?XID_fOutputComplete1@@YIXPAT_URB@@PAU_XINPUT_FEEDBACK_INTERNAL@@@Z 005b9bcb f   xapilibd:xid.obj
 0006:0000d6c3       ?XID_ClearOutputStallComplete@@YGXPAT_URB@@PAU_XINPUT_FEEDBACK_INTERNAL@@@Z 005b9c03 f   xapilibd:xid.obj
 0006:0000d754       ?XID_SyncComplete@@YGXPAT_URB@@PAU_KEVENT@@@Z 005b9c94 f   xapilibd:xid.obj
 0006:0000d76d       ?XID_fWaitForUrb@@YIXPAVIUsbDevice@@PAT_URB@@PAU_KEVENT@@@Z 005b9cad f   xapilibd:xid.obj
 0006:0000d80e       ?XID_EnumKeyboardComplete@@YGXPAT_URB@@PAU_XID_DEVICE_NODE@@@Z 005b9d4e f   xapilibd:xid.obj
 0006:0000d8d4       ?XID_EnumMouseComplete@@YGXPAT_URB@@PAU_XID_DEVICE_NODE@@@Z 005b9e14 f   xapilibd:xid.obj
 0006:0000d9b1       ?XID_fCloseEndpoints@@YIXPAU_XID_OPEN_DEVICE@@@Z 005b9ef1 f   xapilibd:xid.obj
 0006:0000da1c       ?XID_OutputComplete@@YGXPAT_URB@@PAU_XINPUT_FEEDBACK_INTERNAL@@@Z 005b9f5c f   xapilibd:xid.obj
 0006:0000db20       ?XID_EnumKeyboard@@YGXPAT_URB@@PAU_XID_DEVICE_NODE@@@Z 005ba060 f   xapilibd:xid.obj
 0006:0000dbd1       ?XID_EnumMouse@@YGXPAT_URB@@PAU_XID_DEVICE_NODE@@@Z 005ba111 f   xapilibd:xid.obj
 0006:0000dc82       _XID_RemoveDevice@4        005ba1c2 f   xapilibd:xid.obj
 0006:0000dd2f       ?XID_fCloseDevice@@YIXPAU_XID_OPEN_DEVICE@@@Z 005ba26f f   xapilibd:xid.obj
 0006:0000de29       ?XID_fSendDeviceReport@@YIKPAU_XID_OPEN_DEVICE@@PAU_XINPUT_FEEDBACK_INTERNAL@@@Z 005ba369 f   xapilibd:xid.obj
 0006:0000dfb5       ?XID_EnumLegacy1@@YGXPAT_URB@@PAU_XID_DEVICE_NODE@@@Z 005ba4f5 f   xapilibd:xid.obj
 0006:0000e0cd       ?XID_EnumStage1@@YGXPAT_URB@@PAU_XID_DEVICE_NODE@@@Z 005ba60d f   xapilibd:xid.obj
 0006:0000e20d       ?XID_fOpenDevice@@YIKPAU_XID_TYPE_INFORMATION@@KPAPAU_XID_OPEN_DEVICE@@PAU_XINPUT_POLLING_PARAMETERS@@@Z 005ba74d f   xapilibd:xid.obj
 0006:0000e502       _XID_AddDevice@4           005baa42 f   xapilibd:xid.obj
 0006:0000e6d8       ?Is2ndLevelHubEnabled@IUsbInit@@SGEXZ 005bac18 f i xapilibd:usbdev.obj
 0006:0000e6de       ?GetLowSpeed@IUsbDevice@@QBEEXZ 005bac1e f i xapilibd:usbdev.obj
 0006:0000e6e8       ?GetHubPort@IUsbDevice@@QBEEXZ 005bac28 f i xapilibd:usbdev.obj
 0006:0000e6ee       ?GetParent@IUsbDevice@@QBEPAV1@XZ 005bac2e f i xapilibd:usbdev.obj
 0006:0000e70a       ?GetFirstChild@IUsbDevice@@QBEPAV1@XZ 005bac4a f i xapilibd:usbdev.obj
 0006:0000e726       ?GetSibling@IUsbDevice@@QBEPAV1@XZ 005bac66 f i xapilibd:usbdev.obj
 0006:0000e742       ?USBD_SubmitSynchronousRequestComplete@@YGXPAT_URB@@PAU_KEVENT@@@Z 005bac82 f   xapilibd:usbdev.obj
 0006:0000e75b       ?CancelRequest@IUsbDevice@@QAEJPAT_URB@@@Z 005bac9b f   xapilibd:usbdev.obj
 0006:0000e776       ?GetExtension@IUsbDevice@@QBEPAXXZ 005bacb6 f   xapilibd:usbdev.obj
 0006:0000e77a       ?SetExtension@IUsbDevice@@QAEPAXPAX@Z 005bacba f   xapilibd:usbdev.obj
 0006:0000e78e       ?IsHardwareConnected@IUsbDevice@@QBEEXZ 005bacce f   xapilibd:usbdev.obj
 0006:0000e7ac       ?GetInterfaceNumber@IUsbDevice@@QBEEXZ 005bacec f   xapilibd:usbdev.obj
 0006:0000e7df       ?SetClassSpecificType@IUsbDevice@@QAEXE@Z 005bad1f f   xapilibd:usbdev.obj
 0006:0000e7ef       ?Win32FromUsbdStatus@IUsbDevice@@SGKJ@Z 005bad2f f   xapilibd:usbdev.obj
 0006:0000e885       ?NtStatusFromUsbdStatus@IUsbDevice@@SGJJ@Z 005badc5 f   xapilibd:usbdev.obj
 0006:0000e918       ?GetPort@IUsbDevice@@QBEKXZ 005bae58 f   xapilibd:usbdev.obj
 0006:0000e91c       ?OpenDefaultEndpoint@IUsbDevice@@AAEJPAT_URB@@@Z 005bae5c f   xapilibd:usbdev.obj
 0006:0000ea54       ?CloseDefaultEndpoint@IUsbDevice@@AAEJPAT_URB@@@Z 005baf94 f   xapilibd:usbdev.obj
 0006:0000eadd       ?FindChild@IUsbDevice@@QBEPAV1@E@Z 005bb01d f   xapilibd:usbdev.obj
 0006:0000eb51       ?InsertChild@IUsbDevice@@QAEXPAV1@@Z 005bb091 f   xapilibd:usbdev.obj
 0006:0000ec5d       ?RemoveChild@IUsbDevice@@QAEEPAV1@@Z 005bb19d f   xapilibd:usbdev.obj
 0006:0000ed2b       ?GetClassId@IUsbDevice@@QBE?AT_PNP_CLASS_ID@@XZ 005bb26b f   xapilibd:usbdev.obj
 0006:0000ed5b       ?IsEnumTime@IUsbDevice@@QBEEXZ 005bb29b f   xapilibd:usbdev.obj
 0006:0000ee0b       ?SetExternalPortWithoutHub@IUsbDevice@@QAEXPAPAV1@I@Z 005bb34b f   xapilibd:usbdev.obj
 0006:0000ee9f       ?SubmitRequest@IUsbDevice@@QAEJPAT_URB@@@Z 005bb3df f   xapilibd:usbdev.obj
 0006:0000f032       ?GetDeviceDescriptor@IUsbDevice@@QBEPBU_USB_DEVICE_DESCRIPTOR8@@XZ 005bb572 f   xapilibd:usbdev.obj
 0006:0000f061       ?GetConfigurationDescriptor@IUsbDevice@@QBEPBU_USB_CONFIGURATION_DESCRIPTOR@@XZ 005bb5a1 f   xapilibd:usbdev.obj
 0006:0000f0c0       ?GetInterfaceDescriptor@IUsbDevice@@QBEPBU_USB_INTERFACE_DESCRIPTOR@@XZ 005bb600 f   xapilibd:usbdev.obj
 0006:0000f11f       ?GetEndpointDescriptor@IUsbDevice@@QBEPBU_USB_ENDPOINT_DESCRIPTOR@@EEE@Z 005bb65f f   xapilibd:usbdev.obj
 0006:0000f200       ?SetExternalPortWithHub@IUsbDevice@@QAEXPAPAV1@I@Z 005bb740 f   xapilibd:usbdev.obj
 0006:0000f255       ?SetExternalPort@IUsbDevice@@QAEXXZ 005bb795 f   xapilibd:usbdev.obj
 0006:0000f2d4       _OHCD_PoolGetHcca@4        005bb814 f i xapilibd:ohcd.obj
 0006:0000f30e       _OHCD_PoolAllocateEndpoint@0 005bb84e f i xapilibd:ohcd.obj
 0006:0000f374       _OHCD_PoolFreeEndpoint@4   005bb8b4 f i xapilibd:ohcd.obj
 0006:0000f3bd       _OHCD_PoolGetPhysicalAddress@4 005bb8fd f i xapilibd:ohcd.obj
 0006:0000f3d1       @OHCD_fOpenEndpoint@8      005bb911 f   xapilibd:ohcd.obj
 0006:0000f5c7       @OHCD_fGetEndpointState@8  005bbb07 f   xapilibd:ohcd.obj
 0006:0000f5f0       @OHCD_fSetEndpointState@8  005bbb30 f   xapilibd:ohcd.obj
 0006:0000f629       @OHCD_fDequeueControlTransfer@8 005bbb69 f   xapilibd:ohcd.obj
 0006:0000f6a1       @OHCD_fDequeueBulkTransfer@8 005bbbe1 f   xapilibd:ohcd.obj
 0006:0000f719       @OHCD_fDequeueInterruptTransfer@8 005bbc59 f   xapilibd:ohcd.obj
 0006:0000f780       @OHCD_fCancelQueuedUrbs@8  005bbcc0 f   xapilibd:ohcd.obj
 0006:0000f8bd       @OHCD_fPauseEndpoint@8     005bbdfd f   xapilibd:ohcd.obj
 0006:0000f94c       _OHCD_ShutDown@4           005bbe8c f   xapilibd:ohcd.obj
 0006:0000f999       _HCD_CancelRequest@8       005bbed9 f   xapilibd:ohcd.obj
 0006:0000fad7       @OHCD_fCloseEndpoint@8     005bc017 f   xapilibd:ohcd.obj
 0006:0000fba4       @OHCD_fAbortEndpoint@8     005bc0e4 f   xapilibd:ohcd.obj
 0006:0000fc13       _HCD_SubmitRequest@8       005bc153 f   xapilibd:ohcd.obj
 0006:0000fdc2       ??0IUsbDevice@@QAE@XZ      005bc302 f i xapilibd:tree.obj
 0006:0000fdd8       ?FreeDevice@CDeviceTree@@QAEXPAVIUsbDevice@@@Z 005bc318 f i xapilibd:tree.obj
 0006:0000fe9d       ?DeviceConnected@IUsbDevice@@QAEXEE@Z 005bc3dd f   xapilibd:tree.obj
 0006:00010008       ?USBD_SetEnumWatchDog@@YGXXZ 005bc548 f i xapilibd:tree.obj
 0006:00010032       ?USBD_ClearEnumWatchDog@@YGXXZ 005bc572 f i xapilibd:tree.obj
 0006:00010041       ?USBD_DeviceEnumStagePre1@@YGXJPAX@Z 005bc581 f   xapilibd:tree.obj
 0006:000100df       ?USBD_DeviceEnumStagePre4@@YGXPAT_URB@@PAVIUsbDevice@@@Z 005bc61f f   xapilibd:tree.obj
 0006:00010114       ?USBD_AllocateUsbAddress@@YIEPAU_USBD_HOST_CONTROLLER@@@Z 005bc654 f   xapilibd:tree.obj
 0006:00010151       ?USBD_FreeUsbAddress@@YIXPAU_USBD_HOST_CONTROLLER@@E@Z 005bc691 f   xapilibd:tree.obj
 0006:000101ca       ?IncrementBusyHubCount@IUsbDevice@@SGXXZ 005bc70a f   xapilibd:tree.obj
 0006:00010213       ?DecrementBusyHubCount@IUsbDevice@@SGXXZ 005bc753 f   xapilibd:tree.obj
 0006:0001025c       _XGetDeviceEnumerationStatus@0 005bc79c f   xapilibd:tree.obj
 0006:0001028f       _USBD_DeviceConnected@8    005bc7cf f   xapilibd:tree.obj
 0006:000102ab       ?USBD_DeviceEnumStage0@@YGXXZ 005bc7eb f   xapilibd:tree.obj
 0006:00010325       ?ResetComplete@IUsbDevice@@QAEXJPAX@Z 005bc865 f   xapilibd:tree.obj
 0006:00010330       ?RemoveComplete@IUsbDevice@@QAEXXZ 005bc870 f   xapilibd:tree.obj
 0006:00010404       ?USBD_CompleteDeviceDisconnected@@YGXPAVIUsbDevice@@@Z 005bc944 f   xapilibd:tree.obj
 0006:0001046e       ?USBD_DeviceEnumNextPending@@YGXPAT_URB@@PAVIUsbDevice@@@Z 005bc9ae f   xapilibd:tree.obj
 0006:00010589       ?DeviceDisconnected@IUsbDevice@@QAEXE@Z 005bcac9 f   xapilibd:tree.obj
 0006:000106a9       ?DeviceNotResponding@IUsbDevice@@QAEXXZ 005bcbe9 f   xapilibd:tree.obj
 0006:0001075d       ?USBD_fDeviceAbortEnum2@@YIXPAVIUsbDevice@@@Z 005bcc9d f   xapilibd:tree.obj
 0006:0001081e       _USBD_DeviceDisconnected@8 005bcd5e f   xapilibd:tree.obj
 0006:00010838       ?DisableComplete@IUsbDevice@@QAEXJPAX@Z 005bcd78 f   xapilibd:tree.obj
 0006:00010898       ?USBD_DeviceAbortEnum@@YGXPAT_URB@@PAVIUsbDevice@@@Z 005bcdd8 f   xapilibd:tree.obj
 0006:00010930       ?USBD_DeviceEnumStage3@@YGXPAT_URB@@PAVIUsbDevice@@@Z 005bce70 f   xapilibd:tree.obj
 0006:000109f1       ?AddComplete@IUsbDevice@@QAEXJ@Z 005bcf31 f   xapilibd:tree.obj
 0006:00010c58       ?USBD_LoadClassDriver@@YIXPAVIUsbDevice@@T_PNP_CLASS_ID@@@Z 005bd198 f   xapilibd:tree.obj
 0006:00010c9c       ?USBD_DeviceEnumStage2@@YGXPAT_URB@@PAVIUsbDevice@@@Z 005bd1dc f   xapilibd:tree.obj
 0006:00010e52       ?USBD_DeviceEnumStage6@@YGXPAT_URB@@PAVIUsbDevice@@@Z 005bd392 f   xapilibd:tree.obj
 0006:00011051       ?USBD_fDeviceEnumStage1@@YIXPAVIUsbDevice@@@Z 005bd591 f   xapilibd:tree.obj
 0006:00011201       ?USBD_DeviceEnumStage5@@YGXPAT_URB@@PAVIUsbDevice@@@Z 005bd741 f   xapilibd:tree.obj
 0006:00011349       ?USBD_fDeviceEnumStage4@@YIXPAT_URB@@PAVIUsbDevice@@@Z 005bd889 f   xapilibd:tree.obj
 0006:00011548       ?USBD_DeviceEnumTimerProc@@YGXPAU_KDPC@@PAX11@Z 005bda88 f   xapilibd:tree.obj
 0006:000115df       _USBD_AllocateMemory@8     005bdb1f f   xapilibd:usbmem.obj
 0006:00011663       _USBD_FreeMemory@4         005bdba3 f   xapilibd:usbmem.obj
 0006:00011687       _OHCD_PoolFreeTD@4         005bdbc7 f i xapilibd:pool.obj
 0006:000116af       @OHCD_ScheduleAddEndpointControlOrBulk@8 005bdbef f   xapilibd:schedule.obj
 0006:0001172e       @OHCD_ScheduleRemoveEndpointControlOrBulk@8 005bdc6e f   xapilibd:schedule.obj
 0006:000117fb       @OHCD_ReverseBits@8        005bdd3b f   xapilibd:schedule.obj
 0006:00011816       @OHCD_HookNewEndpointToChildren@12 005bdd56 f   xapilibd:schedule.obj
 0006:00011907       @OHCD_ScheduleAddEndpointPeriodic@8 005bde47 f   xapilibd:schedule.obj
 0006:00011c0c       @OHCD_ScheduleRemoveEndpointPeriodic@8 005be14c f   xapilibd:schedule.obj
 0006:00011e30       _OHCD_PoolTDFromPhysicalAddress@4 005be370 f i xapilibd:isr.obj
 0006:00011e46       _OHCD_PoolCreditControlTDQuota@4 005be386 f i xapilibd:isr.obj
 0006:00011e5c       _OHCD_PoolCreditBulkTDQuota@4 005be39c f i xapilibd:isr.obj
 0006:00011e72       _OHCD_InterruptService@8   005be3b2 f   xapilibd:isr.obj
 0006:00011f31       @OHCD_Get32BitFrameNumber@4 005be471 f   xapilibd:isr.obj
 0006:00011fa2       @OHCD_LockUsbFrameCounterToApuSampleCounter@4 005be4e2 f   xapilibd:isr.obj
 0006:00012111       @OHCD_fCompleteRequest@12  005be651 f   xapilibd:isr.obj
 0006:00012211       @OHCD_fCreditTDQuota@8     005be751 f   xapilibd:isr.obj
 0006:0001225d       @OHCD_fProcessFailedTD@8   005be79d f   xapilibd:isr.obj
 0006:000123e1       @OHCD_fProcessDoneTD@8     005be921 f   xapilibd:isr.obj
 0006:00012515       @OHCD_fProcessCancelPendingList@8 005bea55 f   xapilibd:isr.obj
 0006:000126e1       @OHCD_fCleanEndpointTDs@8  005bec21 f   xapilibd:isr.obj
 0006:000127a2       @OHCD_fProcessAbortPendingList@8 005bece2 f   xapilibd:isr.obj
 0006:00012898       @OHCD_fProcessClosePendingList@8 005bedd8 f   xapilibd:isr.obj
 0006:00012a0b       _OHCD_IsrDpc@16            005bef4b f   xapilibd:isr.obj
 0006:00012bfa       @OHCD_RootHubProcessHotPlug@8 005bf13a f   xapilibd:roothub.obj
 0006:00012cf7       _HCD_ResetRootHubPort@16   005bf237 f   xapilibd:roothub.obj
 0006:00012db0       _HCD_DisableRootHubPort@8  005bf2f0 f   xapilibd:roothub.obj
 0006:00012e03       _OHCD_RootHubResetDpc@16   005bf343 f   xapilibd:roothub.obj
 0006:00012e64       @OHCD_RootHubProcessInterrupt@4 005bf3a4 f   xapilibd:roothub.obj
 0006:00012f7d       _OHCD_IsochPoolAllocateEndpoint@0 005bf4bd f i xapilibd:isoch.obj
 0006:00012fe2       _OHCD_IsochPoolFreeEndpoint@4 005bf522 f i xapilibd:isoch.obj
 0006:0001302a       _OHCD_IsochPoolGetMaxBuffers@0 005bf56a f i xapilibd:isoch.obj
 0006:00013030       @OHCD_fIsochOpenEndpoint@8 005bf570 f   xapilibd:isoch.obj
 0006:0001323e       @OHCD_fIsochCloseEndpoint@8 005bf77e f   xapilibd:isoch.obj
 0006:000132bb       @OHCD_fIsochCompleteCloseEndpoint@8 005bf7fb f   xapilibd:isoch.obj
 0006:00013368       @OHCD_fIsochAttachBuffer@8 005bf8a8 f   xapilibd:isoch.obj
 0006:00013594       @OHCD_fIsochStartTransfer@8 005bfad4 f   xapilibd:isoch.obj
 0006:0001371f       @OHCD_fIsochStopTransfer@8 005bfc5f f   xapilibd:isoch.obj
 0006:000137b5       @OHCD_fIsochProcessTD@8    005bfcf5 f   xapilibd:isoch.obj
 0006:000138e1       _OHCD_PoolAllocateTD@4     005bfe21 f i xapilibd:transfer.obj
 0006:00013931       _OHCD_PoolGetControlQuota@0 005bfe71 f i xapilibd:transfer.obj
 0006:00013938       _OHCD_PoolDebitControlTDQuota@4 005bfe78 f i xapilibd:transfer.obj
 0006:00013962       _OHCD_PoolGetBulkQuota@0   005bfea2 f i xapilibd:transfer.obj
 0006:00013969       _OHCD_PoolDebitBulkTDQuota@4 005bfea9 f i xapilibd:transfer.obj
 0006:00013993       @OHCD_fGetTDsRequired@8    005bfed3 f   xapilibd:transfer.obj
 0006:00013a16       @OHCD_fMapTransfer@12      005bff56 f   xapilibd:transfer.obj
 0006:00013a62       @OHCD_fProgramTransfer@12  005bffa2 f   xapilibd:transfer.obj
 0006:00013e47       @OHCD_fProgramInterruptTransfer@8 005c0387 f   xapilibd:transfer.obj
 0006:00013eef       @OHCD_fProgramBulkTransfer@4 005c042f f   xapilibd:transfer.obj
 0006:00013f90       @OHCD_fProgramControlTransfer@4 005c04d0 f   xapilibd:transfer.obj
 0006:00014031       @OHCD_fQueueInterruptTransfer@12 005c0571 f   xapilibd:transfer.obj
 0006:000140c2       @OHCD_fQueueBulkTransfer@8 005c0602 f   xapilibd:transfer.obj
 0006:0001415b       @OHCD_fQueueControlTransfer@8 005c069b f   xapilibd:transfer.obj
 0006:000141f4       @OHCD_fQueueTransferRequest@8 005c0734 f   xapilibd:transfer.obj
 0006:0001436c       ?USBHUB_ClearEnumWatchdog@@YGXXZ 005c08ac f i xapilibd:hub.obj
 0006:0001437b       ?USBHUB_ResetComplete@@YGXPAT_URB@@PAVIUsbDevice@@@Z 005c08bb f   xapilibd:hub.obj
 0006:000143b4       ?USBHUB_DisableComplete@@YGXPAT_URB@@PAVIUsbDevice@@@Z 005c08f4 f   xapilibd:hub.obj
 0006:000143e3       ?USBHUB_RelatchPortSpeed@@YGXPAVIUsbDevice@@@Z 005c0923 f   xapilibd:hub.obj
 0006:0001445b       ?USBHUB_SetBusy@@YGXPAU_USBHUB_DEVICE_NODE@@H@Z 005c099b f   xapilibd:hub.obj
 0006:0001449f       ?USBHUB_WatchdogTimerProc@@YGXPAU_KDPC@@PAX11@Z 005c09df f   xapilibd:hub.obj
 0006:0001453d       ?USBHUB_SetEnumWatchdog@@YGXK@Z 005c0a7d f i xapilibd:hub.obj
 0006:000145bc       ?USBHUB_PortProcessChange@@YGXPAVIUsbDevice@@@Z 005c0afc f   xapilibd:hub.obj
 0006:000147bd       ?USBHUB_RemoveHubComplete@@YGXPAT_URB@@PAVIUsbDevice@@@Z 005c0cfd f   xapilibd:hub.obj
 0006:0001488b       ?USBHUB_DisableResetPort@@YGXPAVIUsbDevice@@EPAXE@Z 005c0dcb f   xapilibd:hub.obj
 0006:000149bc       ?USBHUB_RemoveHubStage2@@YGXPAT_URB@@PAVIUsbDevice@@@Z 005c0efc f   xapilibd:hub.obj
 0006:00014a2a       ?USBHUB_RemoveHubStage1@@YGXPAVIUsbDevice@@@Z 005c0f6a f   xapilibd:hub.obj
 0006:00014ab2       ?USBHUB_ClearInterruptStallComplete@@YGXPAT_URB@@PAVIUsbDevice@@@Z 005c0ff2 f   xapilibd:hub.obj
 0006:00014b69       ?USBHUB_PortStatusChange2@@YGXPAT_URB@@PAVIUsbDevice@@@Z 005c10a9 f   xapilibd:hub.obj
 0006:00014bdd       ?USBHUB_ClearHubFeatureComplete@@YGXPAT_URB@@PAVIUsbDevice@@@Z 005c111d f   xapilibd:hub.obj
 0006:00014c51       _USBHUB_RemoveDevice@4     005c1191 f   xapilibd:hub.obj
 0006:00014d15       ?USBHUB_ChangeNotifyComplete@@YGXPAT_URB@@PAVIUsbDevice@@@Z 005c1255 f   xapilibd:hub.obj
 0006:00014e16       ?USBHUB_HubStatusChange@@YGXPAT_URB@@PAVIUsbDevice@@@Z 005c1356 f   xapilibd:hub.obj
 0006:00014f1a       ?USBHUB_PoweringPorts@@YGXPAT_URB@@PAVIUsbDevice@@@Z 005c145a f   xapilibd:hub.obj
 0006:00014fbf       ?USBHUB_PortStatusChange1@@YGXPAVIUsbDevice@@@Z 005c14ff f   xapilibd:hub.obj
 0006:000150c6       ?USBHUB_ClearPortFeatureComplete@@YGXPAT_URB@@PAVIUsbDevice@@@Z 005c1606 f   xapilibd:hub.obj
 0006:00015105       ?USBHUB_RelatchPortSpeedComplete@@YGXPAT_URB@@PAVIUsbDevice@@@Z 005c1645 f   xapilibd:hub.obj
 0006:000151a8       ?USBHUB_EnumHubComplete@@YGXPAT_URB@@PAVIUsbDevice@@@Z 005c16e8 f   xapilibd:hub.obj
 0006:000152a7       ?USBHUB_EnumHubStage2@@YGXPAT_URB@@PAVIUsbDevice@@@Z 005c17e7 f   xapilibd:hub.obj
 0006:00015343       ?USBHUB_EnumHubStage1@@YGXPAT_URB@@PAVIUsbDevice@@@Z 005c1883 f   xapilibd:hub.obj
 0006:000154e0       _USBHUB_AddDevice@4        005c1a20 f   xapilibd:hub.obj
 0006:00016678       ??_C@_0BO@HNPNAOGN@XPP_XInitDevicesHasBeenCalled?$AA@ 005c2bb8     xapilibd:xpp.obj
 0006:0001669c       ??_C@_0DA@FHKNIPKM@XGetDevices?3?5XInitDevices?5must?5b@ 005c2bdc     xapilibd:xpp.obj
 0006:000166d8       ??_C@_0DH@HENBNECC@XInitDevices?$CI?$CJ?5is?5called?5more?5th@ 005c2c18     xapilibd:xpp.obj
 0006:0001671c       ??_C@_0DG@BHOJGNOO@XGetDeviceChanges?3?5XInitDevices?5@ 005c2c5c     xapilibd:xpp.obj
 0006:0001675c       ??_C@_0BN@IFCGIBGD@XInputClose?3?5Invalid?5Handle?6?$AA@ 005c2c9c     xapilibd:xidinp.obj
 0006:00016780       ??_C@_0BN@LHKGEOBL@?$CFs?3?5Invalid?5Handle?$CI0x?$CF0?48x?$CJ?6?$AA@ 005c2cc0     xapilibd:xidinp.obj
 0006:000167a8       ??_C@_0EK@IGHOOHBH@?$CItypeInformation?9?$DOulFlags?$CGXID_BS@ 005c2ce8     xapilibd:xidinp.obj
 0006:00016800       ??_C@_0BH@IDHOGKEL@dwPort?$DMXGetPortCount?$CI?$CJ?$AA@ 005c2d40     xapilibd:xidinp.obj
 0006:00016820       ??_C@_0EF@BIBMICIC@XInputOpen?3?5XppDeviceType?5is?5not@ 005c2d60     xapilibd:xidinp.obj
 0006:00016874       ??_C@_0CP@PBGCADHL@XInputOpen?3?5XInitDevices?5must?5be@ 005c2db4     xapilibd:xidinp.obj
 0006:000168b0       ??_C@_0EK@DJNLPFAD@?$CFs?$CI?$CFld?$CJ?3?5Assertion?5that?5IRQL?5was@ 005c2df0     xapilibd:xidinp.obj
 0006:00016908       ??_C@_0DD@MPAHNOHJ@d?3?2xbox?9dec03?2private?2ntos?2dd?2us@ 005c2e48     xapilibd:xidinp.obj
 0006:00016948       ??_C@_0BG@ELBNFOBA@XInputGetCapabilities?$AA@ 005c2e88     xapilibd:xidinp.obj
 0006:00016964       ??_C@_0DE@LMJKMBEB@XInputGetState?5not?5supported?5for@ 005c2ea4     xapilibd:xidinp.obj
 0006:000169a4       ??_C@_0P@FCCEJHCC@XInputGetState?$AA@ 005c2ee4     xapilibd:xidinp.obj
 0006:000169b8       ??_C@_0DE@JJAAJHI@XInputSetState?5not?5supported?5for@ 005c2ef8     xapilibd:xidinp.obj
 0006:000169f8       ??_C@_0P@KDAIIEFP@XInputSetState?$AA@ 005c2f38     xapilibd:xidinp.obj
 0006:00016a0c       ??_C@_0L@PBGLBLJE@XInputPoll?$AA@ 005c2f4c     xapilibd:xidinp.obj
 0006:00016a1c       ??_C@_0CE@JNFIAJCE@UDN_INVALID_NODE_INDEX?5?$CB?$DN?5nodeIn@ 005c2f5c     xapilibd:usbd.obj
 0006:00016a48       ??_C@_0CO@GKJHOACK@d?3?2xbox?9dec03?2private?2ntos?2dd?2us@ 005c2f88     xapilibd:usbd.obj
 0006:00016a80       ??_C@_0BI@GGMGNHGK@hostController?9?$DORootHub?$AA@ 005c2fc0     xapilibd:usbd.obj
 0006:00016a9c       ??_C@_0DA@GDKONCGA@d?3?2xbox?9dec03?2private?2ntos?2dd?2us@ 005c2fdc     xapilibd:usbd.obj
 0006:00016ad8       ??_C@_0P@LGLFMDDD@EndpointType?$DM4?$AA@ 005c3018     xapilibd:usbd.obj
 0006:00016aec       ??_C@_06CDDEOMKH@retVal?$AA@ 005c302c     xapilibd:xid.obj
 0006:00016af4       ??_C@_0CO@JIAKMILO@d?3?2xbox?9dec03?2private?2ntos?2dd?2us@ 005c3034     xapilibd:xid.obj
 0006:00016b2c       ??_C@_06HLKELJGF@memory?$AA@ 005c306c     xapilibd:xid.obj
 0006:00016b34       ??_C@_0CF@KDAMJLPF@dwTypeIndex?5?$DM?5DEVICE_TYPE_STACK_@ 005c3074     xapilibd:xid.obj
 0006:00016b60       ??_C@_0DA@EDDGMHBJ@d?3?2xbox?9dec03?2private?2ntos?2dd?2us@ 005c30a0     xapilibd:xid.obj
 0006:00016b9c       ??_C@_0CJ@MMPDIKNI@Enumeration?5Watchdog?5Timer?5has?5e@ 005c30dc     xapilibd:xid.obj
 0006:00016bd0       ??_C@_0BH@JEAIMGOM@XidNode?9?$DOPendingRemove?$AA@ 005c3110     xapilibd:xid.obj
 0006:00016bf0       ??_C@_0FC@EDGKHFPA@?$CFs?$CI?$CFld?$CJ?3?5Routine?5which?5must?5be?5c@ 005c3130     xapilibd:xid.obj
 0006:00016c54       ??_C@_0CH@MIFFIEGB@OpenDevice?9?$DOInterruptOutEndpoint@ 005c3194     xapilibd:xid.obj
 0006:00016c84       ??_C@_0CG@KCNCFJJL@OpenDevice?9?$DOInterruptInEndpointH@ 005c31c4     xapilibd:xid.obj
 0006:00016cb4       ??_C@_0BH@MPMGPHCN@OpenDevice?9?$DOCloseEvent?$AA@ 005c31f4     xapilibd:xid.obj
 0006:00016cd0       ??_C@_0DD@DKLLGIGC@OpenDevice?9?$DOClosePending?5?$HM?$HM?5xidN@ 005c3210     xapilibd:xid.obj
 0006:00016d10       ??_C@_0EP@KPMOEDEO@4?5consecutive?5poll?5errors?4?5Repor@ 005c3250     xapilibd:xid.obj
 0006:00016d70       ??_C@_0CP@BIMELAFM@An?5input?5device?5poll?5failed?4?5Sta@ 005c32b0     xapilibd:xid.obj
 0006:00016da8       ??_C@_0CO@GGDDGGMH@Packet?5came?5back?5larger?5than?5max@ 005c32e8     xapilibd:xid.obj
 0006:00016de0       ??_C@_0EK@FDNFNHOO@Failed?5to?5clear?5halt?4?5Report?5dev@ 005c3320     xapilibd:xid.obj
 0006:00016e38       ??_C@_0CB@NFFJDEFL@Reset?5endpoint?0?5resume?5polling?4?6@ 005c3378     xapilibd:xid.obj
 0006:00016e60       ??_C@_0BF@KNCKIPE@USBD_SUCCESS?$CIstatus?$CJ?$AA@ 005c33a0     xapilibd:xid.obj
 0006:00016e7c       ??_C@_0DM@LFLMBIAG@Attempt?5to?5clear?5endpoint?5stall?5@ 005c33bc     xapilibd:xid.obj
 0006:00016ec8       ??_C@_0FB@LIMNGCJH@?$CFs?$CI?$CFld?$CJ?3?5Routine?5which?5must?5be?5c@ 005c3408     xapilibd:xid.obj
 0006:00016f2c       ??_C@_0BL@GPEOPGMN@Illegal?5keyboard?5topology?4?$AA@ 005c346c     xapilibd:xid.obj
 0006:00016f4c       ??_C@_0CD@OPJMPBJI@No?5keyboard?5support?5in?5this?5buil@ 005c348c     xapilibd:xid.obj
 0006:00016f78       ??_C@_0BI@IGPACJFO@Illegal?5mouse?5topology?4?$AA@ 005c34b8     xapilibd:xid.obj
 0006:00016f94       ??_C@_0CA@DFOLALCJ@No?5mouse?5support?5in?5this?5build?4?$AA@ 005c34d4     xapilibd:xid.obj
 0006:00016fbc       ??_C@_0CP@DNONJFMJ@The?5interrupt?9Out?5endpoint?5stall@ 005c34fc     xapilibd:xid.obj
 0006:00016ff4       ??_C@_0BA@INCOJDDG@NULL?5?$CB?$DN?5xidNode?$AA@ 005c3534     xapilibd:xid.obj
 0006:00017008       ??_C@_0IO@LNLGOONO@ERROR?3?5pFeedback?9?$DOHeader?4hEvent?5@ 005c3548     xapilibd:xid.obj
 0006:000170b4       ??_C@_0BH@HCBCOLMJ@Unsupported?5XID?5Device?$AA@ 005c35f4     xapilibd:xid.obj
 0006:000170d0       ??_C@_0DJ@LONGADLH@Device?5in?5port?5?$CFd?5?$CI0?5based?$CJ?5does@ 005c3610     xapilibd:xid.obj
 0006:00017114       ??_C@_0BD@GHOMIAIJ@endpointDescriptor?$AA@ 005c3654     xapilibd:xid.obj
 0006:00017130       ??_C@_0EK@OEFNIAPL@?$CIUDN_TYPE_INTERFACE?5?$DN?$DN?5m_Type?$CJ?5?$HM@ 005c3670     xapilibd:usbdev.obj
 0006:00017188       ??_C@_0DC@KGHGJBCH@d?3?2xbox?9dec03?2private?2ntos?2dd?2us@ 005c36c8     xapilibd:usbdev.obj
 0006:000171c4       ??_C@_05MAJJAKPI@FALSE?$AA@ 005c3704     xapilibd:usbdev.obj
 0006:000171cc       ??_C@_0BC@EEPBDKMG@m_DefaultEndpoint?$AA@ 005c370c     xapilibd:usbdev.obj
 0006:000171e4       ??_C@_06MLKDMCBD@parent?$AA@ 005c3724     xapilibd:usbdev.obj
 0006:000171ec       ??_C@_0BK@JBFCLJBH@NULL?5?$DN?$DN?5m_DefaultEndpoint?$AA@ 005c372c     xapilibd:usbdev.obj
 0006:00017210       ??_C@_0GF@GHMIMGHK@?$CIUDN_TYPE_HUB?5?$DN?$DN?5m_Type?$CJ?5?$HM?$HM?5?$CIUDN@ 005c3750     xapilibd:usbdev.obj
 0006:0001728c       ??_C@_0BF@DDPOLMJH@existingChild?$CB?$DNchild?$AA@ 005c37cc     xapilibd:usbdev.obj
 0006:000172a8       ??_C@_0CD@DBMHGNGO@UDN_INVALID_NODE_INDEX?5?$DO?5nodeInd@ 005c37e8     xapilibd:usbdev.obj
 0006:000172d4       ??_C@_0CA@GLPEGOJM@child?5?$DO?$DN?5g_DeviceTree?4m_Devices?$AA@ 005c3814     xapilibd:usbdev.obj
 0006:000172fc       ??_C@_09FCGNCKM@prevChild?$AA@ 005c383c     xapilibd:usbdev.obj
 0006:00017308       ??_C@_0CK@JLPNKKBC@g_DeviceTree?4m_CurrentEnum?5?$DN?$DN?5Ge@ 005c3848     xapilibd:usbdev.obj
 0006:0001733c       ??_C@_0M@ODGKLAJL@GetParent?$CI?$CJ?$AA@ 005c387c     xapilibd:usbdev.obj
 0006:0001734c       ??_C@_0N@OHIPGMOM@IsEnumTime?$CI?$CJ?$AA@ 005c388c     xapilibd:usbdev.obj
 0006:00017360       ??_C@_0EI@KCCPDMNB@?$CIUDN_TYPE_INTERFACE?5?$DN?$DN?5m_Type?$CJ?$HM?$HM@ 005c38a0     xapilibd:usbdev.obj
 0006:000173b8       ??_C@_0P@GBPECKOI@0?$CB?$DNdeviceIndex?$AA@ 005c38f8     xapilibd:usbdev.obj
 0006:000173cc       ??_C@_0DA@IONGJGKA@HCD_MAX_HOST_CONTROLLERS?5?$DO?5HostC@ 005c390c     xapilibd:ohcd.obj
 0006:00017408       ??_C@_0CO@HJHCNFGO@d?3?2xbox?9dec03?2private?2ntos?2dd?2us@ 005c3948     xapilibd:ohcd.obj
 0006:00017440       ??_C@_0CF@OPOAAKHG@KeGetCurrentIrql?$CI?$CJ?5?$DN?$DN?5DISPATCH_L@ 005c3980     xapilibd:ohcd.obj
 0006:0001746c       ??_C@_0DJ@GHJOJHMK@USB_ENDPOINT_TYPE_INTERRUPT?5?$DN?$DN?5n@ 005c39ac     xapilibd:ohcd.obj
 0006:000174b0       ??_C@_0CO@JKIGAMKF@d?3?2xbox?9dec03?2private?2ntos?2dd?2us@ 005c39f0     xapilibd:ohcd.obj
 0006:000174e8       ??_C@_0CI@KCDENCAE@Attempt?5to?5exceed?5registered?5end@ 005c3a28     xapilibd:ohcd.obj
 0006:00017518       ??_C@_0FN@PAJAOLIJ@PciDevice?9?$DOResourceData?4Address?$FL@ 005c3a58     xapilibd:ohcd.obj
 0006:00017588       ??_C@_0EA@DGCOKDOA@PciDevice?9?$DOResourceData?4Address?$FL@ 005c3ac8     xapilibd:ohcd.obj
 0006:000175d4       ??_C@_0CP@PGHBIEM@urbOnQueue?5?$CB?$DN?5DeviceExtension?9?$DOC@ 005c3b14     xapilibd:ohcd.obj
 0006:0001760c       ??_C@_0CM@DGFGMGKJ@urbOnQueue?5?$CB?$DN?5DeviceExtension?9?$DOB@ 005c3b4c     xapilibd:ohcd.obj
 0006:00017640       ??_C@_0CI@EEPKEDMO@urbOnQueue?5?$CB?$DN?5Endpoint?9?$DOPendingU@ 005c3b80     xapilibd:ohcd.obj
 0006:00017670       ??_C@_0BO@KGJLCMNE@0?5?$DN?$DN?5Endpoint?9?$DOQueuedUrbCount?$AA@ 005c3bb0     xapilibd:ohcd.obj
 0006:00017694       ??_C@_0L@GGEBIMKE@currentUrb?$AA@ 005c3bd4     xapilibd:ohcd.obj
 0006:000176a4       ??_C@_0DE@INANPCOC@Unrecognized?5endpoint?5type?5in?5OH@ 005c3be4     xapilibd:ohcd.obj
 0006:000176e4       ??_C@_0DH@OALEBJFA@interruptConnected?5?$CG?$CG?5?$CCFailed?5to@ 005c3c24     xapilibd:ohcd.obj
 0006:00017728       ??_C@_0DP@FFOAPCBO@Urb?9?$DOCommonTransfer?4Hca?4HcdUrbFl@ 005c3c68     xapilibd:ohcd.obj
 0006:00017774       ??_C@_0DP@PEENHJEO@Unrecognized?5or?5Unsupported?5endp@ 005c3cb4     xapilibd:ohcd.obj
 0006:000177c0       ??_C@_0HN@BBCIIMLE@?$CIURB_FUNCTION_CONTROL_TRANSFER?5?$DN@ 005c3d00     xapilibd:ohcd.obj
 0006:00017858       ??_C@_0CG@JCKGIPCK@DeviceExtension?9?$DOPendingCloses?5?$CB@ 005c3d98     xapilibd:ohcd.obj
 0006:00017888       ??_C@_0DI@FIADEGKA@USB_ENDPOINT_TYPE_ISOCHRONOUS?5?$CB?$DN@ 005c3dc8     xapilibd:ohcd.obj
 0006:000178cc       ??_C@_0BL@FLDPHJMJ@FALSE?5?$CG?$CG?5?$CCUnsupported?5URB?$CC?$AA@ 005c3e0c     xapilibd:ohcd.obj
 0006:000178ec       ??_C@_0CD@GDDNLKGE@Urb?9?$DOCommonTransfer?4EndpointHand@ 005c3e2c     xapilibd:ohcd.obj
 0006:00017918       ??_C@_0BH@DEHEFGDI@usbDevice?5?$DO?$DN?5m_Devices?$AA@ 005c3e58     xapilibd:tree.obj
 0006:00017934       ??_C@_04PHJNDLLK@USBD?$AA@ 005c3e74     xapilibd:tree.obj
 0006:0001793c       ??_C@_0DM@IDINILGN@Number?5of?5Devices?5Attached?0?5exce@ 005c3e7c     xapilibd:tree.obj
 0006:00017984       ??_C@_0DK@LMHGBHJJ@?$CIUDN_TYPE_HUB?5?$DN?$DN?5m_Type?$CJ?5?$HM?$HM?5?$CIUDN@ 005c3ec4     xapilibd:tree.obj
 0006:000179cc       ??_C@_0DA@LGIECLJG@d?3?2xbox?9dec03?2private?2ntos?2dd?2us@ 005c3f0c     xapilibd:tree.obj
 0006:00017a08       ??_C@_0CK@LMJFKFMD@?$CB?$CIdevice?9?$DOm_PortNumber?$CGUDN_LOWSP@ 005c3f48     xapilibd:tree.obj
 0006:00017a3c       ??_C@_0DB@BCEEHFML@Pre?5Stage?51?5detects?5failue?3?5Usbd@ 005c3f7c     xapilibd:tree.obj
 0006:00017a78       ??_C@_0CJ@PANPHMMG@DeviceAddress?5?$DO?50?5?$CG?$CG?5DeviceAddre@ 005c3fb8     xapilibd:tree.obj
 0006:00017aac       ??_C@_0M@EOGGKKNN@prevPending?$AA@ 005c3fec     xapilibd:tree.obj
 0006:00017abc       ??_C@_06CHPEJBOD@device?$AA@ 005c3ffc     xapilibd:tree.obj
 0006:00017ac8       ??_C@_0FM@FMOCEE@Address?5?$CFd?5is?5about?5to?5leak?0?5a?5d@ 005c4008     xapilibd:tree.obj
 0006:00017b38       ??_C@_0BD@KOJNPMFJ@Enumeration?5Failed?$AA@ 005c4078     xapilibd:tree.obj
 0006:00017b50       ??_C@_0GC@ENKFBMHJ@currentParseLocation?5?$DM?5?$CIg_Device@ 005c4090     xapilibd:tree.obj
 0006:00017bc8       ??_C@_0DA@OHCGPAO@Unsupported?5Device?5or?5Class?5Driv@ 005c4108     xapilibd:tree.obj
 0006:00017c04       ??_C@_0DL@LCEECAOA@Stage?52?5detects?5failue?3?5Removed?5@ 005c4144     xapilibd:tree.obj
 0006:00017c4c       ??_C@_04HCDDPBNL@TRUE?$AA@ 005c418c     xapilibd:tree.obj
 0006:00017c58       ??_C@_0EF@FFFGIGGC@A?5device?5returned?5a?5corrupt?5devi@ 005c4198     xapilibd:tree.obj
 0006:00017cac       ??_C@_0BC@JIDMLKI@device?9?$DOm_Address?$AA@ 005c41ec     xapilibd:tree.obj
 0006:00017cc4       ??_C@_0CC@CDDGFCIL@Corrupt?5Configuration?5Descriptor@ 005c4204     xapilibd:tree.obj
 0006:00017cec       ??_C@_0BK@CEHBNOAK@Device?9?$DOm_DefaultEndpoint?$AA@ 005c422c     xapilibd:tree.obj
 0006:00017d0c       ??_C@_0CA@CLJKFEEP@Stage?51?5detects?5device?5removal?4?$AA@ 005c424c     xapilibd:tree.obj
 0006:00017d38       ??_C@_0EF@MCGHMMK@Device?5did?5not?5return?5entire?5con@ 005c4278     xapilibd:tree.obj
 0006:00017d90       ??_C@_0GF@ENPMNGBI@Unsupported?5Hardware?3?5Configurat@ 005c42d0     xapilibd:tree.obj
 0006:00017e0c       ??_C@_0BG@MAIIDAAN@Enumeration?5Timed?5out?$AA@ 005c434c     xapilibd:tree.obj
 0006:00017e28       ??_C@_0DL@LJGPCCAA@transferDescriptorsCount?5?$DO?$DN?5pRes@ 005c4368     xapilibd:pool.obj
 0006:00017e70       ??_C@_0BF@EKPFLLLJ@poolEnd?5?$DO?5poolMemory?$AA@ 005c43b0     xapilibd:pool.obj
 0006:00017e8c       ??_C@_0L@JIKCBIOE@poolMemory?$AA@ 005c43cc     xapilibd:pool.obj
 0006:00017ea0       ??_C@_0EP@GOPIHPMB@XInitDevices?5failed?5due?5to?5insuf@ 005c43e0     xapilibd:pool.obj
 0006:00017f00       ??_C@_0BN@CCJFMMJN@0?$DN?$DN?$CIcombinedEndpointSize?$CJ?$CF32?$AA@ 005c4440     xapilibd:pool.obj
 0006:00017f24       ??_C@_0BI@FNIFFHEJ@0?$DN?$DNisochEndpointSize?$CF16?$AA@ 005c4464     xapilibd:pool.obj
 0006:00017f40       ??_C@_0CO@BGFBBFNE@d?3?2xbox?9dec03?2private?2ntos?2dd?2us@ 005c4480     xapilibd:pool.obj
 0006:00017f78       ??_C@_0DC@FJCGDDO@d?3?2xbox?9dec03?2private?2ntos?2dd?2us@ 005c44b8     xapilibd:schedule.obj
 0006:00017fb4       ??_C@_0BI@OGJHOPLA@NULL?5?$CB?$DN?5currentEndpoint?$AA@ 005c44f4     xapilibd:schedule.obj
 0006:00017fd0       ??_C@_0DC@NMKDLCNG@NULL?5?$CB?$DN?5interruptSchedule?$FLnodeCh@ 005c4510     xapilibd:schedule.obj
 0006:0001800c       ??_C@_0DC@BKECOLMM@NULL?5?$DN?$DN?5interruptSchedule?$FLnodeCh@ 005c454c     xapilibd:schedule.obj
 0006:00018048       ??_C@_0DL@MLGPNHOC@NULL?5?$CB?$DN?5schedule?9?$DOInterruptSched@ 005c4588     xapilibd:schedule.obj
 0006:00018090       ??_C@_0CJ@KDFDCJBK@0?$DN?$DNEndpoint?9?$DOHcEndpointDescripto@ 005c45d0     xapilibd:schedule.obj
 0006:000180c4       ??_C@_0DL@NKIOKHOK@NULL?5?$DN?$DN?5schedule?9?$DOInterruptSched@ 005c4604     xapilibd:schedule.obj
 0006:00018110       ??_C@_0GL@JBEFFBFK@INSUFFICIENT?5BANDIWDTH?3?6?5Request@ 005c4650     xapilibd:schedule.obj
 0006:00018190       ??_C@_0BM@CNDOGEPF@Endpoint?5?$DN?$DN?5currentEndpoint?$AA@ 005c46d0     xapilibd:schedule.obj
 0006:000181b4       ??_C@_0CL@CBHLHELF@USBD_STATUS_CANCELED?5?$DN?$DN?5Urb?9?$DOHea@ 005c46f4     xapilibd:isr.obj
 0006:000181e8       ??_C@_0M@COPPLDPA@urbCur?$DN?$DNUrb?$AA@ 005c4728     xapilibd:isr.obj
 0006:000181f8       ??_C@_0CN@PMBCGPEJ@d?3?2xbox?9dec03?2private?2ntos?2dd?2us@ 005c4738     xapilibd:isr.obj
 0006:00018230       ??_C@_0DB@HOPBEOHP@Unrecognized?5endpoint?5type?5in?5OH@ 005c4770     xapilibd:isr.obj
 0006:0001826c       ??_C@_0BF@OFIPJMJI@bytesTransfered?5?$DO?$DN?50?$AA@ 005c47ac     xapilibd:isr.obj
 0006:00018288       ??_C@_0DL@JBEPFLCF@OHCI_CC_NO_ERROR?5?$CB?$DN?5TD?9?$DOHcTransf@ 005c47c8     xapilibd:isr.obj
 0006:000182d0       ??_C@_0BP@EHGEKBHB@TD?9?$DOType?5?$CB?$DN?5OHCD_TD_TYPE_DUMMY?$AA@ 005c4810     xapilibd:isr.obj
 0006:000182f8       ??_C@_0BG@BANBNPCI@urb?5?$DN?$DN?5currentTD?9?$DOUrb?$AA@ 005c4838     xapilibd:isr.obj
 0006:00018318       ??_C@_0EB@NMNGNPAI@?$CB?$CIurb?9?$DOCommonTransfer?4Hca?4HcdUrb@ 005c4858     xapilibd:isr.obj
 0006:00018368       ??_C@_0BP@POANHDNF@OHCD_TD_TYPE_DUMMY?5?$DN?$DN?5TD?9?$DOType?$AA@ 005c48a8     xapilibd:isr.obj
 0006:00018390       ??_C@_0BP@PHBPNDKI@OHCD_TD_TYPE_DUMMY?5?$CB?$DN?5TD?9?$DOType?$AA@ 005c48d0     xapilibd:isr.obj
 0006:000183b8       ??_C@_0CB@BMLBDBBM@0?$DN?$DN?9?9endpoint?9?$DOPendingPauseCount@ 005c48f8     xapilibd:isr.obj
 0006:000183e0       ??_C@_0CA@ODINKJCO@0?$DN?$DNendpoint?9?$DOProgrammedUrbCount?$AA@ 005c4920     xapilibd:isr.obj
 0006:00018408       ??_C@_0BM@OJCKNEBF@0?$DN?$DNendpoint?9?$DOQueuedUrbCount?$AA@ 005c4948     xapilibd:isr.obj
 0006:0001842c       ??_C@_0DK@PFKHHLLD@FALSE?5?$CG?$CG?5?$CCNot?5expecting?5interrup@ 005c496c     xapilibd:isr.obj
 0006:00018474       ??_C@_06NHLAFFFN@tempTD?$AA@ 005c49b4     xapilibd:isr.obj
 0006:0001847c       ??_C@_0DF@JEJEHDOC@doneHead?5?$CG?$CG?5?$CCXbox?5hardware?5shoul@ 005c49bc     xapilibd:isr.obj
 0006:000184c0       ??_C@_0EN@NMOEJPHN@FALSE?5?$CG?$CG?5?$CCWow?0?5what?5do?5we?5do?5her@ 005c4a00     xapilibd:isr.obj
 0006:0001851c       ??_C@_0CB@HAANOCIG@Remove?5and?5Add?5in?5one?5interrupt?4@ 005c4a5c     xapilibd:roothub.obj
 0006:00018544       ??_C@_0DB@CKBAPPEN@d?3?2xbox?9dec03?2private?2ntos?2dd?2us@ 005c4a84     xapilibd:roothub.obj
 0006:00018580       ??_C@_0DF@MNEMJJMI@NULL?5?$DN?$DN?5deviceExtension?9?$DORootHub@ 005c4ac0     xapilibd:roothub.obj
 0006:000185c0       ??_C@_0DK@CJNALOGG@deviceExtension?9?$DORootHubObject?4N@ 005c4b00     xapilibd:roothub.obj
 0006:00018608       ??_C@_0CD@LLPKPCFM@Reset?5Timed?5Out?3?5Context?5?$DN?50X?$CF0?4@ 005c4b48     xapilibd:roothub.obj
 0006:00018634       ??_C@_0CI@KNOEECP@A?5port?5reset?5timed?5out?5on?5the?5ro@ 005c4b74     xapilibd:roothub.obj
 0006:00018664       ??_C@_0DE@GPCMFOJ@Port?5?$CFd?5of?5the?5root?5hub?5is?5indic@ 005c4ba4     xapilibd:roothub.obj
 0006:000186a8       ??_C@_0EI@NGHAFIKL@?$CI0x10?5?$DN?$DN?5?$CI0xFF?5?$CG?5Revision?$CJ?$CJ?5?$CG?$CG?5?$CC@ 005c4be8     xapilibd:devsys.obj
 0006:00018700       ??_C@_0DA@EOIKIDIN@d?3?2xbox?9dec03?2private?2ntos?2dd?2us@ 005c4c40     xapilibd:devsys.obj
 0006:0001873c       ??_C@_0CP@EIJPCNKF@d?3?2xbox?9dec03?2private?2ntos?2dd?2us@ 005c4c7c     xapilibd:isoch.obj
 0006:00018774       ??_C@_0DD@HBFJKCLP@transferDescriptor?9?$DOIsochTransfe@ 005c4cb4     xapilibd:isoch.obj
 0006:000187b4       ??_C@_0DI@CCPLOABG@0?5?$DN?$DN?5transferDescriptor?9?$DOIsochTr@ 005c4cf4     xapilibd:isoch.obj
 0006:000187f8       ??_C@_08OKOOPKMJ@endpoint?$AA@ 005c4d38     xapilibd:isoch.obj
 0006:00018804       ??_C@_0DI@INOMKGLK@USB_ENDPOINT_TYPE_ISOCHRONOUS?5?$DN?$DN@ 005c4d44     xapilibd:isoch.obj
 0006:00018848       ??_C@_0GC@FJEEDGJC@Urb?9?$DOCommonTransfer?4TransferBuff@ 005c4d88     xapilibd:transfer.obj
 0006:000188c0       ??_C@_0DC@PCOJOJEE@d?3?2xbox?9dec03?2private?2ntos?2dd?2us@ 005c4e00     xapilibd:transfer.obj
 0006:000188fc       ??_C@_0CP@IKGKHPID@1?$DN?$DNEndpoint?9?$DOHcEndpointDescripto@ 005c4e3c     xapilibd:transfer.obj
 0006:00018934       ??_C@_0DE@JOMBBOKB@URB_FUNCTION_CONTROL_TRANSFER?$DN?$DNU@ 005c4e74     xapilibd:transfer.obj
 0006:00018974       ??_C@_0DO@BJGGGPGG@URB_FUNCTION_BULK_OR_INTERRUPT_T@ 005c4eb4     xapilibd:transfer.obj
 0006:000189c0       ??_C@_0FM@BPGHCLJA@Unrecognized?5endpoint?5type?5in?5OH@ 005c4f00     xapilibd:transfer.obj
 0006:00018a30       ??_C@_0CO@NOAFEDEF@?$CB?$CIOHCD_ENDPOINT_FLAG_CLOSING?$CGend@ 005c4f70     xapilibd:transfer.obj
 0006:00018a68       ??_C@_06ENMPCGOP@USBHUB?$AA@ 005c4fa8     xapilibd:hub.obj
 0006:00018a70       ??_C@_0BJ@EKABBBBF@Watchdog?5timer?5proc?5hit?4?$AA@ 005c4fb0     xapilibd:hub.obj
 0006:00018a90       ??_C@_0DL@MFONBEOL@Port?5change?5bitmask?5not?5recogniz@ 005c4fd0     xapilibd:hub.obj
 0006:00018ad8       ??_C@_0CA@LOHNLOCD@Overcurrent?5detected?5on?5port?5?$CFd?$AA@ 005c5018     xapilibd:hub.obj
 0006:00018b00       ??_C@_0EF@OHDFECCE@Unexpected?5changed?5in?5suspend?5st@ 005c5040     xapilibd:hub.obj
 0006:00018b54       ??_C@_0CE@GOFHHFBJ@Remove?5and?5Add?5in?5One?5Notificati@ 005c5094     xapilibd:hub.obj
 0006:00018b80       ??_C@_0DL@HBHKIGHC@Reset?5Completed?0?5but?5port?5not?5en@ 005c50c0     xapilibd:hub.obj
 0006:00018bc8       ??_C@_0CA@HFJKFGAK@Abort?5Enumeration?0?5allow?5retry?4?$AA@ 005c5108     xapilibd:hub.obj
 0006:00018bf0       ??_C@_0DB@MIDDLIGA@d?3?2xbox?9dec03?2private?2ntos?2dd?2us@ 005c5130     xapilibd:hub.obj
 0006:00018c2c       ??_C@_0CH@EEIBIGCF@Reset?5failed?5due?5to?5invalid?5para@ 005c516c     xapilibd:hub.obj
 0006:00018c5c       ??_C@_07LBGNDHCG@hubNode?$AA@ 005c519c     xapilibd:hub.obj
 0006:00018c68       ??_C@_0CM@KJOBKADI@HubStatusChange?5called?5when?5ther@ 005c51a8     xapilibd:hub.obj
 0006:00018c9c       ??_C@_0BF@NPEBMKFH@Error?5Powering?5Port?4?$AA@ 005c51dc     xapilibd:hub.obj
 0006:00018cb8       ??_C@_0BI@OLGPBKFK@7?5?$DO?$DN?5hubNode?9?$DOPortCount?$AA@ 005c51f8     xapilibd:hub.obj
 0006:00018cd4       ??_C@_0CF@PLMDLIOG@Corrupt?5Hub?5Configuration?5Descri@ 005c5214     xapilibd:hub.obj
 0006:00018d00       ??_C@_0CB@MCOIEEAN@hubNode?9?$DOInterruptEndpointHandle@ 005c5240     xapilibd:hub.obj
 0006:00019f60       ??_C@_0N@NCEKPPPL@XInitDevices?$AA@ 005c64a0     xapilibd:usbinit.obj
 0006:00019f70       ??_C@_0LO@BAEEHBMA@A?5device?5type?5was?5explictly?5list@ 005c64b0     xapilibd:usbinit.obj
 0006:0001a054       ??_C@_0BL@IKHLKEEC@ulMaxDevices?5?$DM?$DN?5ulMaxPorts?$AA@ 005c6594     xapilibd:usbinit.obj
 0006:0001a074       ??_C@_0DD@PIPKOCDC@d?3?2xbox?9dec03?2private?2ntos?2dd?2us@ 005c65b4     xapilibd:usbinit.obj
 0007:0000001c       __real@3f800000            005c761c     KStars.obj
 0007:00000020       __real@00000000            005c7620     KStars.obj
 0007:00000024       __real@43000000            005c7624     KStars.obj
 0007:00000028       __real@437f0000            005c7628     KStars.obj
 0007:00000030       _D3DDIRTYFROMTEXTURESTATE  005c7630     Main.obj
 0007:000000a0       _D3DDIRTYFROMRENDERSTATE   005c76a0     Main.obj
 0007:00000174       _D3DTEXTUREDIRECTENCODE    005c7774     Main.obj
 0007:00000188       _D3DSIMPLERENDERSTATEENCODE 005c7788     Main.obj
 0007:00000348       _D3DPRIMITIVETOVERTEXCOUNT 005c7948     Main.obj
 0007:000003b4       ??_C@_0BA@EPNLJDHC@d?3?2default2?4xbe?$AA@ 005c79b4     Main.obj
 0007:000003c8       ??_C@_0M@KPJDHDOF@d?3?2doa1?4xbe?$AA@ 005c79c8     Main.obj
 0007:000003d8       ??_C@_02ELAABJPC@?5?$DM?$AA@ 005c79d8     Main.obj
 0007:000003dc       ??_C@_02LLMPMKNF@?$DO?5?$AA@ 005c79dc     Main.obj
 0007:000003e0       __real@43480000            005c79e0     Main.obj
 0007:000003e4       __real@41800000            005c79e4     Main.obj
 0007:000003e8       ??_7CXBoxSample@@6B@       005c79e8     Main.obj
 0007:00000400       __real@0000000000000000    005c7a00     Main.obj
 0007:00000410       __real@3f5921fb54442d18    005c7a10     Main.obj
 0007:0000041c       ??_C@_08GAOCMOKB@logo?4png?$AA@ 005c7a1c     Main.obj
 0007:00000428       __real@3fd9999a            005c7a28     Main.obj
 0007:0000042c       __real@3ff33333            005c7a2c     Main.obj
 0007:00000430       __real@3f000000            005c7a30     Main.obj
 0007:00000434       __real@3fc00000            005c7a34     Main.obj
 0007:00000438       __real@44200000            005c7a38     Main.obj
 0007:0000043c       __real@437f8000            005c7a3c     Main.obj
 0007:00000440       __real@44100000            005c7a40     Main.obj
 0007:00000444       ??_C@_0DF@MJJLJEMJ@?5ABCDEFGHIJKLMNOPQRSTUVWXYZ12345@ 005c7a44     Main.obj
 0007:00000484       __real@3e800000            005c7a84     Main.obj
 0007:00000488       __real@44800000            005c7a88     Main.obj
 0007:0000048c       ??_C@_0DD@IBJEKCDE@?5ABCDEFGHIJKLMNOPQRSTUVWXYZ01234@ 005c7a8c     Main.obj
 0007:000004cc       __real@42c40000            005c7acc     Main.obj
 0007:000004d0       __real@43960000            005c7ad0     Main.obj
 0007:000004d4       __real@40800000            005c7ad4     Main.obj
 0007:000004d8       __real@3f59999a            005c7ad8     Main.obj
 0007:000004dc       __real@40a00000            005c7adc     Main.obj
 0007:000004e0       ??_7CXBApplication@@6B@    005c7ae0     xbapp.obj
 0007:000004f4       ??_C@_0CF@PAAIEHKL@XBApp?3?5Call?5to?5Initialize?$CI?$CJ?5fail@ 005c7af4     xbapp.obj
 0007:00000520       ??_C@_0CA@NJKLEDNI@XBApp?3?5Initializing?5the?5app?4?4?4?6?$AA@ 005c7b20     xbapp.obj
 0007:00000548       ??_C@_0CJ@JNPKNCGA@XBApp?3?5Call?5to?5CreateGamepads?$CI?$CJ?5@ 005c7b48     xbapp.obj
 0007:0000057c       ??_C@_0CE@DPCMCBGG@XBApp?3?5Creating?5gamepad?5devices?4@ 005c7b7c     xbapp.obj
 0007:000005a8       ??_C@_0CF@PKOHMDM@XBApp?3?5Could?5not?5create?5D3D?5devi@ 005c7ba8     xbapp.obj
 0007:000005d4       ??_C@_0CD@IBHJPJCP@XBApp?3?5Creating?5the?5D3D?5device?4?4@ 005c7bd4     xbapp.obj
 0007:00000600       ??_C@_0CD@OJKHHPIC@XBApp?3?5Unable?5to?5create?5Direct3D@ 005c7c00     xbapp.obj
 0007:0000062c       ??_C@_0BN@IHBPMCJF@XBApp?3?5Creating?5Direct3D?4?4?4?6?$AA@ 005c7c2c     xbapp.obj
 0007:00000650       ??_C@_1BG@HNCPNOMG@?$AA?$CF?$AA0?$AA?4?$AA0?$AA2?$AAf?$AA?5?$AAf?$AAp?$AAs?$AA?$AA@ 005c7c50     xbapp.obj
 0007:0000066c       ??_C@_0CD@CCAKHLFF@XBApp?3?5Running?5the?5application?4?4@ 005c7c6c     xbapp.obj
 0007:00000698       __real@bf000000            005c7c98     xbapp.obj
 0007:0000069c       __real@3f428f5c            005c7c9c     xbinput.obj
 0007:000006a0       __real@3e75c28f            005c7ca0     xbinput.obj
 0007:000006a4       __real@bf800000            005c7ca4     xbinput.obj
 0007:000006a8       __real@46ffff00            005c7ca8     xbinput.obj
 0007:000006ac       ??_C@_0DC@JKJCJIAA@XBUtil_FindMediaFile?$CI?$CJ?3?5Could?5no@ 005c7cac     xbutil.obj
 0007:000006e8       ??_C@_04HDOCAJNK@?$CFs?$CFs?$AA@ 005c7ce8     xbutil.obj
 0007:000006f0       ??_C@_0CL@MFHAJKPM@XBUtil_FindMediaFile?$CI?$CJ?3?5Invalid?5@ 005c7cf0     xbutil.obj
 0007:00000724       __real@3dcccccd            005c7d24     xbutil.obj
 0007:00000728       __real@447a0000            005c7d28     xbutil.obj
 0007:0000072c       ??_C@_0DL@IOAOFBDJ@XBUtil_CreatePixelShader?$CI?$CJ?3?5Coul@ 005c7d2c     xbutil.obj
 0007:00000774       ??_C@_0DH@JKLAGNPE@XBUtil_CreatePixelShader?$CI?$CJ?3?5Inva@ 005c7d74     xbutil.obj
 0007:000007b8       __real@40000000            005c7db8     xbutil.obj
 0007:000007bc       __real@42ff0000            005c7dbc     xbutil.obj
 0007:000007c0       ??_C@_02GMLFBBN@wb?$AA@    005c7dc0     xbutil.obj
 0007:000007c8       __real@3ff0000000000000    005c7dc8     xbutil.obj
 0007:000007d4       ??_C@_0BE@LOGNGIMF@nChars?5?$DN?$DN?5nWide?5?9?51?$AA@ 005c7dd4     xbutil.obj
 0007:000007ec       ??_C@_09BOKNFCNL@dwMax?5?$DO?50?$AA@ 005c7dec     xbutil.obj
 0007:000007f8       ??_C@_0BA@DDGDHKIC@strWide?5?$CB?$DN?5NULL?$AA@ 005c7df8     xbutil.obj
 0007:0000080c       ??_C@_0BA@CGHIOMND@strThin?5?$CB?$DN?5NULL?$AA@ 005c7e0c     xbutil.obj
 0007:00000820       ??_C@_0CK@HDCABLG@d?3?2progetti?2xbox?2xdk?2loadergfx?2x@ 005c7e20     xbutil.obj
 0007:00000854       ??_C@_0BP@OBNHJBN@dwFileSize?5?$DM?$DN?564?5?$CK?51024?5?$CK?51024?$AA@ 005c7e54     xbutil.obj
 0007:000008a0       ??_C@_06IDFKHCBC@?2?$DP?$DP?2D?3?$AA@ 005c7ea0     xapilibd:launch.obj
 0007:000008a8       ??_C@_0BG@IJGLKIIJ@?$CIpLaunchData?5?$CB?$DN?5NULL?$CJ?$AA@ 005c7ea8     xapilibd:launch.obj
 0007:000008c4       ??_C@_0BM@JKMADBPG@?$CIpdwLaunchDataType?5?$CB?$DN?5NULL?$CJ?$AA@ 005c7ec4     xapilibd:launch.obj
 0007:000008e8       ??_C@_0BB@JNNDADEN@XGetLaunchInfo?$CI?$CJ?$AA@ 005c7ee8     xapilibd:launch.obj
 0007:000008fc       ??_C@_04FPBBGJEM@XAPI?$AA@ 005c7efc     xapilibd:launch.obj
 0007:00000904       ??_C@_0DH@HFKEEJIB@I?1O?5still?5in?5progress?5when?5XLaun@ 005c7f04     xapilibd:launch.obj
 0007:00000948       ??_C@_03MOAJGPLE@EXT?$AA@  005c7f48     xapilibd:outputdebugstringa.obj
 0007:0000094c       ??_C@_03NGKCLAHG@ENT?$AA@  005c7f4c     xapilibd:outputdebugstringa.obj
 0007:00000950       ??_C@_03COLIFOAO@TRC?$AA@  005c7f50     xapilibd:outputdebugstringa.obj
 0007:00000954       ??_C@_03IJKDIPKN@WRN?$AA@  005c7f54     xapilibd:outputdebugstringa.obj
 0007:00000958       ??_C@_03JFMEENOE@ERR?$AA@  005c7f58     xapilibd:outputdebugstringa.obj
 0007:0000095c       ??_C@_03HDCFNBIM@?$CB?$CB?$CB?$AA@ 005c7f5c     xapilibd:outputdebugstringa.obj
 0007:00000960       ??_C@_0M@NFKDGPJN@?$CFs?$FL?$CFs?$FN?3?5?$CFs?6?$AA@ 005c7f60     xapilibd:outputdebugstringa.obj
 0007:00000970       ??_C@_03BBKEAIF@?$DP?$DP?$DP?$AA@ 005c7f70     xapilibd:outputdebugstringa.obj
 0007:00000974       ??_C@_0DP@CALAOJLE@CreateFile?$CI?$CJ?5?9?5invalid?5parameter@ 005c7f74     xapilibd:fileopcr.obj
 0007:000009c0       ??_C@_0DE@NPEFFNNG@SetFilePointer?$CI?$CJ?5?9?5invalid?5param@ 005c7fc0     xapilibd:filehops.obj
 0007:00000a00       ??_C@_0DG@IMLIKBFK@SetFilePointerEx?$CI?$CJ?5?9?5invalid?5par@ 005c8000     xapilibd:filehops.obj
 0007:00000a40       ??_C@_0CA@JOFLIEJD@0?5?$CG?$CG?5?$CCCP_UTF7?5is?5not?5supported?$CC?$AA@ 005c8040     xapilibd:widechar.obj
 0007:00000a68       ??_C@_0CP@PMFMGPNF@d?3?2xbox?9dec03?2private?2ntos?2xapi?2@ 005c8068     xapilibd:widechar.obj
 0007:00000aa0       ??_C@_0CG@LKCFAPOM@0?5?$CG?$CG?5?$CClpDefaultChar?5is?5not?5suppo@ 005c80a0     xapilibd:widechar.obj
 0007:00000ad0       ??_C@_0CJ@LKEJDNHL@GetLastError?$CI?$CJ?5called?5on?5non?9XAP@ 005c80d0     xapilibd:error.obj
 0007:00000b04       ??_C@_0CJ@PGAEELGF@SetLastError?$CI?$CJ?5called?5on?5non?9XAP@ 005c8104     xapilibd:error.obj
 0007:00000b38       ??_C@_0BP@NHKOPJGC@Main?5thread?5should?5not?5return?4?$AA@ 005c8138     xapilibd:xapi0.obj
 0007:00000b60       ??_C@_06JHKEECDB@?2?$DP?$DP?2Y?3?$AA@ 005c8160     xapilibd:bootutil.obj
 0007:00000b68       ??_C@_08FCIBIDEF@t?3?2$u?2?$CFs?$AA@ 005c8168     xapilibd:bootutil.obj
 0007:00000b74       ??_C@_0P@PPFCKJAD@?2Device?2Cdrom0?$AA@ 005c8174     xapilibd:bootutil.obj
 0007:00000b88       ??_C@_0DB@GMMDDJIH@XoRebootToUpdaterWhilePreserving@ 005c8188     xapilibd:bootutil.obj
 0007:00000bc4       ??_C@_0M@GFMLFEEL@pld?5?$CB?$DN?5NULL?$AA@ 005c81c4     xapilibd:bootutil.obj
 0007:00000bd4       ??_C@_0BK@ENOGALDK@pdwLaunchInfoType?5?$CB?$DN?5NULL?$AA@ 005c81d4     xapilibd:bootutil.obj
 0007:00000bf4       ??_C@_0BG@GLAEPMBI@pszDDrivePath?5?$CB?$DN?5NULL?$AA@ 005c81f4     xapilibd:bootutil.obj
 0007:00000c10       ??_C@_0CD@IOCGNFCL@XoUpdateGetSavedDataFromLaunchPa@ 005c8210     xapilibd:bootutil.obj
 0007:00000c3c       ??_C@_0CN@JAKJCFPA@XapipUpdateGetCurrentDDriveMappi@ 005c823c     xapilibd:bootutil.obj
 0007:00000c74       ??_C@_0BG@CPFCBBFC@cchDDrivePathMax?5?$CB?$DN?50?$AA@ 005c8274     xapilibd:bootutil.obj
 0007:00000c90       ??_C@_0BH@KDFBGHBM@pochDDrivePath?5?$CB?$DN?5NULL?$AA@ 005c8290     xapilibd:bootutil.obj
 0007:00000cac       ??_C@_0CD@GIPPAKCA@XapipUpdateGetCurrentDDriveMappi@ 005c82ac     xapilibd:bootutil.obj
 0007:00000cd8       ??_C@_0EK@NHENDNJH@XapipUpdateSaveDDriveMappingToLa@ 005c82d8     xapilibd:bootutil.obj
 0007:00000d30       ??_C@_0L@DDCDFMAM@cbSize?5?$DO?51?$AA@ 005c8330     xapilibd:bootutil.obj
 0007:00000d40       ??_C@_0N@DGAKMIII@pldp?5?$CB?$DN?5NULL?$AA@ 005c8340     xapilibd:bootutil.obj
 0007:00000d50       ??_C@_0BH@OBHLFBFH@LaunchDataPage?5?$CB?$DN?5NULL?$AA@ 005c8350     xapilibd:bootutil.obj
 0007:00000d6c       ??_C@_0CJ@GLDOHMEK@XapipUpdateSaveDDriveMappingToLa@ 005c836c     xapilibd:bootutil.obj
 0007:00000da0       ??_C@_0CK@OIFONPIN@Not?5rebooting?5because?5of?5invalid@ 005c83a0     xapilibd:bootutil.obj
 0007:00000dd4       ??_C@_0BC@CBJDGNLL@New?5Version?3?5?$CF08x?$AA@ 005c83d4     xapilibd:bootutil.obj
 0007:00000dec       ??_C@_0DO@BCEHCLIP@Not?5rebooting?5because?5TID?5mismat@ 005c83ec     xapilibd:bootutil.obj
 0007:00000e38       ??_C@_0DN@ECIKMIED@Not?5rebooting?5because?5none?5of?5th@ 005c8438     xapilibd:bootutil.obj
 0007:00000e84       ??_C@_0BO@LALMEMNC@Found?5matching?5version?50x?$CF08x?$AA@ 005c8484     xapilibd:bootutil.obj
 0007:00000ea8       ??_C@_08HKJMGJLA@XAPIBOOT?$AA@ 005c84a8     xapilibd:bootutil.obj
 0007:00000eb4       ??_C@_0DA@KCJAHKLG@Not?5rebooting?5because?5the?5digest@ 005c84b4     xapilibd:bootutil.obj
 0007:00000ef0       ??_C@_0DM@NKOGHFMG@Not?5rebooting?5because?5metadata?5f@ 005c84f0     xapilibd:bootutil.obj
 0007:00000f38       ??_C@_0BA@PHOGFBJD@contentmeta?4xbx?$AA@ 005c8538     xapilibd:bootutil.obj
 0007:00000f4c       ??_C@_0BK@LBCAJEOL@y?3?2XODash?2xonlinedash?4xbe?$AA@ 005c854c     xapilibd:bootutil.obj
 0007:00000f6c       ??_C@_0BA@BCGJNLEA@y?3?2xboxdash?4xbe?$AA@ 005c856c     xapilibd:bootutil.obj
 0007:00000f80       ??_C@_0BC@EHJNPMDK@d?3?2dashupdate?4xbe?$AA@ 005c8580     xapilibd:bootutil.obj
 0007:00000f98       ??_C@_0EI@KNNNODGJ@Reboot?3?5Invalid?5target?5drive?$CB?5Su@ 005c8598     xapilibd:bootutil.obj
 0007:00000ff0       ??_C@_0CG@HDPBGALD@Reboot?3?5Reboot?5path?5too?5long?5for@ 005c85f0     xapilibd:bootutil.obj
 0007:00001020       ??_C@_0CI@KPGMBHI@Reboot?3?5Reboot?5path?5too?5long?5for@ 005c8620     xapilibd:bootutil.obj
 0007:00001050       ??_C@_0CB@EMPJKFGP@Remapping?5D?3?5Drive?5as?5preserved?6@ 005c8650     xapilibd:bootutil.obj
 0007:00001078       ??_C@_0BM@ECLLEPGB@Not?5rebooting?0?5unknown?5path?$AA@ 005c8678     xapilibd:bootutil.obj
 0007:0000109c       ??_C@_0CH@KEIJJJMB@Not?5rebooting?5because?5already?5in@ 005c869c     xapilibd:bootutil.obj
 0007:000010cc       ??_C@_0O@MENAEJCL@$u?5path?3?5?$DM?$CFs?$DO?$AA@ 005c86cc     xapilibd:bootutil.obj
 0007:000010dc       ??_C@_0BN@JIPLDMEN@XapipUpdateRebootIfNecessary?$AA@ 005c86dc     xapilibd:bootutil.obj
 0007:00001100       ??_C@_0BD@IKFMBKKK@?$CI?$CIint?$CJcbSize?5?$DO?$DN?50?$CJ?$AA@ 005c8700     xapilibd:bootutil.obj
 0007:00001118       ??_C@_0CM@OBDNEFI@?2Device?2Harddisk0?2Partition1?2TDA@ 005c8718     xapilibd:bootutil.obj
 0007:0000114c       ??_C@_0DH@KKDAPMDJ@XapipUpdateRebootIfNecessary?3?5Ca@ 005c874c     xapilibd:bootutil.obj
 0007:00001190       ??_C@_0CA@JHJCPDEM@Rebooting?5into?5?$CFs?0?5LDT?$DN?$CF08x?5?4?4?4?$AA@ 005c8790     xapilibd:bootutil.obj
 0007:000011b8       ??_C@_0CC@HHFHNBLA@Error?3?5Launch?5path?5too?5long?3?5?$CFs?$CF@ 005c87b8     xapilibd:bootutil.obj
 0007:000011e0       ??_C@_06EJNCFCDC@t?3?2$u?2?$AA@ 005c87e0     xapilibd:bootutil.obj
 0007:00001228       ??_C@_03DLFMDLOA@XID?$AA@  005c8828     xapilibd:xid.obj
 0007:0000122c       __tls_used                 005c882c     xapilibd:xapitls.obj
 0007:00001248       ??_C@_0CD@LFDIGKDL@?2Device?2Harddisk0?2partition1?2UDA@ 005c8848     xapilibd:xapiinit.obj
 0007:00001274       ??_C@_06JOLOLLFF@?2?$DP?$DP?2U?3?$AA@ 005c8874     xapilibd:xapiinit.obj
 0007:0000127c       ??_C@_0CD@HOGELJJO@?2Device?2Harddisk0?2partition1?2TDA@ 005c887c     xapilibd:xapiinit.obj
 0007:000012a8       ??_C@_06JPHMNBGC@?2?$DP?$DP?2T?3?$AA@ 005c88a8     xapilibd:xapiinit.obj
 0007:000012b0       ??_C@_0BO@GJJLMLHN@?2Device?2Harddisk0?2partition1?2?$AA@ 005c88b0     xapilibd:xapiinit.obj
 0007:000012d4       ??_C@_0P@DOJDIGAH@?2Device?2CdRom0?$AA@ 005c88d4     xapilibd:xapiinit.obj
 0007:000013f4       ??_C@_0DF@DPDPGHII@XapiCopySectionToFile?$CI?$CJ?5failed?5t@ 005c89f4     xapilibd:xapiinit.obj
 0007:00001434       ??_C@_0DA@GIIMBON@XapiCopySectionToFile?$CI?$CJ?5failed?5t@ 005c8a34     xapilibd:xapiinit.obj
 0007:00001470       ??_C@_0EJ@HBALNMNC@?$CIINVALID_HANDLE_VALUE?5?$CB?$DN?5Section@ 005c8a70     xapilibd:xapiinit.obj
 0007:000014c8       ??_C@_0CP@GLLJPCKM@d?3?2xbox?9dec03?2private?2ntos?2xapi?2@ 005c8ac8     xapilibd:xapiinit.obj
 0007:00001500       ??_C@_0EF@CHJEJEDG@XapiMapLetterToDirectory?$CI?$CJ?3?5IoCr@ 005c8b00     xapilibd:xapiinit.obj
 0007:00001558       ??_C@_0ED@BOBMKJHB@XapiMapLetterToDirectory?$CI?$CJ?3?5NtCr@ 005c8b58     xapilibd:xapiinit.obj
 0007:000015a8       ??_C@_0DI@KMHOEMGJ@XapiMapLetterToDirectory?$CI?$CJ?5faile@ 005c8ba8     xapilibd:xapiinit.obj
 0007:000015ec       ??_C@_1CA@NCOAEKIF@?$AA?$CF?$AAl?$AAc?$AA?$CF?$AAl?$AAs?$AA?$CF?$AAl?$AAc?$AA?$CF?$AAl?$AAs?$AA?$CF?$AAl?$AAs?$AA?$AA@ 005c8bec     xapilibd:xapiinit.obj
 0007:00001614       ??_C@_0DL@MEJNHMHG@XapiMapLetterToDirectory?$CI?$CJ?5faile@ 005c8c14     xapilibd:xapiinit.obj
 0007:0000165c       ??_C@_09ECGHCENE@$$XSIMAGE?$AA@ 005c8c5c     xapilibd:xapiinit.obj
 0007:00001668       ??_C@_09IHMABKFK@$$XTIMAGE?$AA@ 005c8c68     xapilibd:xapiinit.obj
 0007:00001674       ??_C@_08BBCMAOON@$$XTINFO?$AA@ 005c8c74     xapilibd:xapiinit.obj
 0007:00001680       ??_C@_0FB@BCNNCEEM@pcPathString?9?$DOLength?5?$DM?5?$CIsizeof?$CIs@ 005c8c80     xapilibd:xapiinit.obj
 0007:000016e4       ??_C@_0CH@IAPCLBGA@ocslen?$CIpcszTitleId?$CJ?5?$DM?5CCHMAX_HEX@ 005c8ce4     xapilibd:xapiinit.obj
 0007:00001718       ??_C@_0ED@DIOIHJHC@XapiMapLetterToDirectory?$CI?$CJ?3?5NtCr@ 005c8d18     xapilibd:xapiinit.obj
 0007:00001768       ??_C@_0CN@EIFJOCAO@pcDriveString?5?$CG?$CG?5pcPathString?5?$CG?$CG@ 005c8d68     xapilibd:xapiinit.obj
 0007:000017a0       ??_C@_05CLMJGDKL@?$CF08lx?$AA@ 005c8da0     xapilibd:xapiinit.obj
 0007:000017a8       ??_C@_0EG@GBDPGOLP@Go?5to?5the?5Xbox?5dashboard?5to?5chan@ 005c8da8     xapilibd:xapiinit.obj
 0007:00001800       ??_C@_0EG@NIOPNNHN@The?5box?8s?5parental?5control?5setti@ 005c8e00     xapilibd:xapiinit.obj
 0007:00001854       ??_C@_0CJ@EAOFBIJH@Could?5not?5set?5up?5per?9title?5drive@ 005c8e54     xapilibd:xapiinit.obj
 0007:00001888       ??_C@_0EB@JMJDPHK@The?5D?3?5drive?5is?5not?5assigned?5to?5@ 005c8e88     xapilibd:xapiinit.obj
 0007:000018d8       ??_C@_0BP@HJNNPHEH@Runtime?5initialization?5failed?$CB?$AA@ 005c8ed8     xapilibd:xapi0dat.obj
 0007:00001900       ??_C@_0DM@HGKBMLFK@XSetProcessQuantumSize?$CI?$CJ?5invalid@ 005c8f00     xapilibd:thread.obj
 0007:00001948       ??_C@_0DF@EEOMJCEI@Code?5?$CFx?5Addr?5?$CFp?6Info0?5?$CFp?5Info1?5?$CF@ 005c8f48     xapilibd:thread.obj
 0007:00001988       ??_C@_0DF@LMNAOJJG@Unhandled?5XAPI?5Exception?4?5Except@ 005c8f88     xapilibd:thread.obj
 0007:000019c8       ??_C@_0BP@LKJJFLJB@?$CI?$CIULONG_PTR?$CJTlsData?5?$CG?515?$CJ?5?$DN?$DN?50?$AA@ 005c8fc8     xapilibd:thread.obj
 0007:000019f0       ??_C@_0HK@PFJOJBEK@?$CIULONG_PTR?$CJKeGetCurrentThread?$CI?$CJ?9@ 005c8ff0     xapilibd:thread.obj
 0007:00001a84       ??_C@_0BO@EIJBBOPN@KeGetCurrentThread?$CI?$CJ?9?$DOTlsData?$AA@ 005c9084     xapilibd:thread.obj
 0007:00001aa8       ??_C@_0CE@KKOENIAD@KeGetCurrentIrql?$CI?$CJ?5?$DN?$DN?5PASSIVE_LE@ 005c90a8     xapilibd:thread.obj
 0007:00001ad4       ??_C@_0CN@HOBMLPL@d?3?2xbox?9dec03?2private?2ntos?2xapi?2@ 005c90d4     xapilibd:thread.obj
 0007:00001b20       ??_C@_06JNDKGPDL@?2?$DP?$DP?2W?3?$AA@ 005c9120     xapilibd:contsig.obj
 0007:00001c08       _XapipContentDirectoryTemplate 005c9208     xapilibd:contsig.obj
 0007:00001c48       ??_C@_0DD@DIPOMPKG@XContentSignatureFileName?3?5direc@ 005c9248     xapilibd:contsig.obj
 0007:00001c88       ??_C@_0CP@DKKAJKDG@XGetContentInstallLocation?$CI?$CJ?5inv@ 005c9288     xapilibd:contsig.obj
 0007:00001cc0       ??_C@_0CO@JDGGCCIM@XInstallContentSignatures?$CI?$CJ?5inva@ 005c92c0     xapilibd:contsig.obj
 0007:00001cf8       ??_C@_0CJ@IEIFNPEP@XCreateContentSimple?$CI?$CJ?5invalid?5p@ 005c92f8     xapilibd:contsig.obj
 0007:00001d2c       ??_C@_0CD@NBBCEICH@XRemoveContent?$CI?$CJ?5invalid?5paramet@ 005c932c     xapilibd:contsig.obj
 0007:00001d58       ??_C@_0CM@JEMFAJCB@XLocateSignatureByIndex?$CI?$CJ?5invali@ 005c9358     xapilibd:contsig.obj
 0007:00001d8c       ??_C@_0CJ@FKILPKAA@XLocateNextSignature?$CI?$CJ?5invalid?5p@ 005c938c     xapilibd:contsig.obj
 0007:00001dc0       ??_C@_0CP@MDLPKJOJ@XCalculateContentSignature?$CI?$CJ?5inv@ 005c93c0     xapilibd:contsig.obj
 0007:00001df8       ??_C@_0CO@JIABMDKJ@XLoadContentLiveSignature?$CI?$CJ?5inva@ 005c93f8     xapilibd:contsig.obj
 0007:00001e30       ??_C@_0CM@OAEPENAC@XCloseContentSignatures?$CI?$CJ?5invali@ 005c9430     xapilibd:contsig.obj
 0007:00001e64       ??_C@_04FLBHAODA@OHCD?$AA@ 005c9464     xapilibd:ohcd.obj
 0007:00001e6c       ??_C@_0BE@BLJBMLCB@XGetSectionHandle?$CI?$CJ?$AA@ 005c946c     xapilibd:xemodule.obj
 0007:00001e84       ??_C@_0BI@LAANAGMH@?$CIlpSectionName?5?$CB?$DN?5NULL?$CJ?$AA@ 005c9484     xapilibd:xemodule.obj
 0007:00001ea0       ??_C@_0BH@HJNFEGOO@XLoadSectionByHandle?$CI?$CJ?$AA@ 005c94a0     xapilibd:xemodule.obj
 0007:00001ebc       ??_C@_0BP@LLLPAIIN@IsValidSectionHandle?$CIhSection?$CJ?$AA@ 005c94bc     xapilibd:xemodule.obj
 0007:00001ee4       ??_C@_0BH@JEPMFONA@XFreeSectionByHandle?$CI?$CJ?$AA@ 005c94e4     xapilibd:xemodule.obj
 0007:00001f00       ??_C@_0P@OHOFGEIK@XLoadSection?$CI?$CJ?$AA@ 005c9500     xapilibd:xemodule.obj
 0007:00001f14       ??_C@_0P@EHBJMAK@XFreeSection?$CI?$CJ?$AA@ 005c9514     xapilibd:xemodule.obj
 0007:00001f28       ??_C@_0BC@GLPLFFLH@XGetSectionSize?$CI?$CJ?$AA@ 005c9528     xapilibd:xemodule.obj
 0007:00002050       _XapiHardDisk              005c9650     xapilibd:pathmisc.obj
 0007:00002090       ??_C@_0BN@OGMPKPAN@?2Device?2Harddisk0?2partition0?$AA@ 005c9690     xapilibd:pathmisc.obj
 0007:000020b4       ??_C@_06JGGGCIAG@?2?$DP?$DP?2X?3?$AA@ 005c96b4     xapilibd:pathmisc.obj
 0007:000020bc       ??_C@_06IOMNPHME@?2?$DP?$DP?2N?3?$AA@ 005c96bc     xapilibd:pathmisc.obj
 0007:000020c4       ??_C@_06JFOCPMGI@?2?$DP?$DP?2Z?3?$AA@ 005c96c4     xapilibd:pathmisc.obj
 0007:000020cc       ??_C@_0BF@JNEAPIHB@GetDiskFreeSpaceEx?$CI?$CJ?$AA@ 005c96cc     xapilibd:pathmisc.obj
 0007:000020e8       ??_C@_0CC@IKLINLNN@ARGUMENT_PRESENT?$CIlpDirectoryName@ 005c96e8     xapilibd:pathmisc.obj
 0007:00002110       ??_C@_0BH@EHODPLBH@GetVolumeInformation?$CI?$CJ?$AA@ 005c9710     xapilibd:pathmisc.obj
 0007:0000212c       ??_C@_0CB@JJPBEHFI@ARGUMENT_PRESENT?$CIlpRootPathName?$CJ@ 005c972c     xapilibd:pathmisc.obj
 0007:00002174       ??_C@_0BL@FIOONCHD@iPrevDBIndex?5?$DM?5iMaxDBIndex?$AA@ 005c9774     xapilibd:pathmisc.obj
 0007:00002194       ??_C@_0CD@NPFFBMGP@iPrevDBIndex?5?$DM?5CachePartitionCou@ 005c9794     xapilibd:pathmisc.obj
 0007:000021c0       ??_C@_0BF@HJNDGBKN@nCachePartition?5?$CB?$DN?50?$AA@ 005c97c0     xapilibd:pathmisc.obj
 0007:000021dc       ??_C@_0BI@BDDOPJHF@CachePartitionCount?5?$DO?50?$AA@ 005c97dc     xapilibd:pathmisc.obj
 0007:000021f8       ??_C@_0CC@KKKBHGLD@pnCachePartition?5?$CG?$CG?5pfForceForma@ 005c97f8     xapilibd:pathmisc.obj
 0007:00002220       ??_C@_0CP@JIJDDBOC@d?3?2xbox?9dec03?2private?2ntos?2xapi?2@ 005c9820     xapilibd:pathmisc.obj
 0007:00002258       ??_C@_0DN@MJKMKHNO@XMountUtilityDrive?$CI?$CJ?3?5Utility?5Dr@ 005c9858     xapilibd:pathmisc.obj
 0007:000022a4       ??_C@_0DK@BAHDFIPD@XFormatUtilityDrive?$CI?$CJ?3?5Utility?5D@ 005c98a4     xapilibd:pathmisc.obj
 0007:000022ec       ??_C@_0DL@KOLBGCMH@iZPartitionIndex?5?$CB?$DN?5pCacheDB?$FLg_i@ 005c98ec     xapilibd:pathmisc.obj
 0007:00002338       ??_C@_0EK@KDPAMFE@XMountSecondaryUtilityDrive?$CI?$CJ?3?5S@ 005c9938     xapilibd:pathmisc.obj
 0007:00002390       ??_C@_0EK@INCPKFMD@XMountSecondaryUtilityDrive?$CI?$CJ?3?5P@ 005c9990     xapilibd:pathmisc.obj
 0007:000023e8       ??_C@_0ED@MJJKNCLG@XSwapUtilityDrives?$CI?$CJ?3?5Secondary?5@ 005c99e8     xapilibd:pathmisc.obj
 0007:00002438       ??_C@_0EB@MOOHBDCA@XSwapUtilityDrives?$CI?$CJ?3?5Primary?5Ut@ 005c9a38     xapilibd:pathmisc.obj
 0007:00002488       ??_C@_0DC@FMBJNKJE@OBJECT_NULL?5?$DN?$DN?5XapiMuInfo?4DriveW@ 005c9a88     xapilibd:pathmisc.obj
 0007:000024c4       ??_C@_07DGGEHABK@?2?$DP?$DP?2?$CFc?3?$AA@ 005c9ac4     xapilibd:pathmisc.obj
 0007:000024d0       ??_C@_0DG@JADBOGPE@XMountAlternateTitle?$CI?$CJ?5invalid?5d@ 005c9ad0     xapilibd:pathmisc.obj
 0007:00002510       ??_C@_0BD@KDIELNEI@?$CIpchDrive?5?$CB?$DN?5NULL?$CJ?$AA@ 005c9b10     xapilibd:pathmisc.obj
 0007:00002528       ??_C@_0BI@IBLHCDOH@?$CIlpRootPath?$FL3?$FN?5?$DN?$DN?5?8?20?8?$CJ?$AA@ 005c9b28     xapilibd:pathmisc.obj
 0007:00002544       ??_C@_0BI@GLOCCHDD@?$CIlpRootPath?$FL2?$FN?5?$DN?$DN?5?8?2?2?8?$CJ?$AA@ 005c9b44     xapilibd:pathmisc.obj
 0007:00002560       ??_C@_0BH@IKEMDLNN@?$CIlpRootPath?$FL1?$FN?5?$DN?$DN?5?8?3?8?$CJ?$AA@ 005c9b60     xapilibd:pathmisc.obj
 0007:0000257c       ??_C@_0BI@LMNNEAHC@?$CIlpRootPath?$FL0?$FN?5?$CB?$DN?5?8?20?8?$CJ?$AA@ 005c9b7c     xapilibd:pathmisc.obj
 0007:00002598       ??_C@_0BF@IMBJMEJF@?$CIlpRootPath?5?$CB?$DN?5NULL?$CJ?$AA@ 005c9b98     xapilibd:pathmisc.obj
 0007:000025b4       ??_C@_0DF@CDGNBNHO@XUnmountAlternateTitle?$CI?$CJ?5?9?5inval@ 005c9bb4     xapilibd:pathmisc.obj
 0007:000025f8       ??_C@_0FH@ODEJOJLK@?$CI0?5?$CB?$DN?5NormalSizeInfo?4BytesPerSec@ 005c9bf8     xapilibd:pathmisc.obj
 0007:00002660       ??_C@_0BG@MJMPAIIM@XGetDiskClusterSize?$CI?$CJ?$AA@ 005c9c60     xapilibd:pathmisc.obj
 0007:0000267c       ??_C@_0CD@HHFEHLKH@0?5?$CB?$DN?5NormalSizeInfo?4BytesPerSect@ 005c9c7c     xapilibd:pathmisc.obj
 0007:000026a8       ??_C@_0BF@NGAIGMJB@XGetDiskSectorSize?$CI?$CJ?$AA@ 005c9ca8     xapilibd:pathmisc.obj
 0007:000026c4       ??_C@_0CP@JLNMLJJD@XMUNameFromDriveLetter?$CI?$CJ?5MU?5?$CFc?3?5@ 005c9cc4     xapilibd:pathmisc.obj
 0007:000026fc       ??_C@_0CI@CDFKIAGP@LocalAlloc?$CI?$CJ?5invalid?5parameter?5?$CI@ 005c9cfc     xapilibd:xapiheap.obj
 0007:0000272c       ??_C@_0CK@DAJFENGH@LocalReAlloc?$CI?$CJ?5invalid?5parameter@ 005c9d2c     xapilibd:xapiheap.obj
 0007:00002760       ??_C@_0CJ@FOEMNOKO@GlobalAlloc?$CI?$CJ?5invalid?5parameter?5@ 005c9d60     xapilibd:xapiheap.obj
 0007:00002794       ??_C@_0CL@GOKHKKIN@GlobalReAlloc?$CI?$CJ?5invalid?5paramete@ 005c9d94     xapilibd:xapiheap.obj
 0007:000027c8       _RtlpHeapHeaderFieldOffsets 005c9dc8     xapilibd:heap.obj
 0007:00002910       ??_C@_0BD@DLOLKPPE@Uncommitted?5Ranges?$AA@ 005c9f10     xapilibd:heap.obj
 0007:00002928       ??_C@_0BD@LGNJFFBM@LookasideLockCount?$AA@ 005c9f28     xapilibd:heap.obj
 0007:00002940       ??_C@_09PHPDJGKN@Lookaside?$AA@ 005c9f40     xapilibd:heap.obj
 0007:0000294c       ??_C@_0N@EIHEKGHA@LockVariable?$AA@ 005c9f4c     xapilibd:heap.obj
 0007:0000295c       ??_C@_09NCNJPMEA@FreeLists?$AA@ 005c9f5c     xapilibd:heap.obj
 0007:00002968       ??_C@_0BB@GKGFCBGK@PseudoTagEntries?$AA@ 005c9f68     xapilibd:heap.obj
 0007:0000297c       ??_C@_09PJDCCKPM@Reserved1?$AA@ 005c9f7c     xapilibd:heap.obj
 0007:00002988       ??_C@_0BI@BLDENADN@AllocatorBackTraceIndex?$AA@ 005c9f88     xapilibd:heap.obj
 0007:000029a4       ??_C@_0BI@KJIIBDJO@FreeListsInUseTerminate?$AA@ 005c9fa4     xapilibd:heap.obj
 0007:000029c0       ??_C@_0P@BJKOHMIH@FreeListsInUse?$AA@ 005c9fc0     xapilibd:heap.obj
 0007:000029d4       ??_C@_08ONJIMEGG@Segments?$AA@ 005c9fd4     xapilibd:heap.obj
 0007:000029e0       ??_C@_0BE@OPMHDBHD@VirtualAllocdBlocks?$AA@ 005c9fe0     xapilibd:heap.obj
 0007:000029f8       ??_C@_09JHFGEGIN@AlignMask?$AA@ 005c9ff8     xapilibd:heap.obj
 0007:00002a04       ??_C@_0L@PMBPJEGA@AlignRound?$AA@ 005ca004     xapilibd:heap.obj
 0007:00002a14       ??_C@_0BI@KIOFHGCO@UnusedUnCommittedRanges?$AA@ 005ca014     xapilibd:heap.obj
 0007:00002a30       ??_C@_0M@CGNHBCCA@UCRSegments?$AA@ 005ca030     xapilibd:heap.obj
 0007:00002a40       ??_C@_0L@PPENPPKI@TagEntries?$AA@ 005ca040     xapilibd:heap.obj
 0007:00002a50       ??_C@_0BA@OMHBDFIN@MaximumTagIndex?$AA@ 005ca050     xapilibd:heap.obj
 0007:00002a64       ??_C@_0BG@PMIEMADE@NextAvailableTagIndex?$AA@ 005ca064     xapilibd:heap.obj
 0007:00002a80       ??_C@_0BD@OHIKCJLG@HeaderValidateCopy?$AA@ 005ca080     xapilibd:heap.obj
 0007:00002a98       ??_C@_0BF@DGDEANDL@HeaderValidateLength?$AA@ 005ca098     xapilibd:heap.obj
 0007:00002ab4       ??_C@_0BG@GBCAKBDD@ProcessHeapsListIndex?$AA@ 005ca0b4     xapilibd:heap.obj
 0007:00002ad0       ??_C@_0BG@HJCIICPN@MaximumAllocationSize?$AA@ 005ca0d0     xapilibd:heap.obj
 0007:00002aec       ??_C@_0O@POJGLEGF@TotalFreeSize?$AA@ 005ca0ec     xapilibd:heap.obj
 0007:00002afc       ??_C@_0BL@NFIJLEAJ@DeCommitTotalFreeThreshold?$AA@ 005ca0fc     xapilibd:heap.obj
 0007:00002b1c       ??_C@_0BL@BPDEMIFC@DeCommitFreeBlockThreshold?$AA@ 005ca11c     xapilibd:heap.obj
 0007:00002b3c       ??_C@_0O@CPHFHPH@SegmentCommit?$AA@ 005ca13c     xapilibd:heap.obj
 0007:00002b4c       ??_C@_0P@KCAAENCL@SegmentReserve?$AA@ 005ca14c     xapilibd:heap.obj
 0007:00002b60       ??_C@_0BH@DPEGHHN@VirtualMemoryThreshold?$AA@ 005ca160     xapilibd:heap.obj
 0007:00002b7c       ??_C@_0L@JMAFPJMA@ForceFlags?$AA@ 005ca17c     xapilibd:heap.obj
 0007:00002b8c       ??_C@_05BOOEKJH@Flags?$AA@ 005ca18c     xapilibd:heap.obj
 0007:00002b94       ??_C@_09GDNFOKKF@Signature?$AA@ 005ca194     xapilibd:heap.obj
 0007:00002ba0       ??_C@_05HKHPEFOF@Entry?$AA@ 005ca1a0     xapilibd:heap.obj
 0007:00002ba8       ??_C@_0CG@LIEDJIGJ@d?3?2xbox?9dec03?2private?2ntos?2rtl?2h@ 005ca1a8     xapilibd:heap.obj
 0007:00002bd8       ??_C@_0CF@FOPNHIJF@EX?3?5Pageable?5code?5called?5at?5IRQL@ 005ca1d8     xapilibd:heap.obj
 0007:00002c24       ??_C@_0CK@MIHOFKM@Abandoning?5uncommitted?5range?5?$CI?$CFx@ 005ca224     xapilibd:heap.obj
 0007:00002c58       ??_C@_0DE@BIILMCNP@Heap?5missing?5last?5entry?5in?5commi@ 005ca258     xapilibd:heap.obj
 0007:00002c98       ??_C@_0DJ@IHPOEJKE@IsListEmpty?$CI?$CG?$CIHeap?$CJ?9?$DOFreeLists?$FL?5@ 005ca298     xapilibd:heap.obj
 0007:00002cdc       ??_C@_0CJ@JBHGFDE@?$CKFreeSize?5?$DN?$DN?5NextFreeBlock?9?$DOPrev@ 005ca2dc     xapilibd:heap.obj
 0007:00002d10       ??_C@_0DG@JDGFBEPN@IsListEmpty?$CI?$CG?$CIHeap?$CJ?9?$DOFreeLists?$FL?5@ 005ca310     xapilibd:heap.obj
 0007:00002d50       ??_C@_0DO@BNEJAPBG@HEAP?3?5Free?5Heap?5block?5?$CFlx?5modifi@ 005ca350     xapilibd:heap.obj
 0007:00002d9c       ??_C@_0DF@DNHFNDEP@IsListEmpty?$CI?$CG?$CIHeap?$CJ?9?$DOFreeLists?$FL?5@ 005ca39c     xapilibd:heap.obj
 0007:00002ddc       ??_C@_0DB@PNEIDBAO@?$CIHeap?$CJ?9?$DOu?4FreeListsInUseBytes?$FL?5_@ 005ca3dc     xapilibd:heap.obj
 0007:00002e18       ??_C@_0CM@KHOIOONG@FreeBlock?9?$DOPreviousSize?5?$DN?$DN?5FreeB@ 005ca418     xapilibd:heap.obj
 0007:00002e4c       ??_C@_0DI@IOJOLKOE@?$CI?$CIHeap?$CJ?9?$DOu?4FreeListsInUseBytes?$FL?5@ 005ca44c     xapilibd:heap.obj
 0007:00002e90       ??_C@_0CL@FNLDEIID@?$CIFreeBlock?$CJ?9?$DOSize?5?$DM?5HEAP_MAXIMUM@ 005ca490     xapilibd:heap.obj
 0007:00002ec4       ??_C@_0DM@GBNBMGII@Heap?5block?5at?5?$CFp?5modified?5at?5?$CFp?5@ 005ca4c4     xapilibd:heap.obj
 0007:00002f0c       ??_C@_01EEMJAFIK@?6?$AA@   005ca50c     xapilibd:heap.obj
 0007:00002f10       ??_C@_0P@MHFKLIEN@?0?5passed?5to?5?$CFs?$AA@ 005ca510     xapilibd:heap.obj
 0007:00002f24       ??_C@_0CG@EMFKJEHM@Invalid?5heap?5signature?5for?5heap?5@ 005ca524     xapilibd:heap.obj
 0007:00002f54       ??_C@_0DJ@DHGOHFOK@?5?5?5?5This?5is?5located?5in?5the?5?$CFs?5fi@ 005ca554     xapilibd:heap.obj
 0007:00002f98       ??_C@_0DF@FINFDAGA@Heap?5?$CFx?5?9?5headers?5modified?5?$CI?$CFx?5i@ 005ca598     xapilibd:heap.obj
 0007:00002fd8       ??_C@_0EL@OONBJNNL@Heap?5Segment?5at?5?$CFlx?5contains?5inv@ 005ca5d8     xapilibd:heap.obj
 0007:00003038       ??_C@_0EL@INALGJAF@Heap?5block?5at?5?$CFlx?5does?5not?5match@ 005ca638     xapilibd:heap.obj
 0007:00003094       ??_C@_0DE@EKKACCJB@Heap?5block?5at?5?$CFlx?5has?5incorrect?5@ 005ca694     xapilibd:heap.obj
 0007:000030d4       ??_C@_0DI@IGLJEBNA@Free?5Heap?5block?5?$CFlx?5modified?5at?5@ 005ca6d4     xapilibd:heap.obj
 0007:00003118       ??_C@_0EI@PFDIKOJD@Heap?5entry?5?$CFlx?5has?5incorrect?5Pre@ 005ca718     xapilibd:heap.obj
 0007:00003170       ??_C@_0DG@LICIIDJH@Heap?5entry?5?$CFlx?5is?5beyond?5uncommi@ 005ca770     xapilibd:heap.obj
 0007:000031b0       ??_C@_0DF@DAGCJKPA@Heap?5block?5at?5?$CFlx?5is?5not?5last?5bl@ 005ca7b0     xapilibd:heap.obj
 0007:000031f0       ??_C@_0EK@NMAELPFC@Heap?5Segment?5at?5?$CFlx?5contains?5inv@ 005ca7f0     xapilibd:heap.obj
 0007:00003248       ??_C@_0CN@KEJJKHIL@Invalid?5Address?5specified?5to?5?$CFs?$CI@ 005ca848     xapilibd:heap.obj
 0007:00003280       ??_C@_0CN@PEABBGIH@Tag?5?$CF04x?5?$CI?$CFws?$CJ?5size?5incorrect?5?$CI?$CF@ 005ca880     xapilibd:heap.obj
 0007:000032b8       ??_C@_0CO@PMMFOPBN@Pseudo?5Tag?5?$CF04x?5size?5incorrect?5?$CI@ 005ca8b8     xapilibd:heap.obj
 0007:000032f0       ??_C@_0FL@KFNPEIMI@Total?5size?5of?5free?5blocks?5in?5are@ 005ca8f0     xapilibd:heap.obj
 0007:00003360       ??_C@_0FE@NGCGCHAC@Number?5of?5free?5blocks?5in?5arena?5?$CI@ 005ca960     xapilibd:heap.obj
 0007:000033c4       ??_C@_0DF@PFKALPKH@Non?9Dedicated?5free?5list?5element?5@ 005ca9c4     xapilibd:heap.obj
 0007:00003408       ??_C@_0EA@OAPLMGFO@Non?9Dedicated?5free?5list?5element?5@ 005caa08     xapilibd:heap.obj
 0007:00003454       ??_C@_0DN@GBMNNHGG@Dedicated?5?$CI?$CF04x?$CJ?5free?5list?5eleme@ 005caa54     xapilibd:heap.obj
 0007:000034a0       ??_C@_0DH@BIDEJKAN@dedicated?5?$CI?$CF04x?$CJ?5free?5list?5eleme@ 005caaa0     xapilibd:heap.obj
 0007:000034e4       ??_C@_0DK@BHJNCJDM@dedicated?5?$CI?$CF04x?$CJ?5free?5list?5non?9e@ 005caae4     xapilibd:heap.obj
 0007:0000352c       ??_C@_0DK@JACIBGGP@dedicated?5?$CI?$CF04x?$CJ?5free?5list?5empty@ 005cab2c     xapilibd:heap.obj
 0007:00003574       ??_C@_0M@PHEMKBEG@RtlWalkHeap?$AA@ 005cab74     xapilibd:heap.obj
 0007:00003598       ??_C@_0M@DKBLBPDB@RtlLockHeap?$AA@ 005cab98     xapilibd:heap.obj
 0007:000035a8       ??_C@_0O@BAFDFOCI@RtlUnlockHeap?$AA@ 005caba8     xapilibd:heap.obj
 0007:000035b8       ??_C@_0BA@EEJAMNOM@RtlValidateHeap?$AA@ 005cabb8     xapilibd:heap.obj
 0007:000035ec       ??_C@_0P@NCPMIHJ@RtlCompactHeap?$AA@ 005cabec     xapilibd:heap.obj
 0007:0000361c       ??_C@_0CB@LKFMJIGD@Ignoring?5RtlDestroyHeap?$CI?5NULL?5?$CJ?6@ 005cac1c     xapilibd:heap.obj
 0007:00003644       ??_C@_0DH@KBFKIFLD@IsListEmpty?$CI?$CG?$CIHeap?$CJ?9?$DOFreeLists?$FL?5@ 005cac44     xapilibd:heap.obj
 0007:00003688       ??_C@_0CJ@JNAGKIOI@?$CISplitBlock?$CJ?9?$DOSize?5?$DN?$DN?5?$CI?$CIUSHORT?$CJF@ 005cac88     xapilibd:heap.obj
 0007:000036bc       ??_C@_0CM@GNGBJFLE@?$CISplitBlock?$CJ?9?$DOSize?5?$DM?5HEAP_MAXIMU@ 005cacbc     xapilibd:heap.obj
 0007:000036f0       ??_C@_0DD@HLNOINEF@?$CITrailingFreeBlock?$CJ?9?$DOSize?5?$DM?5HEAP@ 005cacf0     xapilibd:heap.obj
 0007:00003730       ??_C@_0DA@LBOAAMKP@?$CITrailingFreeBlock?$CJ?9?$DOSize?5?$DN?$DN?5?$CITr@ 005cad30     xapilibd:heap.obj
 0007:0000376c       ??_C@_0DC@MIPIFJII@?$CILeadingFreeBlock?$CJ?9?$DOSize?5?$DM?5HEAP_@ 005cad6c     xapilibd:heap.obj
 0007:000037a8       ??_C@_0CO@NLACNNMB@?$CILeadingFreeBlock?$CJ?9?$DOSize?5?$DN?$DN?5?$CILea@ 005cada8     xapilibd:heap.obj
 0007:000037e0       ??_C@_0DA@MGMJLJDN@Failing?5creating?5uncommitted?5ran@ 005cade0     xapilibd:heap.obj
 0007:0000383c       ??_C@_0DB@FAEAKCEK@Invalid?5flags?5?$CI?$CF08x?$CJ?5specified?5t@ 005cae3c     xapilibd:heap.obj
 0007:000038a4       ??_C@_0DJ@COFILNG@?$CIBusyBlock?5?$CL?5FreeSize?$CJ?9?$DOPrevious@ 005caea4     xapilibd:heap.obj
 0007:000038e8       ??_C@_0DN@HPPLNFP@?$CI?$CIPHEAP_FREE_ENTRY?$CJBusyBlock?$CJ?9?$DOS@ 005caee8     xapilibd:heap.obj
 0007:00003934       ??_C@_0DK@OPBFMPFJ@?$CI?$CIPHEAP_FREE_ENTRY?$CJBusyBlock?$CJ?9?$DOS@ 005caf34     xapilibd:heap.obj
 0007:000039a0       ??_C@_0FF@JLHJNOPA@?$CI?$CIPHEAP_ENTRY?$CJ?$CISplitBlock?$CJ?5?$CL?5?$CI?$CIU@ 005cafa0     xapilibd:heap.obj
 0007:00003a18       ??_C@_0GG@IFEMPPFL@?$CI?$CIPHEAP_ENTRY?$CJ?$CI?$CIPHEAP_FREE_ENTRY@ 005cb018     xapilibd:heap.obj
 0007:00003a94       ??_C@_0DK@DBNEJCPE@HEAP_MAXIMUM_FREELISTS?5?$DM?5Heap?9?$DOD@ 005cb094     xapilibd:heap.obj
 0007:00003adc       ??_C@_01GBGANLPD@0?$AA@    005cb0dc     xapilibd:heap.obj
 0007:00003ae0       ??_C@_0BO@DMNNLHON@Bad?5pointer?5in?5RtlFreeHeap?$CI?$CJ?6?$AA@ 005cb0e0     xapilibd:heap.obj
 0007:00003b24       ??_C@_0DM@CFAEKHBN@Unable?5to?5release?5memory?5at?5?$CFp?5f@ 005cb124     xapilibd:heap.obj
 0007:00003b9c       ??_C@_0CP@DNFGEBOH@d?3?2xbox?9dec03?2private?2ntos?2xapi?2@ 005cb19c     xapilibd:xapiterm.obj
 0007:00003bd4       ??_C@_0DB@BEAMJGFM@I?1O?5cannot?5be?5started?5after?5rebo@ 005cb1d4     xapilibd:xapiterm.obj
 0007:00003c10       ??_C@_0BB@HBMEJKEL@?$CIShactx?5?$CB?$DN?5NULL?$CJ?$AA@ 005cb210     xapilibd:xcalcsig.obj
 0007:00003c24       ??_C@_0BJ@LAFOKAAB@?$CIcbKey?5?$DO?$DN?5sizeof?$CIDWORD?$CJ?$CJ?$AA@ 005cb224     xapilibd:xcalcsig.obj
 0007:00003c44       ??_C@_0BA@FBFKFFLL@?$CIpbKey?5?$CB?$DN?5NULL?$CJ?$AA@ 005cb244     xapilibd:xcalcsig.obj
 0007:00003c58       ??_C@_0BD@IAODMCFE@XShaHmacInitialize?$AA@ 005cb258     xapilibd:xcalcsig.obj
 0007:00003c70       ??_C@_0N@EOLCIMHG@?$CIcbData?5?$DO?50?$CJ?$AA@ 005cb270     xapilibd:xcalcsig.obj
 0007:00003c80       ??_C@_0BB@NEBMHBGC@?$CIpbData?5?$CB?$DN?5NULL?$CJ?$AA@ 005cb280     xapilibd:xcalcsig.obj
 0007:00003c94       ??_C@_0P@FGCKIDDO@XShaHmacUpdate?$AA@ 005cb294     xapilibd:xcalcsig.obj
 0007:00003ca8       ??_C@_0BB@KIIEHKJJ@?$CIpbHmac?5?$CB?$DN?5NULL?$CJ?$AA@ 005cb2a8     xapilibd:xcalcsig.obj
 0007:00003cbc       ??_C@_0BF@NOKENBGL@XShaHmacComputeFinal?$AA@ 005cb2bc     xapilibd:xcalcsig.obj
 0007:00003cd8       ??_C@_0CM@OPGJPOOP@err?5?$DN?$DN?5ERROR_SUCCESS?5?$CG?$CG?5cb?5?$DN?$DN?5si@ 005cb2d8     xapilibd:xcalcsig.obj
 0007:00003d0c       ??_C@_0CP@BDPIELIK@d?3?2xbox?9dec03?2private?2ntos?2xapi?2@ 005cb30c     xapilibd:xcalcsig.obj
 0007:00003d44       ??_C@_0CG@HDMGNDJA@i?5?$DM?5XBEIMAGE_ALTERNATE_TITLE_ID_@ 005cb344     xapilibd:xcalcsig.obj
 0007:00003d74       ??_C@_0CF@KPGNJPGN@XapipCalculateSaveGameSignatureB@ 005cb374     xapilibd:xcalcsig.obj
 0007:00003da0       ??_C@_0DB@ODIIOLII@?$CI?$CIdwFlags?5?$CG?5?$CI?$HOXCALCSIG_FLAG_NON_@ 005cb3a0     xapilibd:xcalcsig.obj
 0007:00003ddc       ??_C@_0CG@EJOBKKGJ@XapipCalculateSaveGameSignatureU@ 005cb3dc     xapilibd:xcalcsig.obj
 0007:00003e0c       ??_C@_0DL@ILPCBEFH@?$CI?$CIpCalcSig?9?$DOdwFlags?5?$CG?5XCALCSIG_F@ 005cb40c     xapilibd:xcalcsig.obj
 0007:00003e54       ??_C@_0CD@NHKKDIJC@XapipCalculateSaveGameSignatureE@ 005cb454     xapilibd:xcalcsig.obj
 0007:00003e80       ??_C@_0GM@HKDPECO@XCalculateSignatureGetSize?3?5Unkn@ 005cb480     xapilibd:xcalcsig.obj
 0007:00003f08       ??_C@_0GL@DIBGNIJE@XCalculateSignatureBegin?3?5Invali@ 005cb508     xapilibd:xcalcsig.obj
 0007:00003f88       ??_C@_0DI@PBDPMOJ@You?5are?5required?5to?5link?5XONLINE@ 005cb588     xapilibd:xcalcsig.obj
 0007:00003fcc       ??_C@_0BI@PADFJCHE@g_pfnxcsbOnline?5?$CB?$DN?5NULL?$AA@ 005cb5cc     xapilibd:xcalcsig.obj
 0007:00003fe8       ??_C@_0GM@MFJONGHG@XCalculateSignatureUpdate?3?5Inval@ 005cb5e8     xapilibd:xcalcsig.obj
 0007:0000406c       ??_C@_0BI@OLOLFEJP@g_pfnxcsuOnline?5?$CB?$DN?5NULL?$AA@ 005cb66c     xapilibd:xcalcsig.obj
 0007:00004088       ??_C@_0CE@BADNCPHJ@?$CI?$CIpbData?5?$CB?$DN?5NULL?$CJ?5?$HM?$HM?5?$CIcbData?5?$DN?$DN?5@ 005cb688     xapilibd:xcalcsig.obj
 0007:000040b4       ??_C@_0BD@MOJJBMDO@?$CIhCalcSig?5?$CB?$DN?5NULL?$CJ?$AA@ 005cb6b4     xapilibd:xcalcsig.obj
 0007:000040cc       ??_C@_0BK@NNHICHIA@XCalculateSignatureUpdate?$AA@ 005cb6cc     xapilibd:xcalcsig.obj
 0007:000040f0       ??_C@_0GJ@CNMHEMD@XCalculateSignatureEnd?3?5Invalid?5@ 005cb6f0     xapilibd:xcalcsig.obj
 0007:00004170       ??_C@_0BI@NMMGKAB@g_pfnxcseOnline?5?$CB?$DN?5NULL?$AA@ 005cb770     xapilibd:xcalcsig.obj
 0007:0000418c       ??_C@_0BH@PIGJMAPB@XCalculateSignatureEnd?$AA@ 005cb78c     xapilibd:xcalcsig.obj
 0007:000041a8       ??_C@_0EB@LJGMNFAB@XMemAlloc?$CI?$CJ?3?5dwAlignment?5must?5no@ 005cb7a8     xapilibd:xmem.obj
 0007:000041f8       ??_C@_0EG@EMCKKIHP@XMemAlloc?$CI?$CJ?3?5dwHeapTracksAttribu@ 005cb7f8     xapilibd:xmem.obj
 0007:0000424c       ??_C@_0DL@NCMFFMFD@StoredAttributes?4dwMemoryType?5?$DN?$DN@ 005cb84c     xapilibd:xmem.obj
 0007:00004298       ??_C@_0EB@ICHFLBND@StoredAttributes?4dwMemoryProtect@ 005cb898     xapilibd:xmem.obj
 0007:000042e8       ??_C@_0DJ@ONCCNOGN@StoredAttributes?4dwAlignment?5?$DN?$DN?5@ 005cb8e8     xapilibd:xmem.obj
 0007:0000432c       ??_C@_0DN@CNDPNPKF@StoredAttributes?4dwAllocatorId?5?$DN@ 005cb92c     xapilibd:xmem.obj
 0007:00004378       ??_C@_0DJ@MBLICCAP@StoredAttributes?4dwFixedSize?5?$DN?$DN?5@ 005cb978     xapilibd:xmem.obj
 0007:000043bc       ??_C@_0DN@DFGBMBLN@StoredAttributes?4dwMustSucceed?5?$DN@ 005cb9bc     xapilibd:xmem.obj
 0007:00004408       ??_C@_0EP@CCDAKDAJ@StoredAttributes?4dwHeapTracksAtt@ 005cba08     xapilibd:xmem.obj
 0007:00004468       ??_C@_0DL@LOMKDGBE@StoredAttributes?4dwObjectType?5?$DN?$DN@ 005cba68     xapilibd:xmem.obj
 0007:000044b0       ??_C@_08EPBDPDBC@XMemFree?$AA@ 005cbab0     xapilibd:xmem.obj
 0007:000044bc       ??_C@_0N@NIBDPAHF@pBaseAddress?$AA@ 005cbabc     xapilibd:xmem.obj
 0007:000044cc       ??_C@_0BO@PGBGBHED@XMemFree?$CI?$CJ?3?5pAddress?5was?5NULL?$AA@ 005cbacc     xapilibd:xmem.obj
 0007:000044f0       ??_C@_0CL@LENGDOHC@d?3?2xbox?9dec03?2private?2ntos?2xapi?2@ 005cbaf0     xapilibd:xmem.obj
 0007:00004524       ??_C@_0BC@IDGICDD@dwAllocAttributes?$AA@ 005cbb24     xapilibd:xmem.obj
 0007:0000453c       ??_C@_0CK@GIPOCJNO@XMemFree?$CI?$CJ?5dwAllocAttributes?5can@ 005cbb3c     xapilibd:xmem.obj
 0007:00004570       ??_C@_07EOBCLJJ@pszPath?$AA@ 005cbb70     xapilibd:xclndrv.obj
 0007:0000457c       ??_C@_0CO@FOHBDBME@d?3?2xbox?9dec03?2private?2ntos?2xapi?2@ 005cbb7c     xapilibd:xclndrv.obj
 0007:000045b4       ??_C@_0BG@LLHPGPNL@GetFileAttributesEx?$CI?$CJ?$AA@ 005cbbb4     xapilibd:filemisc.obj
 0007:000045d0       ??_C@_0FA@ILHHAIFA@?$CIfInfoLevelId?5?$DM?5GetFileExMaxInfo@ 005cbbd0     xapilibd:filemisc.obj
 0007:00004670       ??_C@_0CG@HLNJBDNE@?$CIBYTE_OFFSET?$CIulPhysicalAddress?$CJ?5@ 005cbc70     xapilibd:physical.obj
 0007:000046a0       ??_C@_0FK@ECGJHBJM@?$CI?$CIflProtect?5?$CG?5?$HO?$CIPAGE_READWRITE?5?$HM@ 005cbca0     xapilibd:physical.obj
 0007:0000470c       ??_C@_0CJ@LFPJDDCF@?$CI?$CIulAlignment?5?$CG?5?$CIulAlignment?5?9?51@ 005cbd0c     xapilibd:physical.obj
 0007:00004740       ??_C@_0O@OFCKANBD@?$CIdwSize?5?$CB?$DN?50?$CJ?$AA@ 005cbd40     xapilibd:physical.obj
 0007:00004750       ??_C@_0BB@PCLPAAEF@XPhysicalAlloc?$CI?$CJ?$AA@ 005cbd50     xapilibd:physical.obj
 0007:00004764       ??_C@_0BA@NKPHFOEN@XPhysicalSize?$CI?$CJ?$AA@ 005cbd64     xapilibd:physical.obj
 0007:00004778       ??_C@_0CF@ELFJGKHK@?$CI?$CIULONG_PTR?$CJlpAddress?5?$DO?$DN?50x80000@ 005cbd78     xapilibd:physical.obj
 0007:000047a8       ??_C@_0FN@JPDCFPBJ@?$CI?$CIflNewProtect?5?$CG?5?$HO?$CIPAGE_READWRIT@ 005cbda8     xapilibd:physical.obj
 0007:00004818       ??_C@_0BD@HIDDCAJE@XPhysicalProtect?$CI?$CJ?$AA@ 005cbe18     xapilibd:physical.obj
 0007:00004830       ??_C@_0BA@GELABPCP@XPhysicalFree?$CI?$CJ?$AA@ 005cbe30     xapilibd:physical.obj
 0007:00004844       __real@4f800000            005cbe44     d3d8d:state.obj
 0007:00004848       __real@41000000            005cbe48     d3d8d:state.obj
 0007:0000484c       __real@40490fdb            005cbe4c     d3d8d:d3dbase.obj
 0007:00004850       __real@3727c5ac            005cbe50     d3d8d:d3dbase.obj
 0007:00004854       __real@3f7fbe77            005cbe54     d3d8d:d3dbase.obj
 0007:00004858       __real@3fd532617c1bda51    005cbe58     d3d8d:d3dbase.obj
 0007:00004868       __real@3fc597f62b6ae7d5    005cbe68     d3d8d:d3dbase.obj
 0007:00004878       __real@3fe2c56d5cfaacda    005cbe78     d3d8d:d3dbase.obj
 0007:00004888       __real@3fd3212d77318fc5    005cbe88     d3d8d:d3dbase.obj
 0007:00004898       __real@3fbd4fdf3b645a1d    005cbe98     d3d8d:d3dbase.obj
 0007:000048a8       __real@3fb4e3bcd35a8588    005cbea8     d3d8d:d3dbase.obj
 0007:000048b8       __real@3fdac56d5cfaacda    005cbeb8     d3d8d:d3dbase.obj
 0007:000048c8       __real@4060000000000000    005cbec8     d3d8d:d3dbase.obj
 0007:000048d8       __real@3fe0000000000000    005cbed8     d3d8d:d3dbase.obj
 0007:000048e8       __real@41f0000000000000    005cbee8     d3d8d:d3dbase.obj
 0007:000048f8       __real@46293e5939a08cea    005cbef8     d3d8d:clear.obj
 0007:00004908       __real@407fff0000000000    005cbf08     d3d8d:clear.obj
 0007:00004914       __real@4b7fffff            005cbf14     d3d8d:clear.obj
 0007:00004918       __real@477fff00            005cbf18     d3d8d:clear.obj
 0007:0000491c       __real@3b808081            005cbf1c     d3d8d:pshader.obj
 0007:00004930       __real@408a7fac            005cbf30     d3d8d:math.obj
 0007:00004934       __real@c0851592            005cbf34     d3d8d:math.obj
 0007:00004938       __real@40400000            005cbf38     d3d8d:math.obj
 0007:0000493c       __real@40b00000            005cbf3c     d3d8d:mpcore.obj
 0007:00004940       __real@3a83126f            005cbf40     d3d8d:lazy.obj
 0007:00004944       __real@43800000            005cbf44     d3d8d:lazy.obj
 0007:00004948       __real@be596d0b            005cbf48     d3d8d:lazy.obj
 0007:0000494c       __real@bdb8aa0a            005cbf4c     d3d8d:lazy.obj
 0007:00004950       __real@41200000            005cbf50     d3d8d:rdi.obj
 0007:00004968       __real@b727c5ac            005cbf68     d3dx8d:d3dxmath.obj
 0007:0000496c       __real@3e59999a            005cbf6c     d3dx8d:d3dxmath.obj
 0007:00004970       __real@3f372474            005cbf70     d3dx8d:d3dxmath.obj
 0007:00004974       __real@3d93a92a            005cbf74     d3dx8d:d3dxmath.obj
 0007:00004978       __real@2edbe6fe            005cbf78     d3dx8d:d3dxmath.obj
 0007:0000497c       __real@c0000000            005cbf7c     d3dx8d:d3dxmath.obj
 0007:00004980       __real@3e000000            005cbf80     d3dx8d:cd3dxblt.obj
 0007:00004988       __real@406fe00000000000    005cbf88     d3dx8d:cd3dximage.obj
 0007:00004998       __real@3f70101010101010    005cbf98     d3dx8d:cd3dximage.obj
 0007:000049a8       __real@3eb0c6f7a0b5ed8d    005cbfa8     d3dx8d:cd3dximage.obj
 0007:000049b8       __real@400199999999999a    005cbfb8     d3dx8d:cd3dximage.obj
 0007:000049c4       ??_7CD3DXCodec@@6B@        005cbfc4     d3dx8d:cd3dxcodec.obj
 0007:000049d4       __real@3c000000            005cbfd4     d3dx8d:cd3dxcodec.obj
 0007:000049d8       __real@3c820821            005cbfd8     d3dx8d:cd3dxcodec.obj
 0007:000049dc       __real@3d800000            005cbfdc     d3dx8d:cd3dxcodec.obj
 0007:000049e0       __real@38000000            005cbfe0     d3dx8d:cd3dxcodec.obj
 0007:000049e4       __real@3b000000            005cbfe4     d3dx8d:cd3dxcodec.obj
 0007:000049e8       __real@3a800000            005cbfe8     d3dx8d:cd3dxcodec.obj
 0007:000049ec       __real@427c0000            005cbfec     d3dx8d:cd3dxcodec.obj
 0007:000049f0       __real@41f80000            005cbff0     d3dx8d:cd3dxcodec.obj
 0007:000049f4       __real@41700000            005cbff4     d3dx8d:cd3dxcodec.obj
 0007:000049f8       __real@40e00000            005cbff8     d3dx8d:cd3dxcodec.obj
 0007:000049fc       __real@7f7fffff            005cbffc     d3dx8d:cd3dxcodec.obj
 0007:00004a00       __real@47000000            005cc000     d3dx8d:cd3dxcodec.obj
 0007:00004a04       __real@44000000            005cc004     d3dx8d:cd3dxcodec.obj
 0007:00004a08       __real@3d042108            005cc008     d3dx8d:cd3dxcodec.obj
 0007:00004a0c       __real@3d888889            005cc00c     d3dx8d:cd3dxcodec.obj
 0007:00004a10       __real@3eaaaaab            005cc010     d3dx8d:cd3dxcodec.obj
 0007:00004a14       __real@3e124925            005cc014     d3dx8d:cd3dxcodec.obj
 0007:00004a18       ??_7CD3DXCodecYUV@@6B@     005cc018     d3dx8d:cd3dxcodec.obj
 0007:00004a28       __real@4191b646            005cc028     d3dx8d:cd3dxcodec.obj
 0007:00004a2c       __real@42bb926f            005cc02c     d3dx8d:cd3dxcodec.obj
 0007:00004a30       __real@42173021            005cc030     d3dx8d:cd3dxcodec.obj
 0007:00004a34       __real@429467f0            005cc034     d3dx8d:cd3dxcodec.obj
 0007:00004a38       __real@42e00000            005cc038     d3dx8d:cd3dxcodec.obj
 0007:00004a3c       __real@43008d91            005cc03c     d3dx8d:cd3dxcodec.obj
 0007:00004a40       __real@41c7ba5e            005cc040     d3dx8d:cd3dxcodec.obj
 0007:00004a44       __real@4282f646            005cc044     d3dx8d:cd3dxcodec.obj
 0007:00004a48       __real@3c019bec            005cc048     d3dx8d:cd3dxcodec.obj
 0007:00004a4c       __real@3b50ef9c            005cc04c     d3dx8d:cd3dxcodec.obj
 0007:00004a50       __real@3ac95e58            005cc050     d3dx8d:cd3dxcodec.obj
 0007:00004a54       __real@3b95a025            005cc054     d3dx8d:cd3dxcodec.obj
 0007:00004a58       __real@3bcd17b6            005cc058     d3dx8d:cd3dxcodec.obj
 0007:00004a5c       ??_7CD3DXCodecDXT@@6B@     005cc05c     d3dx8d:cd3dxcodec.obj
 0007:00004a6c       ??_7CD3DXCodec_R8G8B8@@6B@ 005cc06c     d3dx8d:cd3dxcodec.obj
 0007:00004a7c       ??_7CD3DXCodec_A8R8G8B8@@6B@ 005cc07c     d3dx8d:cd3dxcodec.obj
 0007:00004a8c       ??_7CD3DXCodec_X8R8G8B8@@6B@ 005cc08c     d3dx8d:cd3dxcodec.obj
 0007:00004a9c       ??_7CD3DXCodec_R5G6B5@@6B@ 005cc09c     d3dx8d:cd3dxcodec.obj
 0007:00004aac       ??_7CD3DXCodec_X1R5G5B5@@6B@ 005cc0ac     d3dx8d:cd3dxcodec.obj
 0007:00004abc       ??_7CD3DXCodec_A1R5G5B5@@6B@ 005cc0bc     d3dx8d:cd3dxcodec.obj
 0007:00004acc       ??_7CD3DXCodec_A4R4G4B4@@6B@ 005cc0cc     d3dx8d:cd3dxcodec.obj
 0007:00004adc       ??_7CD3DXCodec_A8@@6B@     005cc0dc     d3dx8d:cd3dxcodec.obj
 0007:00004aec       ??_7CD3DXCodec_P8@@6B@     005cc0ec     d3dx8d:cd3dxcodec.obj
 0007:00004afc       ??_7CD3DXCodec_L8@@6B@     005cc0fc     d3dx8d:cd3dxcodec.obj
 0007:00004b0c       ??_7CD3DXCodec_A8L8@@6B@   005cc10c     d3dx8d:cd3dxcodec.obj
 0007:00004b1c       ??_7CD3DXCodec_V8U8@@6B@   005cc11c     d3dx8d:cd3dxcodec.obj
 0007:00004b2c       ??_7CD3DXCodec_L6V5U5@@6B@ 005cc12c     d3dx8d:cd3dxcodec.obj
 0007:00004b3c       ??_7CD3DXCodec_Q8W8V8U8@@6B@ 005cc13c     d3dx8d:cd3dxcodec.obj
 0007:00004b4c       ??_7CD3DXCodec_V16U16@@6B@ 005cc14c     d3dx8d:cd3dxcodec.obj
 0007:00004b5c       ??_7CD3DXCodec_UYVY@@6B@   005cc15c     d3dx8d:cd3dxcodec.obj
 0007:00004b6c       ??_7CD3DXCodec_YUY2@@6B@   005cc16c     d3dx8d:cd3dxcodec.obj
 0007:00004b7c       ??_7CD3DXCodec_DXT1@@6B@   005cc17c     d3dx8d:cd3dxcodec.obj
 0007:00004b8c       ??_7CD3DXCodec_DXT2@@6B@   005cc18c     d3dx8d:cd3dxcodec.obj
 0007:00004b9c       ??_7CD3DXCodec_DXT4@@6B@   005cc19c     d3dx8d:cd3dxcodec.obj
 0007:00004bb0       __real@3fa999999999999a    005cc1b0     d3dx8d:pngrtran.obj
 0007:00004bc0       __real@40efffe000000000    005cc1c0     d3dx8d:pngrtran.obj
 0007:00004bd0       __real@3ef0001000100010    005cc1d0     d3dx8d:pngrtran.obj
 0007:00004be0       __real@3f70000000000000    005cc1e0     d3dx8d:pngrtran.obj
 0007:00004bf0       __real@3fdd1758e0000000    005cc1f0     d3dx8d:pngset.obj
 0007:00004bfc       ??_7CD3DXSprite@@6B@       005cc1fc     d3dx8d:cd3dxsprite.obj
 0007:00004c24       ??_7CD3DXRenderToSurface@@6B@ 005cc224     d3dx8d:cd3dxrendertosurface.obj
 0007:00004c48       ??_7CD3DXRenderToEnvMap@@6B@ 005cc248     d3dx8d:cd3dxrendertoenvmap.obj
 0007:00004c80       __real@407f400000000000    005cc280     d3dx8d:pngrutil.obj
 0007:00004c90       __real@40e631e000000000    005cc290     d3dx8d:pngrutil.obj
 0007:00004c9c       __real@47c35000            005cc29c     d3dx8d:pngrutil.obj
 0007:00004ca0       _TID_D3DRMRightHanded      005cc2a0     d3dx8d:init.obj
 0007:00004cb4       _TID_D3DRMPropertyBag      005cc2b4     d3dx8d:init.obj
 0007:00004cc8       _TID_D3DRMStringProperty   005cc2c8     d3dx8d:init.obj
 0007:00004cdc       _TID_D3DRMExternalVisual   005cc2dc     d3dx8d:init.obj
 0007:00004cf0       _TID_D3DRMProgressiveMesh  005cc2f0     d3dx8d:init.obj
 0007:00004d04       _TID_D3DRMUrl              005cc304     d3dx8d:init.obj
 0007:00004d18       _TID_D3DRMInlineData       005cc318     d3dx8d:init.obj
 0007:00004d2c       _TID_D3DRMLightAttenuation 005cc32c     d3dx8d:init.obj
 0007:00004d40       _TID_D3DRMLightPenumbra    005cc340     d3dx8d:init.obj
 0007:00004d54       _TID_D3DRMLightRange       005cc354     d3dx8d:init.obj
 0007:00004d68       _TID_D3DRMLightUmbra       005cc368     d3dx8d:init.obj
 0007:00004d7c       _TID_D3DRMAppData          005cc37c     d3dx8d:init.obj
 0007:00004d90       _TID_D3DRMCamera           005cc390     d3dx8d:init.obj
 0007:00004da4       _TID_D3DRMLight            005cc3a4     d3dx8d:init.obj
 0007:00004db8       _TID_D3DRMFrameRotation    005cc3b8     d3dx8d:init.obj
 0007:00004dcc       _TID_D3DRMFrameVelocity    005cc3cc     d3dx8d:init.obj
 0007:00004de0       _TID_D3DRMFramePosition    005cc3e0     d3dx8d:init.obj
 0007:00004df4       _TID_D3DRMAnimationOptions 005cc3f4     d3dx8d:init.obj
 0007:00004e08       _TID_D3DRMTimedFloatKeys   005cc408     d3dx8d:init.obj
 0007:00004e1c       _TID_D3DRMBoolean2d        005cc41c     d3dx8d:init.obj
 0007:00004e30       _TID_D3DRMMeshFaceWraps    005cc430     d3dx8d:init.obj
 0007:00004e44       _TID_D3DRMBoolean          005cc444     d3dx8d:init.obj
 0007:00004e58       _TID_D3DRMMaterialWrap     005cc458     d3dx8d:init.obj
 0007:00004e6c       _TID_D3DRMMeshVertexColors 005cc46c     d3dx8d:init.obj
 0007:00004e80       _TID_D3DRMIndexedColor     005cc480     d3dx8d:init.obj
 0007:00004e94       _TID_D3DRMTextureReference 005cc494     d3dx8d:init.obj
 0007:00004ea8       _TID_D3DRMTextureFilename  005cc4a8     d3dx8d:init.obj
 0007:00004ebc       _TID_D3DRMGuid             005cc4bc     d3dx8d:init.obj
 0007:00004ed0       _TID_D3DRMColorRGB         005cc4d0     d3dx8d:init.obj
 0007:00004ee4       _TID_D3DRMColorRGBA        005cc4e4     d3dx8d:init.obj
 0007:00004ef8       _TID_D3DRMMaterialPower    005cc4f8     d3dx8d:init.obj
 0007:00004f0c       _TID_D3DRMMaterialEmissiveColor 005cc50c     d3dx8d:init.obj
 0007:00004f20       _TID_D3DRMMaterialSpecularColor 005cc520     d3dx8d:init.obj
 0007:00004f34       _TID_D3DRMMaterialDiffuseColor 005cc534     d3dx8d:init.obj
 0007:00004f48       _TID_D3DRMMaterialAmbientColor 005cc548     d3dx8d:init.obj
 0007:00004f5c       _TID_D3DRMFloatKeys        005cc55c     d3dx8d:init.obj
 0007:00004f70       _TID_D3DRMAnimationKey     005cc570     d3dx8d:init.obj
 0007:00004f84       _TID_D3DRMAnimationSet     005cc584     d3dx8d:init.obj
 0007:00004f98       _TID_D3DRMAnimation        005cc598     d3dx8d:init.obj
 0007:00004fac       _TID_D3DRMMatrix4x4        005cc5ac     d3dx8d:init.obj
 0007:00004fc0       _TID_D3DRMCoords2d         005cc5c0     d3dx8d:init.obj
 0007:00004fd4       _TID_D3DRMMeshNormals      005cc5d4     d3dx8d:init.obj
 0007:00004fe8       _TID_D3DRMMeshTextureCoords 005cc5e8     d3dx8d:init.obj
 0007:00004ffc       _TID_D3DRMMeshMaterialList 005cc5fc     d3dx8d:init.obj
 0007:00005010       _TID_D3DRMFrameTransformMatrix 005cc610     d3dx8d:init.obj
 0007:00005024       _TID_D3DRMFrame            005cc624     d3dx8d:init.obj
 0007:00005038       _TID_D3DRMMaterialArray    005cc638     d3dx8d:init.obj
 0007:0000504c       _TID_D3DRMMaterial         005cc64c     d3dx8d:init.obj
 0007:00005060       _TID_D3DRMMeshFace         005cc660     d3dx8d:init.obj
 0007:00005074       _TID_D3DRMVector           005cc674     d3dx8d:init.obj
 0007:00005088       _TID_D3DRMMesh             005cc688     d3dx8d:init.obj
 0007:0000509c       _TID_D3DRMInfo             005cc69c     d3dx8d:init.obj
 0007:000050b0       _IID_ID3DXEffect           005cc6b0     d3dx8d:init.obj
 0007:000050c4       _IID_ID3DXTechnique        005cc6c4     d3dx8d:init.obj
 0007:000050d8       _IID_ID3DXSkinMesh         005cc6d8     d3dx8d:init.obj
 0007:000050ec       _IID_ID3DXSPMesh           005cc6ec     d3dx8d:init.obj
 0007:00005100       _IID_ID3DXPMesh            005cc700     d3dx8d:init.obj
 0007:00005114       _IID_ID3DXMesh             005cc714     d3dx8d:init.obj
 0007:00005128       _IID_ID3DXBaseMesh         005cc728     d3dx8d:init.obj
 0007:0000513c       _TID_DXFILEHeader          005cc73c     d3dx8d:init.obj
 0007:00005150       _IID_IDirectXFileBinary    005cc750     d3dx8d:init.obj
 0007:00005164       _IID_IDirectXFileDataReference 005cc764     d3dx8d:init.obj
 0007:00005178       _IID_IDirectXFileData      005cc778     d3dx8d:init.obj
 0007:0000518c       _IID_IDirectXFileObject    005cc78c     d3dx8d:init.obj
 0007:000051a0       _IID_IDirectXFileSaveObject 005cc7a0     d3dx8d:init.obj
 0007:000051b4       _IID_IDirectXFileEnumObject 005cc7b4     d3dx8d:init.obj
 0007:000051c8       _IID_IDirectXFile          005cc7c8     d3dx8d:init.obj
 0007:000051dc       _CLSID_CDirectXFile        005cc7dc     d3dx8d:init.obj
 0007:000051f0       _IID_ID3DXRenderToEnvMap   005cc7f0     d3dx8d:init.obj
 0007:00005204       _IID_ID3DXRenderToSurface  005cc804     d3dx8d:init.obj
 0007:00005218       _IID_ID3DXSprite           005cc818     d3dx8d:init.obj
 0007:0000522c       _IID_ID3DXBuffer           005cc82c     d3dx8d:init.obj
 0007:00005240       _IID_ID3DXMatrixStack      005cc840     d3dx8d:init.obj
 0007:00005254       __real@3f8a8bd4            005cc854     d3dx8d:jidctflt.obj
 0007:00005258       __real@40273d75            005cc858     d3dx8d:jidctflt.obj
 0007:0000525c       __real@3fec835e            005cc85c     d3dx8d:jidctflt.obj
 0007:00005260       __real@3fb504f3            005cc860     d3dx8d:jidctflt.obj
 0007:00005278       __real@41900000            005cc878     xgraphicsd:api.obj
 0007:0000527c       __real@40200000            005cc87c     xgraphicsd:api.obj
 0007:00005280       __real@3fa66666            005cc880     xgraphicsd:api.obj
 0007:00005284       __real@3f866666            005cc884     xgraphicsd:api.obj
 0007:00005288       __real@3f3851ec            005cc888     xgraphicsd:api.obj
 0007:0000528c       __real@3f547ae1            005cc88c     xgraphicsd:api.obj
 0007:00005290       __real@40600000            005cc890     xgraphicsd:api.obj
 0007:00005294       __real@3f19999a            005cc894     xgraphicsd:api.obj
 0007:00005298       __real@3e99999a            005cc898     xgraphicsd:api.obj
 0007:0000529c       __real@3e4ccccd            005cc89c     xgraphicsd:api.obj
 0007:000052a0       __real@3ecccccd            005cc8a0     xgraphicsd:api.obj
 0007:000052a4       __real@3ea8f5c3            005cc8a4     xgraphicsd:api.obj
 0007:000052a8       __real@3e2e147b            005cc8a8     xgraphicsd:api.obj
 0007:000052ac       ??_7XD3DXErrorLog@XGRAPHICS@@6B@ 005cc8ac     xgraphicsd:api.obj
 0007:000052b0       ??_7MyErrorLog@XGRAPHICS@@6B@ 005cc8b0     xgraphicsd:api.obj
 0007:000052b8       __real@3fc851eb851eb852    005cc8b8     xgraphicsd:api.obj
 0007:000052c8       __real@3ff199999999999a    005cc8c8     xgraphicsd:api.obj
 0007:000052d4       ??_7CompMask@VS_GRAPH_OPTIMIZER@XGRAPHICS@@6B@ 005cc8d4     xgraphicsd:instructiongraph.obj
 0007:000052d8       ??_7Swizzle@VS_GRAPH_OPTIMIZER@XGRAPHICS@@6B@ 005cc8d8     xgraphicsd:instructiongraph.obj
 0007:000052dc       ??_7?$collection@PAVRegister@VS_GRAPH_OPTIMIZER@XGRAPHICS@@@VS_GRAPH_OPTIMIZER@XGRAPHICS@@6B@ 005cc8dc     xgraphicsd:instructiongraph.obj
 0007:000052e0       ??_7?$set@PAVRegister@VS_GRAPH_OPTIMIZER@XGRAPHICS@@U?$less@PAVRegister@VS_GRAPH_OPTIMIZER@XGRAPHICS@@@23@@VS_GRAPH_OPTIMIZER@XGRAPHICS@@6B@ 005cc8e0     xgraphicsd:instructiongraph.obj
 0007:000052ec       ??_7?$collection@PAVGraphOptimizerObject@VS_GRAPH_OPTIMIZER@XGRAPHICS@@@VS_GRAPH_OPTIMIZER@XGRAPHICS@@6B@ 005cc8ec     xgraphicsd:instructiongraph.obj
 0007:000052f0       ??_7?$collection@PAV?$collection@PAVRegister@VS_GRAPH_OPTIMIZER@XGRAPHICS@@@VS_GRAPH_OPTIMIZER@XGRAPHICS@@@VS_GRAPH_OPTIMIZER@XGRAPHICS@@6B@ 005cc8f0     xgraphicsd:instructiongraph.obj
 0007:000052f4       ??_7?$collection@PAVReader@VS_GRAPH_OPTIMIZER@XGRAPHICS@@@VS_GRAPH_OPTIMIZER@XGRAPHICS@@6B@ 005cc8f4     xgraphicsd:instructiongraph.obj
 0007:000052f8       ??_7?$collection@PAV?$collection@PAVInstruction@VS_GRAPH_OPTIMIZER@XGRAPHICS@@@VS_GRAPH_OPTIMIZER@XGRAPHICS@@@VS_GRAPH_OPTIMIZER@XGRAPHICS@@6B@ 005cc8f8     xgraphicsd:instructiongraph.obj
 0007:000052fc       ??_7?$collection@PAVInstruction@VS_GRAPH_OPTIMIZER@XGRAPHICS@@@VS_GRAPH_OPTIMIZER@XGRAPHICS@@6B@ 005cc8fc     xgraphicsd:instructiongraph.obj
 0007:00005300       ??_7?$collection@V?$pair@HPAVRegister@VS_GRAPH_OPTIMIZER@XGRAPHICS@@@VS_GRAPH_OPTIMIZER@XGRAPHICS@@@VS_GRAPH_OPTIMIZER@XGRAPHICS@@6B@ 005cc900     xgraphicsd:instructiongraph.obj
 0007:00005304       ??_7node@?$list@PAVInstruction@VS_GRAPH_OPTIMIZER@XGRAPHICS@@@VS_GRAPH_OPTIMIZER@XGRAPHICS@@6B@ 005cc904     xgraphicsd:instructiongraph.obj
 0007:00005308       ??_7?$set@PAVGraphOptimizerObject@VS_GRAPH_OPTIMIZER@XGRAPHICS@@U?$less@PAVGraphOptimizerObject@VS_GRAPH_OPTIMIZER@XGRAPHICS@@@23@@VS_GRAPH_OPTIMIZER@XGRAPHICS@@6B@ 005cc908     xgraphicsd:instructiongraph.obj
 0007:00005314       ??_7?$set@PAV?$collection@PAVRegister@VS_GRAPH_OPTIMIZER@XGRAPHICS@@@VS_GRAPH_OPTIMIZER@XGRAPHICS@@U?$less@PAV?$collection@PAVRegister@VS_GRAPH_OPTIMIZER@XGRAPHICS@@@VS_GRAPH_OPTIMIZER@XGRAPHICS@@@23@@VS_GRAPH_OPTIMIZER@XGRAPHICS@@6B@ 005cc914     xgraphicsd:instructiongraph.obj
 0007:00005320       ??_7?$set@PAVReader@VS_GRAPH_OPTIMIZER@XGRAPHICS@@U?$less@PAVReader@VS_GRAPH_OPTIMIZER@XGRAPHICS@@@23@@VS_GRAPH_OPTIMIZER@XGRAPHICS@@6B@ 005cc920     xgraphicsd:instructiongraph.obj
 0007:0000532c       ??_7?$set@PAV?$collection@PAVInstruction@VS_GRAPH_OPTIMIZER@XGRAPHICS@@@VS_GRAPH_OPTIMIZER@XGRAPHICS@@U?$less@PAV?$collection@PAVInstruction@VS_GRAPH_OPTIMIZER@XGRAPHICS@@@VS_GRAPH_OPTIMIZER@XGRAPHICS@@@23@@VS_GRAPH_OPTIMIZER@XGRAPHICS@@6B@ 005cc92c     xgraphicsd:instructiongraph.obj
 0007:00005338       ??_7?$list@PAVInstruction@VS_GRAPH_OPTIMIZER@XGRAPHICS@@@VS_GRAPH_OPTIMIZER@XGRAPHICS@@6B@ 005cc938     xgraphicsd:instructiongraph.obj
 0007:00005344       ??_7?$set@PAVInstruction@VS_GRAPH_OPTIMIZER@XGRAPHICS@@UInstructionLess@23@@VS_GRAPH_OPTIMIZER@XGRAPHICS@@6B@ 005cc944     xgraphicsd:instructiongraph.obj
 0007:00005350       ??_7?$set@V?$pair@HPAVRegister@VS_GRAPH_OPTIMIZER@XGRAPHICS@@@VS_GRAPH_OPTIMIZER@XGRAPHICS@@U?$pair_less@V?$pair@HPAVRegister@VS_GRAPH_OPTIMIZER@XGRAPHICS@@@VS_GRAPH_OPTIMIZER@XGRAPHICS@@@23@@VS_GRAPH_OPTIMIZER@XGRAPHICS@@6B@ 005cc950     xgraphicsd:instructiongraph.obj
 0007:0000535c       ??_7node@?$set@PAVGraphOptimizerObject@VS_GRAPH_OPTIMIZER@XGRAPHICS@@U?$less@PAVGraphOptimizerObject@VS_GRAPH_OPTIMIZER@XGRAPHICS@@@23@@VS_GRAPH_OPTIMIZER@XGRAPHICS@@6B@ 005cc95c     xgraphicsd:instructiongraph.obj
 0007:00005360       ??_7node@?$set@PAV?$collection@PAVRegister@VS_GRAPH_OPTIMIZER@XGRAPHICS@@@VS_GRAPH_OPTIMIZER@XGRAPHICS@@U?$less@PAV?$collection@PAVRegister@VS_GRAPH_OPTIMIZER@XGRAPHICS@@@VS_GRAPH_OPTIMIZER@XGRAPHICS@@@23@@VS_GRAPH_OPTIMIZER@XGRAPHICS@@6B@ 005cc960     xgraphicsd:instructiongraph.obj
 0007:00005364       ??_7node@?$set@PAVReader@VS_GRAPH_OPTIMIZER@XGRAPHICS@@U?$less@PAVReader@VS_GRAPH_OPTIMIZER@XGRAPHICS@@@23@@VS_GRAPH_OPTIMIZER@XGRAPHICS@@6B@ 005cc964     xgraphicsd:instructiongraph.obj
 0007:00005368       ??_7node@?$set@PAV?$collection@PAVInstruction@VS_GRAPH_OPTIMIZER@XGRAPHICS@@@VS_GRAPH_OPTIMIZER@XGRAPHICS@@U?$less@PAV?$collection@PAVInstruction@VS_GRAPH_OPTIMIZER@XGRAPHICS@@@VS_GRAPH_OPTIMIZER@XGRAPHICS@@@23@@VS_GRAPH_OPTIMIZER@XGRAPHICS@@6B@ 005cc968     xgraphicsd:instructiongraph.obj
 0007:0000536c       ??_7node@?$set@PAVInstruction@VS_GRAPH_OPTIMIZER@XGRAPHICS@@UInstructionLess@23@@VS_GRAPH_OPTIMIZER@XGRAPHICS@@6B@ 005cc96c     xgraphicsd:instructiongraph.obj
 0007:00005370       ??_7node@?$set@PAVRegister@VS_GRAPH_OPTIMIZER@XGRAPHICS@@U?$less@PAVRegister@VS_GRAPH_OPTIMIZER@XGRAPHICS@@@23@@VS_GRAPH_OPTIMIZER@XGRAPHICS@@6B@ 005cc970     xgraphicsd:instructiongraph.obj
 0007:00005374       ??_7node@?$set@V?$pair@HPAVRegister@VS_GRAPH_OPTIMIZER@XGRAPHICS@@@VS_GRAPH_OPTIMIZER@XGRAPHICS@@U?$pair_less@V?$pair@HPAVRegister@VS_GRAPH_OPTIMIZER@XGRAPHICS@@@VS_GRAPH_OPTIMIZER@XGRAPHICS@@@23@@VS_GRAPH_OPTIMIZER@XGRAPHICS@@6B@ 005cc974     xgraphicsd:instructiongraph.obj
 0007:00005378       ??_7?$map@HPAVRegister@VS_GRAPH_OPTIMIZER@XGRAPHICS@@@VS_GRAPH_OPTIMIZER@XGRAPHICS@@6B?$collection@PAVRegister@VS_GRAPH_OPTIMIZER@XGRAPHICS@@@12@@ 005cc978     xgraphicsd:instructiongraph.obj
 0007:0000537c       ??_7?$map@HPAVRegister@VS_GRAPH_OPTIMIZER@XGRAPHICS@@@VS_GRAPH_OPTIMIZER@XGRAPHICS@@6B?$set@V?$pair@HPAVRegister@VS_GRAPH_OPTIMIZER@XGRAPHICS@@@VS_GRAPH_OPTIMIZER@XGRAPHICS@@U?$pair_less@V?$pair@HPAVRegister@VS_GRAPH_OPTIMIZER@XGRAPHICS@@@VS_GRAPH_OPTIMIZER@XGRAPHICS@@@23@@12@@ 005cc97c     xgraphicsd:instructiongraph.obj
 0007:00005388       ??_7GraphOptimizerObject@VS_GRAPH_OPTIMIZER@XGRAPHICS@@6B@ 005cc988     xgraphicsd:instructiongraph.obj
 0007:0000538c       ??_7Reader@VS_GRAPH_OPTIMIZER@XGRAPHICS@@6B@ 005cc98c     xgraphicsd:instructiongraph.obj
 0007:00005390       ??_7Instruction@VS_GRAPH_OPTIMIZER@XGRAPHICS@@6B@ 005cc990     xgraphicsd:instructiongraph.obj
 0007:00005394       ??_7Register@VS_GRAPH_OPTIMIZER@XGRAPHICS@@6B@ 005cc994     xgraphicsd:instructiongraph.obj
 0007:00005398       ??_7InstructionSequence@VS_GRAPH_OPTIMIZER@XGRAPHICS@@6B@ 005cc998     xgraphicsd:instructiongraph.obj
 0007:000053a4       ??_7InstructionGraph@VS_GRAPH_OPTIMIZER@XGRAPHICS@@6B@ 005cc9a4     xgraphicsd:instructiongraph.obj
 0007:000053b0       ??_7CVShaderValidator@XGRAPHICS@@6B@ 005cc9b0     xgraphicsd:vshdrval.obj
 0007:000053c8       ??_7CVSInstruction@XGRAPHICS@@6B@ 005cc9c8     xgraphicsd:vshdrval.obj
 0007:000053cc       ??_7CPShaderValidator@XGRAPHICS@@6B@ 005cc9cc     xgraphicsd:pshdrval.obj
 0007:000053e4       ??_7CPSInstruction@XGRAPHICS@@6B@ 005cc9e4     xgraphicsd:pshdrval.obj
 0007:000053e8       ??_7PixelShaderOptimizer@XGRAPHICS@@6B@ 005cc9e8     xgraphicsd:pixelshaderoptimizer.obj
 0007:000053f4       ??_7PSODeadCodeStripper@XGRAPHICS@@6B@ 005cc9f4     xgraphicsd:pixelshaderoptimizer.obj
 0007:00005400       ??_7PSOPairInstructions@XGRAPHICS@@6B@ 005cca00     xgraphicsd:pixelshaderoptimizer.obj
 0007:0000540c       ??_7PSORemoveEmptyStages@XGRAPHICS@@6B@ 005cca0c     xgraphicsd:pixelshaderoptimizer.obj
 0007:00005418       ??_7CBaseShaderValidator@XGRAPHICS@@6B@ 005cca18     xgraphicsd:valbase.obj
 0007:00005430       ??_7CBaseInstruction@XGRAPHICS@@6B@ 005cca30     xgraphicsd:valbase.obj
 0007:00005434       ??_C@_0DK@FDKICPPO@d?3?2xbox?9dec03?2private?2sdktools?2c@ 005cca34     LIBCMTD:dbgdel.obj
 0007:0000547c       ??_C@_0CH@IAGMNLOM@_BLOCK_TYPE_IS_VALID?$CIpHead?9?$DOnBlo@ 005cca7c     LIBCMTD:dbgdel.obj
 0007:000054d0       ??_C@_0DI@ILECDCDD@d?3?2xbox?9dec03?2private?2sdktools?2c@ 005ccad0     LIBCMTD:onexit.obj
 0007:00005514       ??_C@_0P@NHGFNCDP@format?5?$CB?$DN?5NULL?$AA@ 005ccb14     LIBCMTD:swprintf.obj
 0007:00005528       ??_C@_0DL@FLCIANKF@d?3?2xbox?9dec03?2private?2sdktools?2c@ 005ccb28     LIBCMTD:swprintf.obj
 0007:00005570       ??_C@_0P@NFGNABCI@string?5?$CB?$DN?5NULL?$AA@ 005ccb70     LIBCMTD:swprintf.obj
 0007:00005584       ??_C@_0DL@CDJEABJN@d?3?2xbox?9dec03?2private?2sdktools?2c@ 005ccb84     LIBCMTD:vsnprint.obj
 0007:000055cc       ??_C@_0DK@JHJOOHGC@d?3?2xbox?9dec03?2private?2sdktools?2c@ 005ccbcc     LIBCMTD:sprintf.obj
 0007:00005614       ??_C@_0DJ@CGNFGBGI@d?3?2xbox?9dec03?2private?2sdktools?2c@ 005ccc14     LIBCMTD:fclose.obj
 0007:00005658       ??_C@_0P@FELNCIKG@stream?5?$CB?$DN?5NULL?$AA@ 005ccc58     LIBCMTD:fclose.obj
 0007:00005680       ??_C@_0M@CMNAFCJK@str?5?$CB?$DN?5NULL?$AA@ 005ccc80     LIBCMTD:fclose.obj
 0007:000056a0       ??_C@_0BC@LDFCGPMK@?$CKmode?5?$CB?$DN?5_T?$CI?8?20?8?$CJ?$AA@ 005ccca0     LIBCMTD:fopen.obj
 0007:000056b8       ??_C@_0N@HDDIJGHA@mode?5?$CB?$DN?5NULL?$AA@ 005cccb8     LIBCMTD:fopen.obj
 0007:000056c8       ??_C@_0BC@JKMANOLD@?$CKfile?5?$CB?$DN?5_T?$CI?8?20?8?$CJ?$AA@ 005cccc8     LIBCMTD:fopen.obj
 0007:000056e0       ??_C@_0DI@LKIFJIMM@d?3?2xbox?9dec03?2private?2sdktools?2c@ 005ccce0     LIBCMTD:fopen.obj
 0007:00005724       ??_C@_0N@MBAPGNHG@file?5?$CB?$DN?5NULL?$AA@ 005ccd24     LIBCMTD:fopen.obj
 0007:00005748       ??_C@_02PHMGELLB@?6?6?$AA@ 005ccd48     LIBCMTD:assert.obj
 0007:0000574c       ??_C@_03KHICJKCI@?4?4?4?$AA@ 005ccd4c     LIBCMTD:assert.obj
 0007:00005750       ??_C@_0N@MEECIJGN@Expression?3?5?$AA@ 005ccd50     LIBCMTD:assert.obj
 0007:00005760       ??_C@_06FIEBOLOH@Line?3?5?$AA@ 005ccd60     LIBCMTD:assert.obj
 0007:00005768       ??_C@_06IGPBOHMJ@File?3?5?$AA@ 005ccd68     LIBCMTD:assert.obj
 0007:00005770       ??_C@_0BC@LAIDCHCH@Assertion?5failed?$CB?$AA@ 005ccd70     LIBCMTD:assert.obj
 0007:00005788       ??_C@_06PJIGMIJB@Client?$AA@ 005ccd88     LIBCMTD:dbgheap.obj
 0007:00005790       ??_C@_06KMEJCCGM@Ignore?$AA@ 005ccd90     LIBCMTD:dbgheap.obj
 0007:00005798       ??_C@_03OGPFLFLO@CRT?$AA@  005ccd98     LIBCMTD:dbgheap.obj
 0007:0000579c       ??_C@_06EFAGIKOH@Normal?$AA@ 005ccd9c     LIBCMTD:dbgheap.obj
 0007:000057a4       ??_C@_04HJMOFLDF@Free?$AA@ 005ccda4     LIBCMTD:dbgheap.obj
 0007:000057c0       ??_C@_0DC@JEMAGEKG@Error?3?5memory?5allocation?3?5bad?5me@ 005ccdc0     LIBCMTD:dbgheap.obj
 0007:000057fc       ??_C@_0CF@BICKFLAF@Invalid?5allocation?5size?3?5?$CFIu?5byt@ 005ccdfc     LIBCMTD:dbgheap.obj
 0007:00005828       ??_C@_0CB@CCLOLAHO@Client?5hook?5allocation?5failure?4?6@ 005cce28     LIBCMTD:dbgheap.obj
 0007:00005850       ??_C@_0DF@BBEGIFEK@Client?5hook?5allocation?5failure?5a@ 005cce50     LIBCMTD:dbgheap.obj
 0007:00005890       ??_C@_0DJ@EGPGDGJL@d?3?2xbox?9dec03?2private?2sdktools?2c@ 005cce90     LIBCMTD:dbgheap.obj
 0007:000058d4       ??_C@_0BC@FKEPGOPH@_CrtCheckMemory?$CI?$CJ?$AA@ 005cced4     LIBCMTD:dbgheap.obj
 0007:00005900       ??_C@_0BK@DJDKJKNJ@_pFirstBlock?5?$DN?$DN?5pOldBlock?$AA@ 005ccf00     LIBCMTD:dbgheap.obj
 0007:00005920       ??_C@_0BJ@PGMLBCKP@_pLastBlock?5?$DN?$DN?5pOldBlock?$AA@ 005ccf20     LIBCMTD:dbgheap.obj
 0007:00005940       ??_C@_0DC@LIEEBBFH@fRealloc?5?$HM?$HM?5?$CI?$CBfRealloc?5?$CG?$CG?5pNewBl@ 005ccf40     LIBCMTD:dbgheap.obj
 0007:00005980       ??_C@_0EF@BKJNHFDP@pOldBlock?9?$DOnLine?5?$DN?$DN?5IGNORE_LINE?5@ 005ccf80     LIBCMTD:dbgheap.obj
 0007:000059d4       ??_C@_0CC@MCCNOMLK@_CrtIsValidHeapPointer?$CIpUserData@ 005ccfd4     LIBCMTD:dbgheap.obj
 0007:00005a00       ??_C@_0EM@LGFLMAGJ@The?5Block?5at?50x?$CFp?5was?5allocated?5@ 005cd000     LIBCMTD:dbgheap.obj
 0007:00005a5c       ??_C@_0CO@KPNFNEPA@Allocation?5too?5large?5or?5negative@ 005cd05c     LIBCMTD:dbgheap.obj
 0007:00005a94       ??_C@_0CE@DOFMDOL@Client?5hook?5re?9allocation?5failur@ 005cd094     LIBCMTD:dbgheap.obj
 0007:00005ac0       ??_C@_0DI@KKJPDPGM@Client?5hook?5re?9allocation?5failur@ 005cd0c0     LIBCMTD:dbgheap.obj
 0007:00005b28       ??_C@_0BG@JDINNDDC@_pFirstBlock?5?$DN?$DN?5pHead?$AA@ 005cd128     LIBCMTD:dbgheap.obj
 0007:00005b44       ??_C@_0BF@LMGMGAEG@_pLastBlock?5?$DN?$DN?5pHead?$AA@ 005cd144     LIBCMTD:dbgheap.obj
 0007:00005b60       ??_C@_0BO@LGCGBMOH@pHead?9?$DOnBlockUse?5?$DN?$DN?5nBlockUse?$AA@ 005cd160     LIBCMTD:dbgheap.obj
 0007:00005b84       ??_C@_0DN@GKKPDMLN@pHead?9?$DOnLine?5?$DN?$DN?5IGNORE_LINE?5?$CG?$CG?5p@ 005cd184     LIBCMTD:dbgheap.obj
 0007:00005bd0       ??_C@_0CI@CMGHMNIC@DAMAGE?3?5after?5?$CFhs?5block?5?$CI?$CD?$CFd?$CJ?5at@ 005cd1d0     LIBCMTD:dbgheap.obj
 0007:00005c00       ??_C@_0CJ@OHOOBLKI@DAMAGE?3?5before?5?$CFhs?5block?5?$CI?$CD?$CFd?$CJ?5a@ 005cd200     LIBCMTD:dbgheap.obj
 0007:00005c34       ??_C@_0BL@KEIPLFAC@Client?5hook?5free?5failure?4?6?$AA@ 005cd234     LIBCMTD:dbgheap.obj
 0007:00005c58       ??_C@_0EJ@HEIBCIMJ@The?5Block?5at?50x?$CFp?5was?5allocated?5@ 005cd258     LIBCMTD:dbgheap.obj
 0007:00005cd0       ??_C@_0CI@JMLBEDHJ@?$CFhs?5located?5at?50x?$CFp?5is?5?$CFIu?5bytes@ 005cd2d0     LIBCMTD:dbgheap.obj
 0007:00005d00       ??_C@_0CA@FGFAGAOM@?$CFhs?5allocated?5at?5file?5?$CFhs?$CI?$CFd?$CJ?4?6?$AA@ 005cd300     LIBCMTD:dbgheap.obj
 0007:00005d28       ??_C@_0CH@JKKAOBEK@DAMAGE?3?5on?5top?5of?5Free?5block?5at?5@ 005cd328     LIBCMTD:dbgheap.obj
 0007:00005d58       ??_C@_07OHKEFPKJ@DAMAGED?$AA@ 005cd358     LIBCMTD:dbgheap.obj
 0007:00005d64       ??_C@_0CL@HNNNMKMJ@_heapchk?5fails?5with?5unknown?5retu@ 005cd364     LIBCMTD:dbgheap.obj
 0007:00005d98       ??_C@_0CC@MFFCHFHO@_heapchk?5fails?5with?5_HEAPBADPTR?4@ 005cd398     LIBCMTD:dbgheap.obj
 0007:00005dc0       ??_C@_0CC@MJGLGBDG@_heapchk?5fails?5with?5_HEAPBADEND?4@ 005cd3c0     LIBCMTD:dbgheap.obj
 0007:00005de8       ??_C@_0CD@CPKEAPBD@_heapchk?5fails?5with?5_HEAPBADNODE@ 005cd3e8     LIBCMTD:dbgheap.obj
 0007:00005e14       ??_C@_0CE@MKKHMBMK@_heapchk?5fails?5with?5_HEAPBADBEGI@ 005cd414     LIBCMTD:dbgheap.obj
 0007:00005e80       ??_C@_0CB@EAAIGELO@Bad?5memory?5block?5found?5at?50x?$CFp?4?6@ 005cd480     LIBCMTD:dbgheap.obj
 0007:00005ea8       ??_C@_0CI@KDKEAJEJ@_CrtMemCheckPoint?3?5NULL?5state?5po@ 005cd4a8     LIBCMTD:dbgheap.obj
 0007:00005ee8       ??_C@_0CI@ENCLCMLG@_CrtMemDifference?3?5NULL?5state?5po@ 005cd4e8     LIBCMTD:dbgheap.obj
 0007:00005f18       ??_C@_0BH@GFGKJDCO@Object?5dump?5complete?4?6?$AA@ 005cd518     LIBCMTD:dbgheap.obj
 0007:00005f34       ??_C@_0DA@MDLBNIBM@crt?5block?5at?50x?$CFp?0?5subtype?5?$CFx?0?5?$CF@ 005cd534     LIBCMTD:dbgheap.obj
 0007:00005f70       ??_C@_0CH@FAGDDGPN@normal?5block?5at?50x?$CFp?0?5?$CFIu?5bytes?5@ 005cd570     LIBCMTD:dbgheap.obj
 0007:00005fa0       ??_C@_0DD@GHNAAKBB@client?5block?5at?50x?$CFp?0?5subtype?5?$CFx@ 005cd5a0     LIBCMTD:dbgheap.obj
 0007:00005fe0       ??_C@_06PKLGBFGM@?$HL?$CFld?$HN?5?$AA@ 005cd5e0     LIBCMTD:dbgheap.obj
 0007:00005fe8       ??_C@_0L@JMEFFCCJ@?$CFhs?$CI?$CFd?$CJ?5?3?5?$AA@ 005cd5e8     LIBCMTD:dbgheap.obj
 0007:00005ff8       ??_C@_0BE@OIEFNFL@?$CDFile?5Error?$CD?$CI?$CFd?$CJ?5?3?5?$AA@ 005cd5f8     LIBCMTD:dbgheap.obj
 0007:00006010       ??_C@_0BE@KCIPKCIA@Dumping?5objects?5?9?$DO?6?$AA@ 005cd610     LIBCMTD:dbgheap.obj
 0007:00006038       ??_C@_0BA@HJBKCELP@?5Data?3?5?$DM?$CFs?$DO?5?$CFs?6?$AA@ 005cd638     LIBCMTD:dbgheap.obj
 0007:0000604c       ??_C@_05MKKEDADM@?$CF?42X?5?$AA@ 005cd64c     LIBCMTD:dbgheap.obj
 0007:00006054       ??_C@_0BI@JBFPOEJA@Detected?5memory?5leaks?$CB?6?$AA@ 005cd654     LIBCMTD:dbgheap.obj
 0007:00006070       ??_C@_0BP@DEDHGGGI@Total?5allocations?3?5?$CFId?5bytes?4?6?$AA@ 005cd670     LIBCMTD:dbgheap.obj
 0007:00006098       ??_C@_0CB@BLHDAFNE@Largest?5number?5used?3?5?$CFId?5bytes?4?6@ 005cd698     LIBCMTD:dbgheap.obj
 0007:000060c0       ??_C@_0BO@DACNIABB@?$CFId?5bytes?5in?5?$CFId?5?$CFhs?5Blocks?4?6?$AA@ 005cd6c0     LIBCMTD:dbgheap.obj
 0007:000060e4       ??_C@_0CC@GFBJAAAH@?$CI?$CCoffset?5must?5be?5within?5size?$CC?0?50@ 005cd6e4     LIBCMTD:dbgheap.obj
 0007:0000610c       ??_C@_0CF@PGBEDOC@?$CI?$CCalignment?5must?5be?5a?5power?5of?52@ 005cd70c     LIBCMTD:dbgheap.obj
 0007:00006138       ??_C@_0DL@PGHMMKNE@Damage?5before?50x?$CFp?5which?5was?5all@ 005cd738     LIBCMTD:dbgheap.obj
 0007:00006180       ??_C@_0EI@NDNJMAJK@The?5block?5at?50x?$CFp?5was?5not?5alloca@ 005cd780     LIBCMTD:dbgheap.obj
 0007:000061d8       ??_C@_0EF@PGELACII@The?5block?5at?50x?$CFp?5was?5not?5alloca@ 005cd7d8     LIBCMTD:dbgheap.obj
 0007:00006250       ??_C@_0BL@HKJJBNKI@exit?$CI?$CJ?5unsupported?5on?5Xbox?$AA@ 005cd850     LIBCMTD:crt0dat.obj
 0007:000062b0       ??_7type_info@@6B@         005cd8b0     LIBCMTD:typinfo.obj
 0007:000062f0       ??_C@_0DJ@PKLOLKDJ@d?3?2xbox?9dec03?2private?2sdktools?2c@ 005cd8f0     LIBCMTD:sscanf.obj
 0007:0000634c       ??_C@_0BO@GNIAFIKK@Unknown?5Runtime?5Check?5Error?6?$AN?$AA@ 005cd94c     LIBCMTD:error.obj
 0007:00006370       ??_C@_0DG@HKJMLLLP@A?5local?5variable?5was?5used?5before@ 005cd970     LIBCMTD:error.obj
 0007:000063b0       ??_C@_0BN@FFOINMNJ@Stack?5memory?5was?5corrupted?6?$AN?$AA@ 005cd9b0     LIBCMTD:error.obj
 0007:000063d8       ??_C@_0BBN@GPMLNJCF@A?5cast?5to?5a?5smaller?5data?5type?5ha@ 005cd9d8     LIBCMTD:error.obj
 0007:00006530       ??_C@_0NN@NGPKDKPD@The?5value?5of?5ESP?5was?5not?5properl@ 005cdb30     LIBCMTD:error.obj
 0007:0000663c       ??_C@_09IEDNJDJD@Undefined?$AA@ 005cdc3c     LIBCMTD:error.obj
 0007:00006648       ??_C@_0CA@IODNCDPG@Run?9Time?5Check?5Failure?5?$CD?$CFd?5?9?5?$CFs?$AA@ 005cdc48     LIBCMTD:error.obj
 0007:00006690       ??_C@_0L@CJCNHJJG@?6?$ANModule?3?7?$AA@ 005cdc90     LIBCMTD:error.obj
 0007:000066a0       ??_C@_08GJEJCAJD@?6?$ANLine?3?7?$AA@ 005cdca0     LIBCMTD:error.obj
 0007:000066ac       ??_C@_0CI@INCLAPNB@Invalid?5pointer?5was?5assigned?5at?6@ 005cdcac     LIBCMTD:error.obj
 0007:000066dc       ??_C@_0BB@JEGFEAAM@?8?5was?5corrupted?4?$AA@ 005cdcdc     LIBCMTD:error.obj
 0007:000066f0       ??_C@_0BM@FGFAMDLF@Stack?5around?5the?5variable?5?8?$AA@ 005cdcf0     LIBCMTD:error.obj
 0007:00006714       ??_C@_0DA@BEGFPCGG@A?5variable?5is?5being?5used?5without@ 005cdd14     LIBCMTD:error.obj
 0007:00006750       ??_C@_0CH@LOIIHGKM@?8?5is?5being?5used?5without?5being?5de@ 005cdd50     LIBCMTD:error.obj
 0007:00006780       ??_C@_0P@HLKMHJCG@The?5variable?5?8?$AA@ 005cdd80     LIBCMTD:error.obj
 0007:00006794       ??_C@_0CK@CNLNOEPB@Local?5variable?5used?5before?5initi@ 005cdd94     LIBCMTD:userapi.obj
 0007:000067c8       ??_C@_0BI@CIGMDCBH@Stack?5memory?5corruption?$AA@ 005cddc8     LIBCMTD:userapi.obj
 0007:000067e4       ??_C@_0CK@FEGOIOPB@Cast?5to?5smaller?5type?5causing?5los@ 005cdde4     LIBCMTD:userapi.obj
 0007:00006818       ??_C@_0BJ@HEGAHDFO@Stack?5pointer?5corruption?$AA@ 005cde18     LIBCMTD:userapi.obj
 0007:00006838       ??_C@_0DN@OMFFILMN@d?3?2xbox?9dec03?2private?2sdktools?2c@ 005cde38     LIBCMTD:chkesp.obj
 0007:00006888       ??_C@_0NM@DNEDKLDF@The?5value?5of?5ESP?5was?5not?5properl@ 005cde88     LIBCMTD:chkesp.obj
 0007:00006990       ??_C@_0DK@FDAPOOKI@d?3?2xbox?9dec03?2private?2sdktools?2c@ 005cdf90     LIBCMTD:mlock.obj
 0007:000069e8       ??_C@_0BB@NAGLCMLI@Assertion?5Failed?$AA@ 005cdfe8     LIBCMTD:dbgrpt.obj
 0007:000069fc       ??_C@_05NAOIJFC@Error?$AA@ 005cdffc     LIBCMTD:dbgrpt.obj
 0007:00006a04       ??_C@_07KGMMFLDN@Warning?$AA@ 005ce004     LIBCMTD:dbgrpt.obj
 0007:00006a10       ??_C@_0DI@FEMHOBN@d?3?2xbox?9dec03?2private?2sdktools?2c@ 005ce010     LIBCMTD:dbgrpt.obj
 0007:00006a68       ??_C@_0M@IPILFDFN@?$CFs?$CI?$CFd?$CJ?5?3?5?$CFs?$AA@ 005ce068     LIBCMTD:dbgrpt.obj
 0007:00006a78       ??_C@_01LIIJDEN@?$AN?$AA@  005ce078     LIBCMTD:dbgrpt.obj
 0007:00006a7c       ??_C@_0BD@CAENFOHP@Assertion?5failed?3?5?$AA@ 005ce07c     LIBCMTD:dbgrpt.obj
 0007:00006a94       ??_C@_0CL@EACFGMNB@_CrtDbgReport?3?5String?5too?5long?5o@ 005ce094     LIBCMTD:dbgrpt.obj
 0007:00006ac8       ??_C@_07BHGABMGB@?0?5Line?5?$AA@ 005ce0c8     LIBCMTD:dbgrpt.obj
 0007:00006ad4       ??_C@_0CG@BNGLOCEO@Second?5Chance?5Assertion?5Failed?3?5@ 005ce0d4     LIBCMTD:dbgrpt.obj
 0007:00006b18       ??_C@_0FD@IIKNDPHJ@Debug?5?$CFs?$CB?6?6Program?3?5?$CFs?$CFs?$CFs?$CFs?$CFs?$CFs@ 005ce118     LIBCMTD:dbgrpt.obj
 0007:00006b7c       ??_C@_09OFBFHMBK@?6Module?3?5?$AA@ 005ce17c     LIBCMTD:dbgrpt.obj
 0007:00006b88       ??_C@_07OPHPPLBG@?6File?3?5?$AA@ 005ce188     LIBCMTD:dbgrpt.obj
 0007:00006b94       ??_C@_07DBMPPHDI@?6Line?3?5?$AA@ 005ce194     LIBCMTD:dbgrpt.obj
 0007:00006ba0       ??_C@_0HD@GNBNFCCL@?6?6For?5information?5on?5how?5your?5pr@ 005ce1a0     LIBCMTD:dbgrpt.obj
 0007:00006c2c       ??_C@_0BG@IHOEIIEJ@szUserMessage?5?$CB?$DN?5NULL?$AA@ 005ce22c     LIBCMTD:dbgrpt.obj
 0007:00006c48       ??_C@_0DN@GONBAOKK@d?3?2xbox?9dec03?2private?2sdktools?2c@ 005ce248     LIBCMTD:tidtable.obj
 0007:00006ca8       ??_C@_05KLBDPFGC@e?$CL000?$AA@ 005ce2a8     LIBCMTD:cvt.obj
 0007:00006cb8       __DEFAULT_CW_in_mem        005ce2b8     LIBCMTD:common.obj
 0007:00006cba       __pi_by_2_to_61            005ce2ba     LIBCMTD:common.obj
 0007:00006d04       ??_C@_0DP@FICHPIPH@?$CI?$CCinconsistent?5IOB?5fields?$CC?0?5stre@ 005ce304     LIBCMTD:_flsbuf.obj
 0007:00006d50       ??_C@_0DK@PNBIDGJF@d?3?2xbox?9dec03?2private?2sdktools?2c@ 005ce350     LIBCMTD:_flsbuf.obj
 0007:00006d98       ??_C@_0DJ@PBPGEICC@d?3?2xbox?9dec03?2private?2sdktools?2c@ 005ce398     LIBCMTD:woutput.obj
 0007:00006e60       ??_C@_0BI@ECFICHKO@Unhandled?5CRT?5exception?$AA@ 005ce460     LIBCMTD:hooks.obj
 0007:00006ea0       ??_C@_0L@KDOEJCKC@_nextafter?$AA@ 005ce4a0     LIBCMTD:fpexcept.obj
 0007:00006eb0       ??_C@_05JGDBENOH@_logb?$AA@ 005ce4b0     LIBCMTD:fpexcept.obj
 0007:00006eb8       ??_C@_03ONILCKOB@_yn?$AA@  005ce4b8     LIBCMTD:fpexcept.obj
 0007:00006ebc       ??_C@_03NAKIGLHK@_y1?$AA@  005ce4bc     LIBCMTD:fpexcept.obj
 0007:00006ec0       ??_C@_03MJLDFKDL@_y0?$AA@  005ce4c0     LIBCMTD:fpexcept.obj
 0007:00006ec4       ??_C@_05GKKHEGJL@frexp?$AA@ 005ce4c4     LIBCMTD:fpexcept.obj
 0007:00006ecc       ??_C@_04KEPJIHGP@fmod?$AA@ 005ce4cc     LIBCMTD:fpexcept.obj
 0007:00006ed4       ??_C@_06MEIMCGCF@_hypot?$AA@ 005ce4d4     LIBCMTD:fpexcept.obj
 0007:00006edc       ??_C@_05KBKMEMPO@_cabs?$AA@ 005ce4dc     LIBCMTD:fpexcept.obj
 0007:00006ee4       ??_C@_05CEJMAHNP@ldexp?$AA@ 005ce4e4     LIBCMTD:fpexcept.obj
 0007:00006eec       ??_C@_04EHEDPDJG@modf?$AA@ 005ce4ec     LIBCMTD:fpexcept.obj
 0007:00006ef4       ??_C@_04ODHECPBC@fabs?$AA@ 005ce4f4     LIBCMTD:fpexcept.obj
 0007:00006efc       ??_C@_05PBJFFIGL@floor?$AA@ 005ce4fc     LIBCMTD:fpexcept.obj
 0007:00006f04       ??_C@_04GFPJNGEK@ceil?$AA@ 005ce504     LIBCMTD:fpexcept.obj
 0007:00006f0c       ??_C@_03IIINPABG@tan?$AA@  005ce50c     LIBCMTD:fpexcept.obj
 0007:00006f10       ??_C@_03LALBNOCG@cos?$AA@  005ce510     LIBCMTD:fpexcept.obj
 0007:00006f14       ??_C@_03BLEJJJBH@sin?$AA@  005ce514     LIBCMTD:fpexcept.obj
 0007:00006f18       ??_C@_04EIAKFFMI@sqrt?$AA@ 005ce518     LIBCMTD:fpexcept.obj
 0007:00006f20       ??_C@_05KNGEOGJB@atan2?$AA@ 005ce520     LIBCMTD:fpexcept.obj
 0007:00006f28       ??_C@_04MLLJIGOK@atan?$AA@ 005ce528     LIBCMTD:fpexcept.obj
 0007:00006f30       ??_C@_04PDIFKINK@acos?$AA@ 005ce530     LIBCMTD:fpexcept.obj
 0007:00006f38       ??_C@_04FIHNOPOL@asin?$AA@ 005ce538     LIBCMTD:fpexcept.obj
 0007:00006f40       ??_C@_04FJHINJAO@tanh?$AA@ 005ce540     LIBCMTD:fpexcept.obj
 0007:00006f48       ??_C@_04HPJJNFIM@cosh?$AA@ 005ce548     LIBCMTD:fpexcept.obj
 0007:00006f50       ??_C@_04COOMCNPB@sinh?$AA@ 005ce550     LIBCMTD:fpexcept.obj
 0007:00006f58       ??_C@_05HGHHAHAP@log10?$AA@ 005ce558     LIBCMTD:fpexcept.obj
 0007:00006f60       ??_C@_03JGHBODFD@pow?$AA@  005ce560     LIBCMTD:fpexcept.obj
 0007:00006f68       ___lookuptable             005ce568     LIBCMTD:output.obj
 0007:00006fd4       ___nullstring              005ce5d4     LIBCMTD:output.obj
 0007:00006fdc       ___wnullstring             005ce5dc     LIBCMTD:output.obj
 0007:00006ff0       ??_C@_0P@LGFCLPDP@ch?5?$CB?$DN?5_T?$CI?8?20?8?$CJ?$AA@ 005ce5f0     LIBCMTD:output.obj
 0007:00007004       ??_C@_0DI@ELFHCDGK@d?3?2xbox?9dec03?2private?2sdktools?2c@ 005ce604     LIBCMTD:_file.obj
 0007:00007058       ??_C@_0DL@MKEIGJGI@d?3?2xbox?9dec03?2private?2sdktools?2c@ 005ce658     LIBCMTD:_freebuf.obj
 0007:000070e0       ??_C@_0DI@CAAHNAJK@d?3?2xbox?9dec03?2private?2sdktools?2c@ 005ce6e0     LIBCMTD:_open.obj
 0007:00007124       ??_C@_0BB@KFELMOAG@filename?5?$CB?$DN?5NULL?$AA@ 005ce724     LIBCMTD:_open.obj
 0007:00007138       ??_C@_0DJ@PPBCHGJM@d?3?2xbox?9dec03?2private?2sdktools?2c@ 005ce738     LIBCMTD:stream.obj
 0007:00007190       ??_C@_0DI@LMPDIHAL@d?3?2xbox?9dec03?2private?2sdktools?2c@ 005ce790     LIBCMTD:winsig.obj
 0007:00007238       ??_C@_0DM@DDFLNNDH@d?3?2xbox?9dec03?2private?2sdktools?2c@ 005ce838     LIBCMTD:isctype.obj
 0007:00007280       ??_C@_0BJ@IAKBGELC@?$CIunsigned?$CJ?$CIc?5?$CL?51?$CJ?5?$DM?$DN?5256?$AA@ 005ce880     LIBCMTD:isctype.obj
 0007:000072b0       ??_C@_0DI@JKJGKBKN@d?3?2xbox?9dec03?2private?2sdktools?2c@ 005ce8b0     LIBCMTD:input.obj
 0007:00007318       ??_C@_0DL@EKMEGPI@d?3?2xbox?9dec03?2private?2sdktools?2c@ 005ce918     LIBCMTD:thread.obj
 0007:00007380       ??_C@_0DN@NFBNFGME@d?3?2xbox?9dec03?2private?2sdktools?2c@ 005ce980     LIBCMTD:mbctype.obj
 0007:000073f0       ??_C@_0DJ@MFPPGJGK@d?3?2xbox?9dec03?2private?2sdktools?2c@ 005ce9f0     LIBCMTD:ioinit.obj
 0007:00007434       ??_C@_0DK@DAILAHHD@d?3?2xbox?9dec03?2private?2sdktools?2c@ 005cea34     LIBCMTD:_getbuf.obj
 0007:00007480       ___newctype                005cea80     LIBCMTD:ctype.obj
 0007:00007780       __wctype                   005ced80     LIBCMTD:ctype.obj
 0007:00007a84       ??_C@_0DL@GOGKMHFH@d?3?2xbox?9dec03?2private?2sdktools?2c@ 005cf084     LIBCMTD:mbtowc.obj
 0007:00007acc       ??_C@_0CD@GKGBOFGL@MB_CUR_MAX?5?$DN?$DN?51?5?$HM?$HM?5MB_CUR_MAX?5?$DN?$DN@ 005cf0cc     LIBCMTD:mbtowc.obj
 0007:00007af8       ??_C@_0DJ@JPFNIFPJ@d?3?2xbox?9dec03?2private?2sdktools?2c@ 005cf0f8     LIBCMTD:fputwc.obj
 0007:00007b60       ??_C@_0DK@OENAHHNK@d?3?2xbox?9dec03?2private?2sdktools?2c@ 005cf160     LIBCMTD:osfinfo.obj
 0007:00007c28       ??_C@_0P@GGKDKEEG@runtime?5error?5?$AA@ 005cf228     LIBCMTD:crt0msg.obj
 0007:00007c3c       ??_C@_0N@HLECBOKK@TLOSS?5error?6?$AA@ 005cf23c     LIBCMTD:crt0msg.obj
 0007:00007c4c       ??_C@_0M@HDJFGCEL@SING?5error?6?$AA@ 005cf24c     LIBCMTD:crt0msg.obj
 0007:00007c5c       ??_C@_0O@KIGJDBC@DOMAIN?5error?6?$AA@ 005cf25c     LIBCMTD:crt0msg.obj
 0007:00007c70       ??_C@_0KA@LCBCGMCJ@R6029?6?9?5This?5application?5cannot?5@ 005cf270     LIBCMTD:crt0msg.obj
 0007:00007d30       ??_C@_0CD@CBIHNGLM@R6028?6?9?5unable?5to?5initialize?5hea@ 005cf330     LIBCMTD:crt0msg.obj
 0007:00007d5c       ??_C@_0DD@ELMNFFL@R6027?6?9?5not?5enough?5space?5for?5low@ 005cf35c     LIBCMTD:crt0msg.obj
 0007:00007d9c       ??_C@_0DD@ECMPPDKJ@R6026?6?9?5not?5enough?5space?5for?5std@ 005cf39c     LIBCMTD:crt0msg.obj
 0007:00007ddc       ??_C@_0CE@BNOBCALH@R6025?6?9?5pure?5virtual?5function?5ca@ 005cf3dc     LIBCMTD:crt0msg.obj
 0007:00007e08       ??_C@_0DD@KDOBPJEN@R6024?6?9?5not?5enough?5space?5for?5_on@ 005cf408     LIBCMTD:crt0msg.obj
 0007:00007e48       ??_C@_0CH@IJNGNKLN@R6019?6?9?5unable?5to?5open?5console?5d@ 005cf448     LIBCMTD:crt0msg.obj
 0007:00007e78       ??_C@_0BP@BHAKIOHE@R6018?6?9?5unexpected?5heap?5error?6?$AA@ 005cf478     LIBCMTD:crt0msg.obj
 0007:00007ea0       ??_C@_0CL@LODECPDF@R6017?6?9?5unexpected?5multithread?5l@ 005cf4a0     LIBCMTD:crt0msg.obj
 0007:00007ed4       ??_C@_0CK@NONBIDPM@R6016?6?9?5not?5enough?5space?5for?5thr@ 005cf4d4     LIBCMTD:crt0msg.obj
 0007:00007f08       ??_C@_0JE@GCAJEKJH@?6This?5application?5has?5requested?5@ 005cf508     LIBCMTD:crt0msg.obj
 0007:00007fbc       ??_C@_0CK@DGPNILPC@R6009?6?9?5not?5enough?5space?5for?5env@ 005cf5bc     LIBCMTD:crt0msg.obj
 0007:00007ff0       ??_C@_0CI@MOMFHLKF@R6008?6?9?5not?5enough?5space?5for?5arg@ 005cf5f0     LIBCMTD:crt0msg.obj
 0007:00008020       ??_C@_0CD@IEKHEPMF@R6002?6?9?5floating?5point?5not?5loade@ 005cf620     LIBCMTD:crt0msg.obj
 0007:0000804c       ??_C@_0DK@CEGONENG@d?3?2xbox?9dec03?2private?2sdktools?2c@ 005cf64c     LIBCMTD:_filbuf.obj
 0007:00008094       ??_C@_0DJ@BMEKPOFN@d?3?2xbox?9dec03?2private?2sdktools?2c@ 005cf694     LIBCMTD:ungetc.obj
 0007:000080e8       ??_C@_06IMKFLFPG@1?$CDQNAN?$AA@ 005cf6e8     LIBCMTD:x10fout.obj
 0007:000080f0       ??_C@_05DNEBIAHO@1?$CDINF?$AA@ 005cf6f0     LIBCMTD:x10fout.obj
 0007:000080f8       ??_C@_05PHHOCPM@1?$CDIND?$AA@ 005cf6f8     LIBCMTD:x10fout.obj
 0007:00008100       ??_C@_06PGGFOGJG@1?$CDSNAN?$AA@ 005cf700     LIBCMTD:x10fout.obj
 0007:00008118       ??_C@_0DJ@ELFKMEHN@d?3?2xbox?9dec03?2private?2sdktools?2c@ 005cf718     LIBCMTD:chsize.obj
 0007:0000815c       ??_C@_09OJCCCDEJ@size?5?$DO?$DN?50?$AA@ 005cf75c     LIBCMTD:chsize.obj
 0007:00008188       _IID_IClassFactory         005cf788     xapilibd:unknwn.obj
 0007:0000819c       _IID_AsyncIUnknown         005cf79c     xapilibd:unknwn.obj
 0007:000081b0       _IID_IUnknown              005cf7b0     xapilibd:unknwn.obj
 0007:00008208       ??_C@_0O@DMOADBJC@TlsGetValue?$CI?$CJ?$AA@ 005cf808     xapilibd:tls.obj
 0007:00008218       ??_C@_0CF@GBEOLLOI@?$CIdwTlsIndex?5?$DM?5TLS_MINIMUM_AVAILA@ 005cf818     xapilibd:tls.obj
 0007:00008244       ??_C@_0O@CCMPIGNL@TlsSetValue?$CI?$CJ?$AA@ 005cf844     xapilibd:tls.obj
 0007:00008254       ??_C@_09HKABMOEO@TlsFree?$CI?$CJ?$AA@ 005cf854     xapilibd:tls.obj
 0007:00008260       ??_C@_0DL@KNEMIDJC@d?3?2xbox?9dec03?2private?2sdktools?2c@ 005cf860     LIBCMTD:vswprint.obj
 0007:000087dc       ___rtc_iaa                 005cfddc     LIBCMTD:initsect.obj
 0007:000089fc       ___rtc_izz                 005cfffc     LIBCMTD:initsect.obj
 0007:00008b00       ___rtc_taa                 005d0100     LIBCMTD:initsect.obj
 0007:00008d20       ___rtc_tzz                 005d0320     LIBCMTD:initsect.obj
 0007:00008f4c       __CT??_R0D@81              005d054c     xgraphicsd:instructiongraph.obj
 0007:00008f6c       __CTA1D                    005d056c     xgraphicsd:instructiongraph.obj
 0007:00008f74       __TI1D                     005d0574     xgraphicsd:instructiongraph.obj
 0008:00000000       ___xri_a                   005d19c0     xapilibd:xapi0dat.obj
 0008:00000104       ___pmtinit                 005d1ac4     LIBCMTD:tidtable.obj
 0008:00000208       ___rtc_init                005d1bc8     xapilibd:xapi0dat.obj
 0008:00000410       ___xri_z                   005d1dd0     xapilibd:xapi0dat.obj
 0008:00000514       ___xc_a                    005d1ed4     xapilibd:xapi0dat.obj
 0008:00000734       ___xc_z                    005d20f4     xapilibd:xapi0dat.obj
 0008:00000838       ___xi_a                    005d21f8     xapilibd:xapi0dat.obj
 0008:00000b50       ___xi_z                    005d2510     xapilibd:xapi0dat.obj
 0008:00000c54       ___xp_a                    005d2614     LIBCMTD:crt0init.obj
 0008:00000e5c       ___xp_z                    005d281c     LIBCMTD:crt0init.obj
 0008:00000f60       ___xt_a                    005d2920     LIBCMTD:crt0init.obj
 0008:00001168       ___xt_z                    005d2b28     LIBCMTD:crt0init.obj
 0008:00001480       ?TrainerTitleColor@@3KA    005d2e40     Main.obj
 0008:00001484       ?TrainerDataSize@@3HA      005d2e44     Main.obj
 0008:00001488       ?fill_01@@3PAEA            005d2e48     Main.obj
 0008:00001510       ?TrainerTitle@@3PADA       005d2ed0     Main.obj
 0008:00001560       ?fill_02@@3PAEA            005d2f20     Main.obj
 0008:000015e8       ?Options@@3PADA            005d2fa8     Main.obj
 0008:000019f0       ?fill_03@@3PAEA            005d33b0     Main.obj
 0008:00001a78       ?scrolltext@@3PADA         005d3438     Main.obj
 0008:00001b70       ?fill_05@@3PAEA            005d3530     Main.obj
 0008:00001bf8       ?font@@3PAEA               005d35b8     Main.obj
 0008:00002228       ?tfont@@3PAEA              005d3be8     Main.obj
 0008:00002940       ?bob@@3PAEA                005d4300     Main.obj
 0008:00005088       ?resI@@3PAUresInfo@@A      005d6a48     Main.obj
 0008:000050c0       ?OptionCursor@@3HA         005d6a80     Main.obj
 0008:000050c4       ?MasterAlpha@@3HA          005d6a84     Main.obj
 0008:000050c8       ?stats@@3PAUlstat@@A       005d6a88     Main.obj
 0008:00005e1c       ?g_PollingParameters@@3U_XINPUT_POLLING_PARAMETERS@@A 005d77dc     xbinput.obj
 0008:00005e20       ?g_strMediaPath@@3PADA     005d77e0     xbutil.obj
 0008:00006088       ?__LINE__Var@?1??XBUtil_GetWide@@YAXPBDPAGK@Z@4JA 005d7a48     xbutil.obj
 0008:0000608c       ?__LINE__Var@?1??XBUtil_LoadFile@@YAJPBDPAPAXPAK@Z@4JA 005d7a4c     xbutil.obj
 0008:00006090       _XDebugOutLevel            005d7a50     xapilibd:outputdebugstringa.obj
 0008:00006094       _XDebugBrkLevel            005d7a54     xapilibd:outputdebugstringa.obj
 0008:00006098       _XDebugLevels              005d7a58     xapilibd:outputdebugstringa.obj
 0008:000060b8       _offsetsFromUTF8           005d7a78     xapilibd:widechar.obj
 0008:000060d0       _bytesFromUTF8             005d7a90     xapilibd:widechar.obj
 0008:000061d0       _kReplacementCharacter     005d7b90     xapilibd:widechar.obj
 0008:000061d4       _kMaximumSimpleUniChar     005d7b94     xapilibd:widechar.obj
 0008:000061d8       _kMaximumUniChar           005d7b98     xapilibd:widechar.obj
 0008:000061dc       _halfShift                 005d7b9c     xapilibd:widechar.obj
 0008:000061e0       _halfBase                  005d7ba0     xapilibd:widechar.obj
 0008:000061e4       _halfMask                  005d7ba4     xapilibd:widechar.obj
 0008:000061e8       _kSurrogateHighStart       005d7ba8     xapilibd:widechar.obj
 0008:000061ec       _kSurrogateLowStart        005d7bac     xapilibd:widechar.obj
 0008:00006230       _DashPartition             005d7bf0     xapilibd:bootutil.obj
 0008:00006250       _TitleRebootPath           005d7c10     xapilibd:bootutil.obj
 0008:00006280       _YDrive                    005d7c40     xapilibd:bootutil.obj
 0008:0000629c       _DDrive                    005d7c5c     xapilibd:xapiinit.obj
 0008:000062a4       _CdDevice                  005d7c64     xapilibd:xapiinit.obj
 0008:000062ac       _MainVol                   005d7c6c     xapilibd:xapiinit.obj
 0008:000062b4       _TDrive                    005d7c74     xapilibd:xapiinit.obj
 0008:000062bc       _TitleData                 005d7c7c     xapilibd:xapiinit.obj
 0008:000062c4       _UDrive                    005d7c84     xapilibd:xapiinit.obj
 0008:000062cc       _UserData                  005d7c8c     xapilibd:xapiinit.obj
 0008:000062e0       _XapiProcessLock           005d7ca0     xapilibd:thread.obj
 0008:000062fc       _XapiThreadNotifyRoutineList 005d7cbc     xapilibd:thread.obj
 0008:00006318       _g_rgdwLoc                 005d7cd8     xapilibd:compstra.obj
 0008:00006830       _g_iZDriveDBIndex          005d81f0     xapilibd:pathmisc.obj
 0008:00006834       _g_iNDriveDBIndex          005d81f4     xapilibd:pathmisc.obj
 0008:0000683c       _MmHeapSegmentReserve      005d81fc     xapilibd:heap.obj
 0008:00006840       _MmHeapSegmentCommit       005d8200     xapilibd:heap.obj
 0008:00006844       _MmHeapDeCommitTotalFreeThreshold 005d8204     xapilibd:heap.obj
 0008:00006848       _MmHeapDeCommitFreeBlockThreshold 005d8208     xapilibd:heap.obj
 0008:0000684c       _CheckHeapFillPattern      005d820c     xapilibd:heap.obj
 0008:00006864       _XapiShutdownRegistration  005d8224     xapilibd:xapiterm.obj
 0008:00006874       _XapiShutdownIrpCompleteEvent 005d8234     xapilibd:xapiterm.obj
 0008:000068dc       ?g_SlotMapping@D3D@@3PAEA  005d829c     d3d8d:state.obj
 0008:00006904       _D3D__DeadlockTimeOutVal   005d82c4     d3d8d:globals.obj
 0008:00006908       ?g_DeviceCaps@D3D@@3U_D3DCAPS8@@B 005d82c8     d3d8d:d3dbase.obj
 0008:00006a08       ?ostMovieBuffer@D3D@@3PADA 005d83c8     d3d8d:shadersnapshot.obj
 0008:00006a38       ?ostMovie@D3D@@3U_STRING@@A 005d83f8     d3d8d:shadersnapshot.obj
 0008:00006b04       ?g_StructureName@D3D@@3PAPBDA 005d84c4     d3d8d:resource.obj
 0008:00006b28       ?g_PerfCounters@D3D@@3U_D3DPERF@1@A 005d84e8     d3d8d:stats.obj
 0008:0003ae70       ?g_CpuCyclesPerMsec@D3D@@3KA 0060c830     d3d8d:stats.obj
 0008:00045624       ?g_InitialStackTrace0@D3D@@3P6IXPAXKPAK@ZA 00616fe4     d3d8d:timing.obj
 0008:00045628       ?g_InitialStackTrace1@D3D@@3P6IKPAXK@ZA 00616fe8     d3d8d:timing.obj
 0008:00045778       ?g_FixedFunctionConstantsMapping@D3D@@3PAUFixedFunctionConstantMapping@1@A 00617138     d3d8d:recorder.obj
 0008:000459d4       ?D3DX__Premult@@3HA        00617394     d3dx8d:d3dx8tex.obj
 0008:00045b68       ?vfMMXMachine@D3DX@@3EA    00617528     d3dx8d:jutils.obj
 0008:00045b70       _D3DRM_XTEMPLATES          00617530     d3dx8d:init.obj
 0008:00046b0c       ?z_errmsg@D3DX@@3PAPBDA    006184cc     d3dx8d:zutil.obj
 0008:00047fb0       ?inflate_mask@D3DX@@3PAIA  00619970     d3dx8d:infutil.obj
 0008:0004803c       ?StallDescription@XGRAPHICS@@3PAPBDA 006199fc     xgraphicsd:api.obj
 0008:00048080       ?macOps@?4??Disassemble@InstructionDisassembler@XGRAPHICS@@AAEJPBU_D3DVsInstruction@@_N1@Z@4PAPBDA 00619a40     xgraphicsd:api.obj
 0008:000480cc       ?iluOps@?4??Disassemble@InstructionDisassembler@XGRAPHICS@@AAEJPBU_D3DVsInstruction@@_N1@Z@4PAPBDA 00619a8c     xgraphicsd:api.obj
 0008:000480f4       ?kIndent@?1??Disassemble@InstructionDisassembler@XGRAPHICS@@QAEJPBU_D3DVsInstruction@@AAVBuffer@3@@Z@4PBDB 00619ab4     xgraphicsd:api.obj
 0008:000480f8       ?kDefaultSourceFileName@?1??XGAssembleShader@Assembler@XGRAPHICS@@QAGJPBDPBXIKPAPAUXGBuffer@@222P6GJPAXH00PADK2@Z3PAK@Z@4PBDB 00619ab8     xgraphicsd:api.obj
 0008:000480fc       ??_R0D@8                   00619abc     xgraphicsd:instructiongraph.obj
 0008:00048110       ?NumSrcRegs@XGRAPHICS@@3PAHA 00619ad0     xgraphicsd:pixelshader.obj
 0008:00048178       ?NumDstRegs@XGRAPHICS@@3PAHA 00619b38     xgraphicsd:pixelshader.obj
 0008:000481e0       ?D3DModToNVMod@XGRAPHICS@@3PAKA 00619ba0     xgraphicsd:pixelshader.obj
 0008:00048220       ?NVModToNVModInvert@XGRAPHICS@@3PAKA 00619be0     xgraphicsd:pixelshader.obj
 0008:00048240       ?TypeOffsetToCombinerReg@XGRAPHICS@@3PAY03KA 00619c00     xgraphicsd:pixelshader.obj
 0008:000482a0       ?D3DOpToTexMode@XGRAPHICS@@3PAKA 00619c60     xgraphicsd:pixelshader.obj
 0008:000482d8       ?NumTexArgs@XGRAPHICS@@3PAHA 00619c98     xgraphicsd:pixelshader.obj
 0008:00048310       ?PSInstructionLUT@XGRAPHICS@@3PAP6GXKKPAK00000@ZA 00619cd0     xgraphicsd:pixelshader.obj
 0008:00048374       ?ccf0@XGRAPHICS@@3PAPADA   00619d34     xgraphicsd:pixelshader.obj
 0008:0004837c       ?ccf1@XGRAPHICS@@3PAPADA   00619d3c     xgraphicsd:pixelshader.obj
 0008:00048384       ?ccf2@XGRAPHICS@@3PAPADA   00619d44     xgraphicsd:pixelshader.obj
 0008:00048390       ?tm@XGRAPHICS@@3PAPADA     00619d50     xgraphicsd:pixelshader.obj
 0008:00048410       ?dm@XGRAPHICS@@3PAPADA     00619dd0     xgraphicsd:pixelshader.obj
 0008:00048430       ?cms@XGRAPHICS@@3PAPADA    00619df0     xgraphicsd:pixelshader.obj
 0008:00048438       ?cmt@XGRAPHICS@@3PAPADA    00619df8     xgraphicsd:pixelshader.obj
 0008:00048440       ?cmr@XGRAPHICS@@3PAPADA    00619e00     xgraphicsd:pixelshader.obj
 0008:00048448       ?cmq@XGRAPHICS@@3PAPADA    00619e08     xgraphicsd:pixelshader.obj
 0008:00048450       ?inmap@XGRAPHICS@@3PAPADA  00619e10     xgraphicsd:pixelshader.obj
 0008:00048470       ?inreg@XGRAPHICS@@3PAPADA  00619e30     xgraphicsd:pixelshader.obj
 0008:000484b0       ?outreg@XGRAPHICS@@3PAPADA 00619e70     xgraphicsd:pixelshader.obj
 0008:000484f0       ?chanrgb@XGRAPHICS@@3PAPADA 00619eb0     xgraphicsd:pixelshader.obj
 0008:000484f8       ?chanalpha@XGRAPHICS@@3PAPADA 00619eb8     xgraphicsd:pixelshader.obj
 0008:00048500       ?outmap@XGRAPHICS@@3PAPADA 00619ec0     xgraphicsd:pixelshader.obj
 0008:00048520       ?abmult@XGRAPHICS@@3PAPADA 00619ee0     xgraphicsd:pixelshader.obj
 0008:00048528       ?cdmult@XGRAPHICS@@3PAPADA 00619ee8     xgraphicsd:pixelshader.obj
 0008:00048530       ?muxsum@XGRAPHICS@@3PAPADA 00619ef0     xgraphicsd:pixelshader.obj
 0008:00048610       ?PSInstructionLUT@PixelShaderAssembler@XGRAPHICS@@0PAP812@AEXKKPAK00000@ZA 00619fd0     xgraphicsd:pixelshaderopt.obj
 0008:000488a8       ?d3dxasm_lhs@XGRAPHICS@@3PAFA 0061a268     xgraphicsd:cd3dxassembler.obj
 0008:00048938       ?d3dxasm_len@XGRAPHICS@@3PAFA 0061a2f8     xgraphicsd:cd3dxassembler.obj
 0008:000489c8       ?d3dxasm_defred@XGRAPHICS@@3PAFA 0061a388     xgraphicsd:cd3dxassembler.obj
 0008:00048b38       ?d3dxasm_dgoto@XGRAPHICS@@3PAFA 0061a4f8     xgraphicsd:cd3dxassembler.obj
 0008:00048b68       ?d3dxasm_sindex@XGRAPHICS@@3PAFA 0061a528     xgraphicsd:cd3dxassembler.obj
 0008:00048cd8       ?d3dxasm_rindex@XGRAPHICS@@3PAFA 0061a698     xgraphicsd:cd3dxassembler.obj
 0008:00048e48       ?d3dxasm_gindex@XGRAPHICS@@3PAFA 0061a808     xgraphicsd:cd3dxassembler.obj
 0008:00048e78       ?d3dxasm_table@XGRAPHICS@@3PAFA 0061a838     xgraphicsd:cd3dxassembler.obj
 0008:00049190       ?d3dxasm_check@XGRAPHICS@@3PAFA 0061ab50     xgraphicsd:cd3dxassembler.obj
 0008:0004970c       __fltused                  0061b0cc     LIBCMTD:fpinit.obj
 0008:00049710       __ldused                   0061b0d0     LIBCMTD:fpinit.obj
 0008:00049714       __FPinit                   0061b0d4     LIBCMTD:fpinit.obj
 0008:00049718       __FPmtinit                 0061b0d8     LIBCMTD:fpinit.obj
 0008:0004971c       __FPmtterm                 0061b0dc     LIBCMTD:fpinit.obj
 0008:00049740       __NLG_Destination          0061b100     LIBCMTD:exsup.obj
 0008:000497a4       __crtDbgFlag               0061b164     LIBCMTD:dbgheap.obj
 0008:000497ac       __crtBreakAlloc            0061b16c     LIBCMTD:dbgheap.obj
 0008:000497dc       __half                     0061b19c     LIBCMTD:pow.obj
 0008:000497ec       ?__pMyUnhandledExceptionFilter@@3PAXA 0061b1ac     LIBCMTD:throw.obj
 0008:000497f0       ?_RTC_ErrorLevels@@3PAHA   0061b1b0     LIBCMTD:error.obj
 0008:00049814       ?g_szTempModName@@3PADA    0061b1d4     LIBCMTD:error.obj
 0008:0004999c       __crtAssertBusy            0061b35c     LIBCMTD:dbgrpt.obj
 0008:000499a0       __CrtDbgMode               0061b360     LIBCMTD:dbgrpt.obj
 0008:000499ac       __CrtDbgFile               0061b36c     LIBCMTD:dbgrpt.obj
 0008:000499cc       __cfltcvt_tab              0061b38c     LIBCMTD:cmiscdat.obj
 0008:000499e8       __indefinite               0061b3a8     LIBCMTD:87disp.obj
 0008:000499f2       __piby2                    0061b3b2     LIBCMTD:87disp.obj
 0008:00049a20       ___security_cookie         0061b3e0     LIBCMTD:seccook.obj
 0008:00049a24       ?__pInconsistency@@3P6AXXZA 0061b3e4     LIBCMTD:hooks.obj
 0008:00049b40       __d_inf                    0061b500     LIBCMTD:util.obj
 0008:00049b48       __d_ind                    0061b508     LIBCMTD:util.obj
 0008:00049b50       __d_max                    0061b510     LIBCMTD:util.obj
 0008:00049b58       __d_min                    0061b518     LIBCMTD:util.obj
 0008:00049b60       __d_mzero                  0061b520     LIBCMTD:util.obj
 0008:00049b90       __iob                      0061b550     LIBCMTD:_file.obj
 0008:0004a040       __pfnAllocHook             0061ba00     LIBCMTD:dbghook.obj
 0008:0004a044       __amblksiz                 0061ba04     LIBCMTD:heapinit.obj
 0008:0004a048       ___mb_cur_max              0061ba08     LIBCMTD:nlsdata1.obj
 0008:0004a04c       ___decimal_point           0061ba0c     LIBCMTD:nlsdata1.obj
 0008:0004a050       ___decimal_point_length    0061ba10     LIBCMTD:nlsdata1.obj
 0008:0004a060       ___lc_clike                0061ba20     LIBCMTD:nlsdata2.obj
 0008:0004a070       __infinity                 0061ba30     LIBCMTD:87tran.obj
 0008:0004a07a       __minfinity                0061ba3a     LIBCMTD:87tran.obj
 0008:0004a084       __logemax                  0061ba44     LIBCMTD:87tran.obj
 0008:0004a0aa       __OP_EXPjmptab             0061ba6a     LIBCMTD:87tran.obj
 0008:0004a0dc       __aexit_rtn                0061ba9c     LIBCMTD:crt0.obj
 0008:0004a0e0       __XcptActTab               0061baa0     LIBCMTD:winxfltr.obj
 0008:0004a158       __First_FPE_Indx           0061bb18     LIBCMTD:winxfltr.obj
 0008:0004a15c       __Num_FPE                  0061bb1c     LIBCMTD:winxfltr.obj
 0008:0004a160       __XcptActTabSize           0061bb20     LIBCMTD:winxfltr.obj
 0008:0004a164       __XcptActTabCount          0061bb24     LIBCMTD:winxfltr.obj
 0008:0004a338       ___badioinfo               0061bcf8     LIBCMTD:ioinit.obj
 0008:0004a368       __pctype                   0061bd28     LIBCMTD:ctype.obj
 0008:0004a36c       __pwctype                  0061bd2c     LIBCMTD:ctype.obj
 0008:0004a374       __matherr_flag             0061bd34     LIBCMTD:matherr.obj
 0008:0004a430       __pow10pos                 0061bdf0     LIBCMTD:constpow.obj
 0008:0004a590       __pow10neg                 0061bf50     LIBCMTD:constpow.obj
 0008:0004a778       _XapiTlsAllocBitmap        0061c138     xapilibd:tls.obj
 0008:0004a8e8       ?TrainerData@@3PAEA        0061c2a8     Main.obj
 0008:0004a908       ?resX@@3HA                 0061c2c8     Main.obj
 0008:0004a90c       ?OptionMaxChar@@3HA        0061c2cc     Main.obj
 0008:0004a910       ?resY@@3HA                 0061c2d0     Main.obj
 0008:0004a914       ?OptionPageCursor@@3HA     0061c2d4     Main.obj
 0008:0004a918       ?OptionSineCursor@@3HA     0061c2d8     Main.obj
 0008:0004a91c       ?OptionCursorMoveWait@@3HA 0061c2dc     Main.obj
 0008:0004a920       ?OptionCursorMoveMax@@3HA  0061c2e0     Main.obj
 0008:0004a924       ?TrainerGo@@3HA            0061c2e4     Main.obj
 0008:0004a928       ?TrainerFade@@3HA          0061c2e8     Main.obj
 0008:0004a92c       ?startPressed@@3HA         0061c2ec     Main.obj
 0008:0004a930       ?MasterSwitch@@3HA         0061c2f0     Main.obj
 0008:0004a934       ?statP@@3HA                0061c2f4     Main.obj
 0008:0004a958       ?gImage@@3VcGifImage@@A    0061c318     Main.obj
 0008:0004add0       ?xbApp@@3VCXBoxSample@@A   0061c790     Main.obj
 0008:00065c58       ?g_pXBApp@@3PAVCXBApplication@@A 00637618     xbapp.obj
 0008:00065c5c       ?g_pd3dDevice@@3PAUD3DDevice@@A 0063761c     xbapp.obj
 0008:00065c70       ?g_InputStates@@3PAU_XINPUT_STATE@@A 00637630     xbinput.obj
 0008:00065cc8       ?g_Gamepads@@3PAUXBGAMEPAD@@A 00637688     xbinput.obj
 0008:0006611f       ?GLOBAL_HostControllerCount@@3EA 00637adf     xapilibd:usbd.obj
 0008:00066120       ?XID_Globals@@3U_XID_GLOBALS@@A 00637ae0     xapilibd:xid.obj
 0008:000661e0       __tls_index                00637ba0     xapilibd:xapitls.obj
 0008:000661e8       ?g_DeviceTree@@3VCDeviceTree@@A 00637ba8     xapilibd:tree.obj
 0008:00066300       _XapiMuInfo                00637cc0     xapilibd:pathmisc.obj
 0008:00066308       _g_fMountedUtilityDrive    00637cc8     xapilibd:pathmisc.obj
 0008:0006630e       _RtlpValidateHeapHdrsEnable 00637cce     xapilibd:heap.obj
 0008:00066310       _g_pfnxcsbOnline           00637cd0     xapilibd:xcalcsig.obj
 0008:00066314       _g_pfnxcsuOnline           00637cd4     xapilibd:xcalcsig.obj
 0008:00066318       _g_pfnxcseOnline           00637cd8     xapilibd:xcalcsig.obj
 0008:00066320       _IsrEntryCount             00637ce0     xapilibd:isr.obj
 0008:00066328       ?GLOBAL_HubEnum@@3U_USBHUB_ENUM_BLOCK@@A 00637ce8     xapilibd:hub.obj
 0008:000663e0       ?GLOBAL_HubInfo@@3U_USBHUB_INFO@@A 00637da0     xapilibd:hub.obj
 0008:00066418       ?g_pD3DPerfEventBeginEnd@D3D@@3PAU_D3DPERFEvent@1@A 00637dd8     d3d8d:drawprim.obj
 0008:00066444       ___@@_PchSym_@00@UcylcRwvxADUkirezgvUdrmwldhUwrivxgcUwctUwDwIUhvUfhviUlyqUrDIGUkivxlnkOlyq@d3d8d 00637e04     d3d8d:precomp.obj
 0008:0006644c       _g_ToggleVTXStatesOnReset  00637e0c     d3d8d:stats.obj
 0008:00066460       ___@@_PchSym_@00@UcylcRwvxADUkirezgvUdrmwldhUwrivxgcUwctUwDwcIUxlivUlyqUrDIGUkxsxlivOlyq@d3dxcore 00637e20     d3dx8d:pchcore.obj
 0008:00066464       ___@@_PchSym_@00@UcylcRwvxADUkirezgvUdrmwldhUwrivxgcUwctUwDwcIUgvcUlyqUrDIGUkxsgvcOlyq@d3dxtex 00637e24     d3dx8d:pchtex.obj
 0008:00066474       ___@@_PchSym_@00@UcylcRwvxADUkirezgvUdrmwldhUwrivxgcUwctUwDwcIUnzgsUlyqUrDIGUkxsnzgsOlyq@d3dxmath 00637e34     d3dx8d:pchmath.obj
 0008:0006648c       ___@@_PchSym_@00@UcylcRwvxADUkirezgvUdrmwldhUwrivxgcUwctUctizksrxhUhszwvzhnUcylcUlyqUrDIGUkxshszwvzhnOlyq@shadeasmd 00637e4c     xgraphicsd:pchshadeasm.obj
 0008:00066490       ?s_pAsm@CD3DXAssembler@XGRAPHICS@@2PAV12@A 00637e50     xgraphicsd:cd3dxassembler.obj
 0008:00066498       ___fastflag                00637e58     LIBCMTD:fpinit.obj
 0008:0006649c       __adjust_fdiv              00637e5c     LIBCMTD:fpinit.obj
 0008:000664c8       __umaskval                 00637e88     LIBCMTD:crt0dat.obj
 0008:000664cc       __exitflag                 00637e8c     LIBCMTD:crt0dat.obj
 0008:000664d0       __C_Termination_Done       00637e90     LIBCMTD:crt0dat.obj
 0008:000664d4       __C_Exit_Done              00637e94     LIBCMTD:crt0dat.obj
 0008:000664e0       ___pPurecall               00637ea0     LIBCMTD:purevirt.obj
 0008:000666e4       _gpFlsAlloc                006380a4     LIBCMTD:tidtable.obj
 0008:000666e8       _gpFlsGetValue             006380a8     LIBCMTD:tidtable.obj
 0008:000666ec       _gpFlsSetValue             006380ac     LIBCMTD:tidtable.obj
 0008:000666f0       _gpFlsFree                 006380b0     LIBCMTD:tidtable.obj
 0008:000666fc       __cflush                   006380bc     LIBCMTD:_file.obj
 0008:00066714       __newmode                  006380d4     LIBCMTD:_newmode.obj
 0008:00066718       ?_pnhHeap@@3P6AHI@ZA       006380d8     LIBCMTD:handler.obj
 0008:0006671c       ___lc_handle               006380dc     LIBCMTD:nlsdata2.obj
 0008:00066734       ___lc_codepage             006380f4     LIBCMTD:nlsdata2.obj
 0008:00066738       ___lc_collate_cp           006380f8     LIBCMTD:nlsdata2.obj
 0008:00066750       __commode                  00638110     LIBCMTD:ncommode.obj
 0008:00066754       __adbgmsg                  00638114     LIBCMTD:crt0msg.obj
 0008:00066758       __fmode                    00638118     LIBCMTD:txtmode.obj
 0008:00066760       _OHCD_GlobalPool           00638120     <common>
 0008:000667a1       _RtlpValidateHeapTagsEnable 00638161     <common>
 0008:000667b0       _NtGlobalFlag              00638170     <common>
 0008:000667c0       _RtlpHeapStopOn            00638180     <common>
 0008:000667d8       _XapiProcessHeap           00638198     <common>
 0008:00066800       _XapiAutoPowerDownGlobals  006381c0     <common>
 0008:00066880       _OHCD_InterruptObject      00638240     <common>
 0008:00066910       _XapiCurrentTopLevelFilter 006382d0     <common>
 0008:00066920       _XapiTlsSize               006382e0     <common>
 0008:00066928       _XapiOriginalCodeSelectorEntry 006382e8     <common>
 0008:0006693c       ___@@_PchSym_@00@UcylcRwvxADUkirezgvUmglhUczkrUpDCUoryUlyqUrDIGUyzhvwooOlyq@Xapi_k32 006382fc     <common>
 0008:00066948       __nhandle                  00638308     <common>
 0008:000669a0       ___pioinfo                 00638360     <common>
 0008:00066aa0       ___mblcid                  00638460     <common>
 0008:00066b1c       ___ptmbcinfo               006384dc     <common>
 0008:00066b20       ___ismbcodepage            006384e0     <common>
 0008:00066b40       __mbctype                  00638500     <common>
 0008:00066c44       ___mbcodepage              00638604     <common>
 0008:00066c60       ___mbulinfo                00638620     <common>
 0008:00066c80       __mbcasemap                00638640     <common>
 0008:00066d80       ___active_heap             00638740     <common>
 0008:00066d8c       ___piob                    0063874c     <common>
 0008:00066d9c       __nstream                  0063875c     <common>
 0008:00066da0       ___ptd_glob                00638760     <common>
 0008:00066dac       __pfnReportHook            0063876c     <common>
 0008:00066dbc       __pReportHookList          0063877c     <common>
 0008:00066dc0       ___env_initialized         00638780     <common>
 0008:00066dd0       ___onexitend               00638790     <common>
 0008:00066dd4       ___onexitbegin             00638794     <common>
 0008:00066dd8       ___mbctype_initialized     00638798     <common>
 0008:00066ddc       __setjmpexused             0063879c     <common>
 0008:00066de8       __pfnDumpClient            006387a8     <common>
 0009:00000000       __IMPORT_DESCRIPTOR_xboxkrnl 006387c0     xboxkrnl:xboxkrnl.exe
 0009:00000014       __NULL_IMPORT_DESCRIPTOR   006387d4     xboxkrnl:xboxkrnl.exe
 0009:00000310       __imp__MmPersistContiguousMemory@12 00638ad0     xboxkrnl:xboxkrnl.exe
 0009:00000314       __imp__MmAllocateContiguousMemory@4 00638ad4     xboxkrnl:xboxkrnl.exe
 0009:00000318       __imp__LaunchDataPage      00638ad8     xboxkrnl:xboxkrnl.exe
 0009:00000318       _LaunchDataPage            00638ad8     xboxkrnl:xboxkrnl.exe
 0009:0000031c       __imp__MmFreeContiguousMemory@4 00638adc     xboxkrnl:xboxkrnl.exe
 0009:00000320       __imp__RtlRip@12           00638ae0     xboxkrnl:xboxkrnl.exe
 0009:00000324       __imp__RtlNtStatusToDosError@4 00638ae4     xboxkrnl:xboxkrnl.exe
 0009:00000328       __imp__HalReturnToFirmware@4 00638ae8     xboxkrnl:xboxkrnl.exe
 0009:0000032c       _IdexChannelObject         00638aec     xboxkrnl:xboxkrnl.exe
 0009:0000032c       __imp__IdexChannelObject   00638aec     xboxkrnl:xboxkrnl.exe
 0009:00000330       __imp__ExQueryNonVolatileSetting@20 00638af0     xboxkrnl:xboxkrnl.exe
 0009:00000334       __imp_@KfLowerIrql@4       00638af4     xboxkrnl:xboxkrnl.exe
 0009:00000338       __imp__KeRaiseIrqlToDpcLevel@0 00638af8     xboxkrnl:xboxkrnl.exe
 0009:0000033c       __imp__DbgPrint            00638afc     xboxkrnl:xboxkrnl.exe
 0009:00000340       __imp_@KfRaiseIrql@4       00638b00     xboxkrnl:xboxkrnl.exe
 0009:00000344       __imp__DbgBreakPoint@0     00638b04     xboxkrnl:xboxkrnl.exe
 0009:00000348       __imp__NtClose@4           00638b08     xboxkrnl:xboxkrnl.exe
 0009:0000034c       __imp__NtDuplicateObject@12 00638b0c     xboxkrnl:xboxkrnl.exe
 0009:00000350       __imp__NtCreateFile@36     00638b10     xboxkrnl:xboxkrnl.exe
 0009:00000354       __imp__RtlInitAnsiString@8 00638b14     xboxkrnl:xboxkrnl.exe
 0009:00000358       __imp__NtWriteFile@32      00638b18     xboxkrnl:xboxkrnl.exe
 0009:0000035c       __imp__NtReadFile@32       00638b1c     xboxkrnl:xboxkrnl.exe
 0009:00000360       __imp__NtSetInformationFile@20 00638b20     xboxkrnl:xboxkrnl.exe
 0009:00000364       __imp__NtQueryInformationFile@20 00638b24     xboxkrnl:xboxkrnl.exe
 0009:00000368       __imp__MmFreeSystemMemory@8 00638b28     xboxkrnl:xboxkrnl.exe
 0009:0000036c       __imp__NtOpenFile@24       00638b2c     xboxkrnl:xboxkrnl.exe
 0009:00000370       __imp__MmAllocateSystemMemory@8 00638b30     xboxkrnl:xboxkrnl.exe
 0009:00000374       __imp__NtWaitForSingleObject@12 00638b34     xboxkrnl:xboxkrnl.exe
 0009:00000378       __imp__NtQueryVolumeInformationFile@20 00638b38     xboxkrnl:xboxkrnl.exe
 0009:0000037c       __imp__NtFlushBuffersFile@8 00638b3c     xboxkrnl:xboxkrnl.exe
 0009:00000380       __imp__NtUserIoApcDispatcher@12 00638b40     xboxkrnl:xboxkrnl.exe
 0009:00000384       __imp__NtFsControlFile@40  00638b44     xboxkrnl:xboxkrnl.exe
 0009:00000388       __imp__NtDeviceIoControlFile@40 00638b48     xboxkrnl:xboxkrnl.exe
 0009:0000038c       __imp__NtReadFileScatter@32 00638b4c     xboxkrnl:xboxkrnl.exe
 0009:00000390       __imp__NtWriteFileGather@32 00638b50     xboxkrnl:xboxkrnl.exe
 0009:00000394       __imp_@ObfDereferenceObject@4 00638b54     xboxkrnl:xboxkrnl.exe
 0009:00000398       __imp__IoQueryVolumeInformation@20 00638b58     xboxkrnl:xboxkrnl.exe
 0009:0000039c       __imp__ObReferenceObjectByHandle@12 00638b5c     xboxkrnl:xboxkrnl.exe
 0009:000003a0       _IoFileObjectType          00638b60     xboxkrnl:xboxkrnl.exe
 0009:000003a0       __imp__IoFileObjectType    00638b60     xboxkrnl:xboxkrnl.exe
 0009:000003a4       __imp__RtlAnsiStringToUnicodeString@12 00638b64     xboxkrnl:xboxkrnl.exe
 0009:000003a8       __imp__RtlAssert@16        00638b68     xboxkrnl:xboxkrnl.exe
 0009:000003ac       __imp__RtlUnicodeStringToAnsiString@12 00638b6c     xboxkrnl:xboxkrnl.exe
 0009:000003b0       __imp__NtCreateIoCompletion@16 00638b70     xboxkrnl:xboxkrnl.exe
 0009:000003b4       __imp__NtSetIoCompletion@20 00638b74     xboxkrnl:xboxkrnl.exe
 0009:000003b8       __imp__NtRemoveIoCompletion@20 00638b78     xboxkrnl:xboxkrnl.exe
 0009:000003bc       __imp__IoCreateSymbolicLink@8 00638b7c     xboxkrnl:xboxkrnl.exe
 0009:000003c0       __imp__IoDeleteSymbolicLink@4 00638b80     xboxkrnl:xboxkrnl.exe
 0009:000003c4       __imp__NtQuerySymbolicLinkObject@12 00638b84     xboxkrnl:xboxkrnl.exe
 0009:000003c8       __imp__NtOpenSymbolicLinkObject@8 00638b88     xboxkrnl:xboxkrnl.exe
 0009:000003cc       __imp__XcSHAFinal@8        00638b8c     xboxkrnl:xboxkrnl.exe
 0009:000003d0       __imp__XcSHAUpdate@12      00638b90     xboxkrnl:xboxkrnl.exe
 0009:000003d4       __imp__XcSHAInit@4         00638b94     xboxkrnl:xboxkrnl.exe
 0009:000003d8       _XeImageFileName           00638b98     xboxkrnl:xboxkrnl.exe
 0009:000003d8       __imp__XeImageFileName     00638b98     xboxkrnl:xboxkrnl.exe
 0009:000003dc       _HalBootSMCVideoMode       00638b9c     xboxkrnl:xboxkrnl.exe
 0009:000003dc       __imp__HalBootSMCVideoMode 00638b9c     xboxkrnl:xboxkrnl.exe
 0009:000003e0       __imp__KeInitializeTimerEx@8 00638ba0     xboxkrnl:xboxkrnl.exe
 0009:000003e4       __imp__KeSetTimer@16       00638ba4     xboxkrnl:xboxkrnl.exe
 0009:000003e8       __imp__KeCancelTimer@4     00638ba8     xboxkrnl:xboxkrnl.exe
 0009:000003ec       __imp__KeSetEvent@12       00638bac     xboxkrnl:xboxkrnl.exe
 0009:000003f0       __imp__KeWaitForSingleObject@20 00638bb0     xboxkrnl:xboxkrnl.exe
 0009:000003f4       __imp__ExEventObjectType   00638bb4     xboxkrnl:xboxkrnl.exe
 0009:000003f4       _ExEventObjectType         00638bb4     xboxkrnl:xboxkrnl.exe
 0009:000003f8       __imp__KeInitializeDpc@12  00638bb8     xboxkrnl:xboxkrnl.exe
 0009:000003fc       __imp__XboxHardwareInfo    00638bbc     xboxkrnl:xboxkrnl.exe
 0009:000003fc       _XboxHardwareInfo          00638bbc     xboxkrnl:xboxkrnl.exe
 0009:00000400       __imp__NtCreateEvent@16    00638bc0     xboxkrnl:xboxkrnl.exe
 0009:00000404       __imp__ObOpenObjectByName@16 00638bc4     xboxkrnl:xboxkrnl.exe
 0009:00000408       __imp__NtSetEvent@8        00638bc8     xboxkrnl:xboxkrnl.exe
 0009:0000040c       __imp__NtClearEvent@4      00638bcc     xboxkrnl:xboxkrnl.exe
 0009:00000410       __imp__NtPulseEvent@8      00638bd0     xboxkrnl:xboxkrnl.exe
 0009:00000414       __imp__NtCreateSemaphore@16 00638bd4     xboxkrnl:xboxkrnl.exe
 0009:00000418       _ExSemaphoreObjectType     00638bd8     xboxkrnl:xboxkrnl.exe
 0009:00000418       __imp__ExSemaphoreObjectType 00638bd8     xboxkrnl:xboxkrnl.exe
 0009:0000041c       __imp__NtReleaseSemaphore@12 00638bdc     xboxkrnl:xboxkrnl.exe
 0009:00000420       __imp__NtCreateMutant@12   00638be0     xboxkrnl:xboxkrnl.exe
 0009:00000424       _ExMutantObjectType        00638be4     xboxkrnl:xboxkrnl.exe
 0009:00000424       __imp__ExMutantObjectType  00638be4     xboxkrnl:xboxkrnl.exe
 0009:00000428       __imp__NtReleaseMutant@8   00638be8     xboxkrnl:xboxkrnl.exe
 0009:0000042c       __imp__NtWaitForSingleObjectEx@16 00638bec     xboxkrnl:xboxkrnl.exe
 0009:00000430       __imp__NtSignalAndWaitForSingleObjectEx@20 00638bf0     xboxkrnl:xboxkrnl.exe
 0009:00000434       __imp__NtWaitForMultipleObjectsEx@24 00638bf4     xboxkrnl:xboxkrnl.exe
 0009:00000438       __imp__KeDelayExecutionThread@12 00638bf8     xboxkrnl:xboxkrnl.exe
 0009:0000043c       __imp__NtCreateTimer@12    00638bfc     xboxkrnl:xboxkrnl.exe
 0009:00000440       __imp__ExTimerObjectType   00638c00     xboxkrnl:xboxkrnl.exe
 0009:00000440       _ExTimerObjectType         00638c00     xboxkrnl:xboxkrnl.exe
 0009:00000444       __imp__NtSetTimerEx@32     00638c04     xboxkrnl:xboxkrnl.exe
 0009:00000448       __imp__NtCancelTimer@8     00638c08     xboxkrnl:xboxkrnl.exe
 0009:0000044c       __imp__KeQuerySystemTime@4 00638c0c     xboxkrnl:xboxkrnl.exe
 0009:00000450       __imp__HalRegisterShutdownNotification@8 00638c10     xboxkrnl:xboxkrnl.exe
 0009:00000454       __imp__MmSetAddressProtect@12 00638c14     xboxkrnl:xboxkrnl.exe
 0009:00000458       __imp__MmQueryAddressProtect@4 00638c18     xboxkrnl:xboxkrnl.exe
 0009:0000045c       _XboxKrnlVersion           00638c1c     xboxkrnl:xboxkrnl.exe
 0009:0000045c       __imp__XboxKrnlVersion     00638c1c     xboxkrnl:xboxkrnl.exe
 0009:00000460       __imp__RtlLeaveCriticalSection@4 00638c20     xboxkrnl:xboxkrnl.exe
 0009:00000464       __imp__RtlEnterCriticalSection@4 00638c24     xboxkrnl:xboxkrnl.exe
 0009:00000468       __imp__KeSetBasePriorityThread@8 00638c28     xboxkrnl:xboxkrnl.exe
 0009:0000046c       _PsThreadObjectType        00638c2c     xboxkrnl:xboxkrnl.exe
 0009:0000046c       __imp__PsThreadObjectType  00638c2c     xboxkrnl:xboxkrnl.exe
 0009:00000470       __imp__KeQueryBasePriorityThread@4 00638c30     xboxkrnl:xboxkrnl.exe
 0009:00000474       __imp__KeSetDisableBoostThread@8 00638c34     xboxkrnl:xboxkrnl.exe
 0009:00000478       __imp__NtSuspendThread@8   00638c38     xboxkrnl:xboxkrnl.exe
 0009:0000047c       __imp__NtResumeThread@8    00638c3c     xboxkrnl:xboxkrnl.exe
 0009:00000480       __imp__RtlRaiseException@4 00638c40     xboxkrnl:xboxkrnl.exe
 0009:00000484       __imp__NtQueueApcThread@20 00638c44     xboxkrnl:xboxkrnl.exe
 0009:00000488       __imp__NtYieldExecution@0  00638c48     xboxkrnl:xboxkrnl.exe
 0009:0000048c       __imp__PsTerminateSystemThread@4 00638c4c     xboxkrnl:xboxkrnl.exe
 0009:00000490       _KeTimeIncrement           00638c50     xboxkrnl:xboxkrnl.exe
 0009:00000490       __imp__KeTimeIncrement     00638c50     xboxkrnl:xboxkrnl.exe
 0009:00000494       __imp__PsCreateSystemThreadEx@40 00638c54     xboxkrnl:xboxkrnl.exe
 0009:00000498       __imp__XcHMAC@28           00638c58     xboxkrnl:xboxkrnl.exe
 0009:0000049c       __imp__XboxHDKey           00638c5c     xboxkrnl:xboxkrnl.exe
 0009:0000049c       _XboxHDKey                 00638c5c     xboxkrnl:xboxkrnl.exe
 0009:000004a0       __imp__RtlCompareString@12 00638c60     xboxkrnl:xboxkrnl.exe
 0009:000004a4       __imp__HalGetInterruptVector@8 00638c64     xboxkrnl:xboxkrnl.exe
 0009:000004a8       __imp__KeConnectInterrupt@4 00638c68     xboxkrnl:xboxkrnl.exe
 0009:000004ac       __imp__KeInitializeInterrupt@28 00638c6c     xboxkrnl:xboxkrnl.exe
 0009:000004b0       __imp__KeStallExecutionProcessor@4 00638c70     xboxkrnl:xboxkrnl.exe
 0009:000004b4       __imp__ExAllocatePoolWithTag@8 00638c74     xboxkrnl:xboxkrnl.exe
 0009:000004b8       __imp__ExFreePool@4        00638c78     xboxkrnl:xboxkrnl.exe
 0009:000004bc       __imp__KeQueryInterruptTime@0 00638c7c     xboxkrnl:xboxkrnl.exe
 0009:000004c0       __imp__HalInitiateShutdown@0 00638c80     xboxkrnl:xboxkrnl.exe
 0009:000004c4       __imp__RtlEqualString@12   00638c84     xboxkrnl:xboxkrnl.exe
 0009:000004c8       __imp__XeLoadSection@4     00638c88     xboxkrnl:xboxkrnl.exe
 0009:000004cc       __imp__XeUnloadSection@4   00638c8c     xboxkrnl:xboxkrnl.exe
 0009:000004d0       __imp__HalDiskCachePartitionCount 00638c90     xboxkrnl:xboxkrnl.exe
 0009:000004d0       _HalDiskCachePartitionCount 00638c90     xboxkrnl:xboxkrnl.exe
 0009:000004d4       __imp__RtlFillMemoryUlong@12 00638c94     xboxkrnl:xboxkrnl.exe
 0009:000004d8       __imp__NtFreeVirtualMemory@12 00638c98     xboxkrnl:xboxkrnl.exe
 0009:000004dc       __imp__NtAllocateVirtualMemory@20 00638c9c     xboxkrnl:xboxkrnl.exe
 0009:000004e0       _KdDebuggerEnabled         00638ca0     xboxkrnl:xboxkrnl.exe
 0009:000004e0       __imp__KdDebuggerEnabled   00638ca0     xboxkrnl:xboxkrnl.exe
 0009:000004e4       __imp__RtlCompareMemoryUlong@12 00638ca4     xboxkrnl:xboxkrnl.exe
 0009:000004e8       __imp__RtlCompareMemory@12 00638ca8     xboxkrnl:xboxkrnl.exe
 0009:000004ec       __imp__RtlInitializeCriticalSection@4 00638cac     xboxkrnl:xboxkrnl.exe
 0009:000004f0       __imp__NtQueryVirtualMemory@8 00638cb0     xboxkrnl:xboxkrnl.exe
 0009:000004f4       _XboxSignatureKey          00638cb4     xboxkrnl:xboxkrnl.exe
 0009:000004f4       __imp__XboxSignatureKey    00638cb4     xboxkrnl:xboxkrnl.exe
 0009:000004f8       __imp__XboxAlternateSignatureKeys 00638cb8     xboxkrnl:xboxkrnl.exe
 0009:000004f8       _XboxAlternateSignatureKeys 00638cb8     xboxkrnl:xboxkrnl.exe
 0009:000004fc       __imp__NtQueryDirectoryFile@40 00638cbc     xboxkrnl:xboxkrnl.exe
 0009:00000500       __imp__NtQueryFullAttributesFile@8 00638cc0     xboxkrnl:xboxkrnl.exe
 0009:00000504       __imp__FscSetCacheSize@4   00638cc4     xboxkrnl:xboxkrnl.exe
 0009:00000508       __imp__FscGetCacheSize@0   00638cc8     xboxkrnl:xboxkrnl.exe
 0009:0000050c       __imp__MmGetPhysicalAddress@4 00638ccc     xboxkrnl:xboxkrnl.exe
 0009:00000510       __imp__MmLockUnlockBufferPages@12 00638cd0     xboxkrnl:xboxkrnl.exe
 0009:00000514       __imp__KeInsertQueueDpc@12 00638cd4     xboxkrnl:xboxkrnl.exe
 0009:00000518       __imp__MmLockUnlockPhysicalPage@8 00638cd8     xboxkrnl:xboxkrnl.exe
 0009:0000051c       __imp__MmAllocateContiguousMemoryEx@20 00638cdc     xboxkrnl:xboxkrnl.exe
 0009:00000520       __imp__MmQueryAllocationSize@4 00638ce0     xboxkrnl:xboxkrnl.exe
 0009:00000524       __imp__AvGetSavedDataAddress@0 00638ce4     xboxkrnl:xboxkrnl.exe
 0009:00000528       __imp__AvSendTVEncoderOption@16 00638ce8     xboxkrnl:xboxkrnl.exe
 0009:0000052c       __imp__AvSetDisplayMode@24 00638cec     xboxkrnl:xboxkrnl.exe
 0009:00000530       __imp__AvSetSavedDataAddress@4 00638cf0     xboxkrnl:xboxkrnl.exe
 0009:00000534       __imp__MmQueryStatistics@4 00638cf4     xboxkrnl:xboxkrnl.exe
 0009:00000538       __imp__RtlWalkFrameChain@12 00638cf8     xboxkrnl:xboxkrnl.exe
 0009:0000053c       __imp__NtDeleteFile@4      00638cfc     xboxkrnl:xboxkrnl.exe
 0009:00000540       _KeTickCount               00638d00     xboxkrnl:xboxkrnl.exe
 0009:00000540       __imp__KeTickCount         00638d00     xboxkrnl:xboxkrnl.exe
 0009:00000544       __imp__HalReadWritePCISpace@24 00638d04     xboxkrnl:xboxkrnl.exe
 0009:00000548       __imp__KeDisconnectInterrupt@4 00638d08     xboxkrnl:xboxkrnl.exe
 0009:0000054c       __imp__MmClaimGpuInstanceMemory@8 00638d0c     xboxkrnl:xboxkrnl.exe
 0009:00000550       __imp__RtlUnwind@16        00638d10     xboxkrnl:xboxkrnl.exe
 0009:00000554       __imp__KeBugCheck@4        00638d14     xboxkrnl:xboxkrnl.exe
 0009:00000558       \177xboxkrnl_NULL_THUNK_DATA 00638d18     xboxkrnl:xboxkrnl.exe
 000a:00000000       __tls_start                00638ee0     xapilibd:xapitls.obj
 000a:00000108       _XapiLastErrorCode         00638fe8     xapilibd:error.obj
 000a:0000010c       ___ptd_cur                 00638fec     LIBCMTD:tidtable.obj
 000a:00000110       _XapiTlsSlots              00638ff0     xapilibd:tls.obj
 000a:000002ab       __tls_end                  0063918b     xapilibd:xapitls.obj
 000b:00000000       _XapiBuildNumberD          006392a0     xapilibd:xapi0.obj
 000b:00000114       _D3D8BuildNumberD          006393b4     d3d8d:precomp.obj
 000b:00000128       _D3DX8BuildNumberD         006393c8     d3dx8d:pchcore.obj
 000b:0000013c       _XGraphicsBuildNumberD     006393dc     xgraphicsd:swizzler.obj
 000b:00000150       _XboxKrnlBuildNumber       006393f0     xboxkrnl:bldnum.obj
 000b:00000164       ___DebugCrtBuildNumberMT   00639404     LIBCMTD:new.obj

 entry point at        0002:0000497f

